(dp0
S'POM3A(S)'
p1
(dp2
S'Spread'
p3
(lp4
(lp5
S'NSGAII_100'
p6
aF0.690573918431331
aF0.8027372987547848
aF0.749734920756289
aF0.7109878790700168
aF0.6568118687939476
aF0.7836372459635553
aF0.7597251832192654
aF0.6860166922486294
aF0.7002803948208681
aF0.7284547586361774
aF0.7007677996350581
aF0.7331038164982108
aF0.6653515964162121
aF0.7220392045952866
aF0.7188116741253386
aF0.737119879730816
aF0.7570376867918558
aF0.605997849756348
aF0.6976976336623678
aF0.784469543814154
aF0.6901306207148205
aa(lp7
S'SWAY5_10000'
p8
aF0.42233311438131105
aF0.4049915385241731
aF0.4618882213665026
aF0.5021748388454015
aF0.40893807247870256
aF0.4361463233904276
aF0.4508731472820863
aF0.4653474005082996
aF0.424529279925008
aF0.4335092659953722
aF0.3760372603317321
aF0.4558333303563482
aF0.39034000456049983
aF0.3826651133262359
aF0.4352880074500469
aF0.46164237188776
aF0.46702107519350816
aF0.3864906796997064
aF0.4582262689059962
aF0.5230259571959758
aF0.45210870185416535
aa(lp9
S'SPEA2_100'
p10
aF0.5899527153639512
aF0.5984011342830953
aF0.6522568038851159
aF0.6630468095381314
aF0.6203037563499139
aF0.6541326652425843
aF0.6434209550584621
aF0.5606165379757061
aF0.7046765469277877
aF0.6466207545239394
aF0.6621933357997898
aF0.6670059963368684
aF0.5907413788860059
aF0.6784084697713012
aF0.5874697507420366
aF0.5986836559214065
aF0.7013433367189366
aF0.6443787426516873
aF0.5436401123974088
aF0.7418850397563573
aF0.6232958399387385
aasS'HV'
p11
(lp12
(lp13
S'NSGAII_100'
p14
aF1095221.4252
aF1136123.7236
aF1127358.1319
aF1176793.0689
aF1203755.1745
aF1139366.7535
aF1074112.7133
aF1127477.0
aF1138485.6938
aF1091298.374
aF1166524.4467
aF1202801.333
aF1073430.7873
aF1145509.7619
aF1178532.4337
aF1120834.383
aF1117606.8524
aF1125256.098
aF1150860.8715
aF1108224.5932
aF1188173.9516
aa(lp15
S'SWAY5_10000'
p16
aF875402.6553
aF842816.5991
aF778410.1774
aF731622.7627
aF817923.4609
aF831438.9247
aF955457.5818
aF923347.4121
aF838525.875
aF794629.2476
aF824263.4811
aF784758.8756
aF698272.7481
aF874661.9268
aF776916.5063
aF873061.6248
aF815936.4861
aF822034.6026
aF911880.0149
aF712562.2016
aF945468.1835
aa(lp17
S'SPEA2_100'
p18
aF1211271.5119
aF1160061.325
aF1235013.4339
aF1193307.2721
aF1119945.4189
aF1134602.0671
aF1150975.0851
aF1106873.1179
aF1132088.8647
aF1202462.6176
aF1230995.1662
aF1101361.8521
aF1156913.907
aF1125017.6241
aF1083773.8607
aF1171025.8023
aF1115283.5016
aF1108893.6477
aF1167555.8814
aF1212245.2878
aF1148443.3395
aass.