(dp0
S'POM3B'
p1
(dp2
S'Spread'
p3
(lp4
(lp5
S'NSGAII_100'
p6
aF0.6717035794374132
aF0.6281350460245256
aF0.7028417464936917
aF0.6249129057225906
aF0.6408901697358068
aF0.6790544675360797
aF0.6863626586326729
aF0.6901469152738151
aF0.6507660628087868
aF0.740163744355414
aF0.7275694378270999
aF0.7136138632284242
aF0.6757308120927684
aF0.6826525868233521
aF0.714273255350795
aF0.5717516028730647
aF0.6591729652639878
aF0.6398298134806498
aF0.6951890080736183
aF0.6028082039657212
aF0.6870221978286157
aF0.6180013751192127
aF0.7023324397878385
aF0.664895009516824
aF0.7092941991551457
aF0.6769212586394856
aF0.5763431205297582
aF0.8401049111301324
aF0.5503842997112951
aF0.5854099092166224
aF0.6617634173843034
aF0.7174902691762925
aF0.6691470364296758
aF0.6768029498023821
aF0.7024570211177354
aF0.6882974443576583
aF0.6707162568285123
aF0.6466142492960867
aF0.6894001127997416
aF0.6157801686984243
aF0.6125375605014379
aF0.6114867465300258
aF0.6006290241593863
aF0.7087679820843658
aF0.6702523636903874
aF0.6375764727012346
aF0.7043665389516056
aF0.6419094875556869
aF0.6347259556378323
aF0.6165982307670723
aF0.7771888675548521
aF0.664204225862116
aF0.647981641964906
aF0.5745477298545517
aF0.8317213695006719
aF0.5733030354088834
aF0.6866881073323181
aF0.6635603421581654
aF0.5966591329421395
aF0.6399082186960482
aF0.6677291424005123
aF0.6893778763997795
aF0.7152802542708406
aF0.6418229306251799
aF0.6404048325346072
aF0.6242707601631957
aF0.6990180371480976
aF0.6764280418607265
aF0.655423730563447
aF0.6920391101496248
aF0.6051321348099936
aF0.5714637851435296
aF0.6634805171057321
aF0.8312277639459466
aF0.6881008150147178
aF0.5574058055074598
aF0.7035550674298777
aF0.6587090167432477
aF0.7515972938985627
aF0.5910970253203724
aF0.7081750370688572
aF0.6092711402790862
aF0.6632205659576078
aF0.6150123768301504
aa(lp7
S'SWAY5_10000'
p8
aF0.41411287147525583
aF0.47110781939442087
aF0.6117114767107213
aF0.49430778768356987
aF0.5494534218518144
aF0.4824258749704473
aF0.4480821740430287
aF0.5471471881183299
aF0.4785413490223368
aF0.5469047491875237
aF0.4482824749289325
aF0.48217056381398454
aF0.5147880365733263
aF0.518016476111407
aF0.4556394007234522
aF0.506834244715777
aF0.5145660300308819
aF0.5109553802904857
aF0.42648770008097914
aF0.5191988786523863
aF0.5083804537960964
aF0.4666045158844785
aF0.4150006759096053
aF0.4461922615131518
aF0.4425401216677317
aF0.47442145164847527
aF0.4267576491978741
aF0.4645638166786554
aF0.4608910104248673
aF0.622120300584805
aF0.38689798855003604
aF0.37459969153184874
aF0.4979590082784913
aF0.47634914597700434
aF0.4215809068451293
aF0.44055791858243876
aF0.4835578532580621
aF0.4902931426825686
aF0.4728261121181185
aF0.4241097445565126
aF0.48848449561687124
aF0.4295263930465061
aF0.4310431290770639
aF0.4514272274694646
aF0.45018187520685143
aF0.5146581355687986
aF0.4554652593649374
aF0.46572543489964024
aF0.3990036599550334
aF0.5244742136871169
aF0.46140783242509226
aF0.5003547831050547
aF0.3966026935528263
aF0.49571410519734205
aF0.45469562906339583
aF0.45791853347945854
aF0.41424852251873584
aF0.38522350868574007
aF0.4593117944609568
aF0.39495963127900685
aF0.519960167881491
aF0.33050327971207527
aF0.4819291497407071
aF0.48452816502197515
aF0.4633332611109357
aF0.45511294465978164
aF0.5480110282582802
aF0.42121792644537565
aF0.5503547819357908
aF0.471683017893179
aF0.4090149694180061
aF0.4869288056598028
aF0.45084958131211855
aF0.44435746326059794
aF0.5445623362241315
aF0.488309768220502
aF0.5170113454432818
aF0.4582115264956156
aF0.505035504612429
aF0.4475324117323911
aF0.47235515628471025
aF0.4069897474370194
aF0.5020681739933732
aF0.5001301747029536
aa(lp9
S'SPEA2_100'
p10
aF0.5825783404684244
aF0.5747263891555267
aF0.5375989740579886
aF0.5970863554116798
aF0.585425052332609
aF0.5930045488857607
aF0.5400845832937736
aF0.6410168069050195
aF0.6212415514654177
aF0.6487749443756944
aF0.5949575361761156
aF0.5900434348883592
aF0.6418784653862939
aF0.555500085730881
aF0.5906981673843774
aF0.5845080283076194
aF0.6008905492629829
aF0.5632364782522876
aF0.6118337380576067
aF0.6068393601855151
aF0.6604709129966979
aF0.6547759630868387
aF0.5956582205396912
aF0.6789768469489404
aF0.6075035323022955
aF0.678289352799135
aF0.596856565928951
aF0.7122803225473343
aF0.5798929415398737
aF0.6685463476060443
aF0.6411243874878008
aF0.6895687183678373
aF0.688459911339162
aF0.7218533986131258
aF0.6608717825393476
aF0.6370756063552815
aF0.598755939775165
aF0.6955170673758376
aF0.5912926280503893
aF0.702736544645971
aF0.6567398152153762
aF0.6400169253485857
aF0.5571190766023053
aF0.6081461835197804
aF0.5508338110976672
aF0.6583394225770522
aF0.6461034832432694
aF0.6445373123488503
aF0.6139079335383109
aF0.6891277501317715
aF0.6268881784302281
aF0.5710140270522541
aF0.609330581171107
aF0.628408843499702
aF0.6313508243929653
aF0.6032819752934908
aF0.6183001171106444
aF0.641301345340852
aF0.6453919330949747
aF0.6705631552758724
aF0.5737467295653776
aF0.7562996964781711
aF0.5811494131444225
aF0.5824573703042314
aF0.5939994336419766
aF0.6313503230422626
aF0.661369840094209
aF0.5720853707010584
aF0.6468331289898983
aF0.6203183173107177
aF0.5856019061839417
aF0.5176347693930605
aF0.6182922291117365
aF0.5621497762752867
aF0.6400497870494317
aF0.6399181099567415
aF0.6732394516628118
aF0.6047682541810491
aF0.6012757991840715
aF0.6612462808431172
aF0.5848887152267073
aF0.5994954860766344
aF0.5894191903298911
aF0.6741400343246028
aasS'HV'
p11
(lp12
(lp13
S'NSGAII_100'
p14
aF1287783.0851
aF1284733.7504
aF1278210.2951
aF1292709.5616
aF1309979.6903
aF1285131.1513
aF1298064.1983
aF1288360.2585
aF1287384.6343
aF1277802.9441
aF1282923.6464
aF1291823.3664
aF1268956.4038
aF1279421.2405
aF1301012.6111
aF1293331.2222
aF1289977.468
aF1283975.2033
aF1287140.9125
aF1281673.7184
aF1308881.6112
aF1297994.3527
aF1309319.5129
aF1276145.5921
aF1291645.9201
aF1290480.4946
aF1267035.4641
aF1262020.5937
aF1254146.7644
aF1286553.2154
aF1268790.9756
aF1273018.9389
aF1273040.458
aF1271032.7894
aF1267741.6798
aF1273302.5309
aF1248059.5505
aF1285624.8827
aF1268375.6213
aF1292760.0709
aF1279393.6758
aF1284846.4277
aF1299103.4123
aF1295802.3263
aF1290352.5137
aF1296874.9372
aF1282800.6077
aF1298313.1286
aF1292325.2427
aF1290267.6074
aF1290826.6821
aF1293736.0667
aF1291585.0748
aF1307984.3628
aF1284230.2453
aF1301807.27
aF1282567.6406
aF1284747.8026
aF1306049.8931
aF1285107.5576
aF1307540.4617
aF1289910.8753
aF1311645.7851
aF1300844.6795
aF1304895.5032
aF1301669.2179
aF1304726.2196
aF1307647.7973
aF1311308.5935
aF1301009.1306
aF1312108.1474
aF1307932.6849
aF1302260.253
aF1309425.3257
aF1305203.3773
aF1307154.6434
aF1297801.1921
aF1302571.72
aF1322746.2793
aF1311500.6041
aF1301917.6737
aF1303772.6133
aF1305201.4085
aF1299201.9222
aa(lp15
S'SWAY5_10000'
p16
aF1141336.4907
aF970608.0563
aF993937.9905
aF944745.4158
aF1095220.8733
aF1033507.4899
aF1077403.1834
aF924497.5175
aF925170.035
aF871670.239
aF962358.5853
aF1074933.1673
aF1135327.6559
aF1148873.3859
aF1008748.4796
aF1078702.3079
aF904460.9703
aF987661.734
aF1095920.9771
aF1007619.1391
aF1094645.3429
aF1127609.4715
aF991445.1009
aF928454.3451
aF1145471.7502
aF1203162.8097
aF983925.0846
aF1111988.8144
aF1092850.3315
aF1105772.6886
aF1021937.172
aF1063999.9819
aF1173104.8029
aF1086884.6889
aF1175926.6426
aF1029803.1413
aF1049671.7466
aF1105623.4609
aF1196297.6131
aF1180417.0891
aF975265.9961
aF1184332.5168
aF1240563.5225
aF1185302.8648
aF1164699.0642
aF1251615.0318
aF949318.0579
aF1208818.8924
aF1201234.5364
aF1285077.27
aF1231715.4596
aF1021835.3477
aF1209867.3897
aF1223077.0385
aF1256717.8836
aF1252114.3255
aF1279148.7423
aF1088388.2625
aF1242497.0119
aF1246539.4921
aF1188837.4789
aF1152382.7986
aF1264806.9847
aF886867.2354
aF1058918.0965
aF978384.0464
aF1073856.8615
aF1029634.0454
aF1162675.6823
aF1205458.1282
aF1025189.5505
aF1144595.0639
aF887321.2804
aF1135746.7173
aF1112002.2472
aF1184229.8007
aF1052943.9164
aF1114649.862
aF953067.8571
aF1050920.3509
aF1070971.6669
aF1118399.2132
aF930642.8831
aF1083971.1745
aa(lp17
S'SPEA2_100'
p18
aF1281329.9268
aF1295020.7502
aF1290135.1981
aF1285653.5816
aF1278803.7115
aF1289493.1997
aF1297342.3769
aF1287837.0247
aF1279606.6426
aF1296680.7193
aF1273652.5418
aF1278478.9804
aF1277223.9467
aF1259805.3973
aF1275855.3256
aF1283069.1442
aF1319160.5427
aF1290929.937
aF1290773.1819
aF1288835.807
aF1272745.7212
aF1314062.2479
aF1304116.3722
aF1314750.0143
aF1312567.0867
aF1303285.4035
aF1303943.9388
aF1321567.5199
aF1301492.3419
aF1329843.1075
aF1309594.4481
aF1305415.1385
aF1305845.6513
aF1302800.635
aF1308131.5656
aF1318719.4995
aF1308060.6928
aF1306466.6125
aF1298244.3752
aF1305320.6676
aF1309144.3691
aF1314744.5305
aF1292131.44
aF1298399.9015
aF1310982.2297
aF1291539.4916
aF1302776.6124
aF1295271.4811
aF1299830.2541
aF1306658.7369
aF1284427.315
aF1297332.5877
aF1283002.5464
aF1282013.5351
aF1291791.5961
aF1275059.1731
aF1287078.2592
aF1291012.314
aF1300096.8868
aF1287950.7462
aF1291745.9915
aF1294144.503
aF1294540.9735
aF1277440.2608
aF1282193.6442
aF1291708.6575
aF1310653.776
aF1263830.9245
aF1273312.1873
aF1265201.3748
aF1265476.4333
aF1269699.9547
aF1284714.1588
aF1272803.568
aF1291076.7486
aF1272059.7866
aF1283172.951
aF1263923.4159
aF1307116.3414
aF1281966.3825
aF1287852.1811
aF1272038.2622
aF1276528.6875
aF1269416.9921
aass.