(dp0
S'POM3C(S)'
p1
(dp2
S'Spread'
p3
(lp4
(lp5
S'NSGAII_100'
p6
aF0.5363254121885018
aF0.5377259763758695
aF0.43984143696809525
aF0.4477594318568172
aF0.506870348345281
aF0.5273891237405338
aF0.4850195436849905
aF0.5033093585854335
aF0.44933733620834637
aF0.4989027518203467
aF0.4647187759904425
aF0.4732721766096785
aF0.5467882923185247
aF0.4968324564128451
aF0.42954295632891376
aF0.43736557673357845
aF0.5389498582392984
aF0.4572999742580675
aF0.5366710570091957
aF0.4245588019820727
aF0.5425694833892836
aa(lp7
S'SPEA2_100'
p8
aF0.5509283017899247
aF0.5694138632208164
aF0.5816512018351155
aF0.5989593665641559
aF0.6846463559835264
aF0.5618441478287667
aF0.5647422377666004
aF0.5925397813642782
aF0.5683689904863732
aF0.620839213786528
aF0.5920709987539244
aF0.5565482968348785
aF0.6159147759999695
aF0.6450667433600455
aF0.6528734460384624
aF0.5755802212753662
aF0.5477678170272734
aF0.6673469920316857
aF0.6523138441345006
aF0.5907125732469453
aF0.6497949030500966
aa(lp9
S'SWAY5_10000'
p10
aF0.44909432204414834
aF0.40362728838370104
aF0.4293707792936367
aF0.43265870650891625
aF0.40355185849240005
aF0.4872999254816179
aF0.4150076669170199
aF0.4606274810036525
aF0.44968166152406674
aF0.4386864284352912
aF0.39292620820261603
aF0.4993226099349557
aF0.4349445435473413
aF0.42138850973484193
aF0.37115055801553704
aF0.41545184360866
aF0.4080068187156195
aF0.4338496299638997
aF0.44089111740036874
aF0.429597573531945
aF0.43478307446477016
aasS'HV'
p11
(lp12
(lp13
S'NSGAII_100'
p14
aF1079625.8801
aF1034679.9405
aF1046067.4531
aF1002772.526
aF1016367.0921
aF1059093.7875
aF1033078.6184
aF1055264.5121
aF1025335.7742
aF1022809.9651
aF1046323.3683
aF1039846.241
aF1054965.8105
aF1017491.1164
aF1041373.3106
aF1042006.1446
aF1035133.938
aF1047111.9645
aF1038999.3393
aF1028693.676
aF1027333.7067
aa(lp15
S'SPEA2_100'
p16
aF1046180.3963
aF1013124.7622
aF1050536.1033
aF1014335.535
aF1085766.6661
aF1107659.8724
aF1085360.1723
aF1045784.3319
aF1021535.817
aF1024031.3469
aF994294.1395
aF1052673.0245
aF1108507.9274
aF1009281.7307
aF1056785.4732
aF1038886.2322
aF1041232.1129
aF1045882.0265
aF1041115.9738
aF1052322.5636
aF1051849.4019
aa(lp17
S'SWAY5_10000'
p18
aF761145.1158
aF749169.9654
aF786032.0256
aF788650.87
aF723074.8702
aF681780.7343
aF741795.615
aF456943.2221
aF664036.2742
aF679960.8319
aF798266.6307
aF650461.1666
aF689673.7709
aF700501.7472
aF807574.8361
aF809255.7093
aF687120.7554
aF846385.5347
aF638598.1362
aF718606.4385
aF648204.2022
aass.