(dp0
S'POM3C'
p1
(dp2
S'Spread'
p3
(lp4
(lp5
S'NSGAII_100'
p6
aF0.5136828993378327
aF0.5419764453627183
aF0.541623266511898
aF0.6602577704074089
aF0.5387974974910971
aF0.5059109817049395
aF0.539356074722614
aF0.5510981513080566
aF0.5266374381505353
aF0.6071578493252999
aF0.5069286916928244
aF0.5213025839149298
aF0.5925473157398551
aF0.5373229782639956
aF0.5165131207710753
aF0.49927676895593315
aF0.5363988179271595
aF0.49601068282408434
aF0.49730138660166867
aF0.48342864079205244
aF0.4588927629717123
aF0.5775520973164717
aF0.5924561573390723
aF0.48099335623063066
aF0.4870236023886226
aF0.5480765073811685
aF0.5666047386061839
aF0.5195057173930214
aF0.5487239991723135
aF0.49388651747113166
aF0.5248543185571373
aF0.48694003992506574
aF0.5209377224235775
aF0.602608487379198
aF0.535963412275926
aF0.46036029686635743
aF0.4728510770868277
aF0.5775176003582017
aF0.4934300340556174
aF0.5731418278957208
aF0.46240934886465795
aF0.5719710915370407
aF0.6029758841466687
aF0.6888577623806756
aF0.7187417924730488
aF0.5273068771410037
aF0.6462335978998849
aF0.5442501203305935
aF0.6023206507029233
aF0.5844890939262206
aF0.5564873123419876
aF0.5066648108665364
aF0.5526128005483871
aF0.46371653279855646
aF0.49558839826303475
aF0.640282266041818
aF0.7217832387441311
aF0.5683950698423686
aF0.5499677786219761
aF0.5405918331233573
aF0.4882013760976272
aF0.5999989586203419
aF0.5110434487288382
aF0.5821952711145405
aF0.5057974960268207
aF0.6798487010027691
aF0.551542775241997
aF0.4866414686266168
aF0.6242751841680654
aF0.5379617530790268
aF0.6095408124432112
aF0.5022808556599929
aF0.49894757853670135
aF0.5284057506812156
aF0.5317301778884311
aF0.5125087755795267
aF0.5371466026699836
aF0.5808791579500079
aF0.5496460617849219
aF0.5873461804677181
aF0.5240039597202766
aF0.5427489771695663
aF0.6443462945590553
aF0.5436065224147362
aa(lp7
S'SWAY5_10000'
p8
aF0.570023395187575
aF0.46369871959427844
aF0.45850617133470906
aF0.5247607264677647
aF0.4916999835835543
aF0.4589186659362134
aF0.494703868062123
aF0.43318336716412953
aF0.43675965319115656
aF0.4004283183127136
aF0.48897503526196795
aF0.3807903300395588
aF0.410268417797243
aF0.5054719709862817
aF0.3962975687660329
aF0.41865175621801665
aF0.4657412837656785
aF0.4228849495230313
aF0.5202163552219137
aF0.44177653171916087
aF0.4421318461323334
aF0.5113245366277313
aF0.45124786547622125
aF0.5746489893779175
aF0.5372001424046055
aF0.521668157459496
aF0.5109387405912867
aF0.5243562190150368
aF0.5006626678427867
aF0.4665177294361854
aF0.5720557549233778
aF0.49319060427705785
aF0.488825973645414
aF0.5020106367004704
aF0.42205025457145245
aF0.48882752214105896
aF0.4605016341300837
aF0.5502079995449857
aF0.48528445965647304
aF0.49536616568258673
aF0.49494784615537096
aF0.4917294796970748
aF0.5146859028221602
aF0.5123499488474824
aF0.6550252187783745
aF0.4408919952725775
aF0.41178786330457146
aF0.4956804100467328
aF0.47114306246090715
aF0.5244929144749608
aF0.4466631718338624
aF0.5053697272858805
aF0.5539181749752535
aF0.4500627388392314
aF0.3780085247821261
aF0.5252297756766509
aF0.5244764566770073
aF0.3919758952609055
aF0.43163327447645033
aF0.4539692456562332
aF0.4565037911167383
aF0.4810813990310916
aF0.48409530628576325
aF0.5114794264557362
aF0.48377062358795236
aF0.4923452360206768
aF0.4845599858734172
aF0.5276530425006958
aF0.5536531586579809
aF0.4638597096383321
aF0.5637220633151847
aF0.5250347428337976
aF0.4839440074976009
aF0.45469692244102433
aF0.5646297256808549
aF0.49415960591458735
aF0.5101042287249397
aF0.44740938052584983
aF0.4762103151044661
aF0.4859387540796201
aF0.4886599998405868
aF0.5002458487493195
aF0.4965722694655628
aF0.48811172568248956
aa(lp9
S'SPEA2_100'
p10
aF0.6328582207308943
aF0.6440218420855162
aF0.5758072669492281
aF0.6659157461096376
aF0.5857785941185041
aF0.5611411376741509
aF0.6992671746745881
aF0.641145737589454
aF0.6357187629621016
aF0.674126382426378
aF0.6711874695051157
aF0.694873650646019
aF0.637468268358941
aF0.6172805094294151
aF0.5881836621676153
aF0.6590615886670992
aF0.6231789916738336
aF0.5657001684270164
aF0.6801712988293187
aF0.6698147580794789
aF0.7403591295419348
aF0.5875520040874599
aF0.6286923683404211
aF0.639540423226086
aF0.6452709266945518
aF0.7291199852147594
aF0.6113132615607433
aF0.604167066831665
aF0.6157976541050678
aF0.5854972652879388
aF0.6938758152260978
aF0.635386549661494
aF0.6047814101426301
aF0.6749890382530999
aF0.7108302609647857
aF0.688385836823887
aF0.6144564040076613
aF0.5852124365036397
aF0.707602657890618
aF0.6855527502022268
aF0.6311605203104269
aF0.7037312933955385
aF0.578178201198574
aF0.6095272695725071
aF0.6531568671981756
aF0.654431984085254
aF0.6683306981353541
aF0.5985855642180306
aF0.4599977795468555
aF0.5455682496673475
aF0.6201703424570172
aF0.5879368061945007
aF0.566143717375265
aF0.6043695140082557
aF0.6025953110035522
aF0.573929960309205
aF0.6235770240897145
aF0.5412448934066271
aF0.6319465909378648
aF0.6474641888268908
aF0.72982260485903
aF0.6913047845710911
aF0.592274505462734
aF0.6552183365713593
aF0.6760390137159408
aF0.6376138052806325
aF0.5633425691144722
aF0.6640327850529631
aF0.5600511418206541
aF0.5485777498796585
aF0.6154011286339398
aF0.6404285273993244
aF0.6179976319899614
aF0.6932715564438053
aF0.5883513725313249
aF0.5952542453213744
aF0.6609012359135961
aF0.6570715923264844
aF0.6084972384791549
aF0.7175896117213327
aF0.6290674154975079
aF0.5809153700197129
aF0.6423937669573433
aF0.5971976340535119
aasS'HV'
p11
(lp12
(lp13
S'NSGAII_100'
p14
aF980910.3947
aF959680.0966
aF986621.4952
aF971030.2118
aF987283.582
aF961343.427
aF979390.1997
aF999360.8823
aF979011.8723
aF984792.5076
aF973361.3317
aF962969.5061
aF973802.9209
aF980779.9875
aF952765.0938
aF953643.5398
aF991597.5643
aF964426.6378
aF958641.3286
aF961542.7955
aF961071.8187
aF907247.1767
aF879936.6344
aF884762.0299
aF855318.7501
aF864228.7894
aF892740.8763
aF874238.5357
aF887458.6418
aF868530.8744
aF872189.5997
aF887405.2072
aF882642.4833
aF888833.464
aF866070.5007
aF879973.2333
aF880401.4815
aF875781.6199
aF889083.4322
aF876635.5114
aF875436.7071
aF871741.0772
aF1083019.0846
aF1070538.9782
aF1146387.1229
aF1040965.8092
aF1080725.6652
aF1104569.9526
aF1076226.3162
aF1070928.5748
aF1067745.8029
aF1112718.261
aF1133165.0909
aF1051892.5102
aF1043927.5579
aF1082933.1512
aF1057289.1039
aF1056482.5292
aF1058003.6859
aF1087852.5546
aF1088577.5858
aF1070861.4277
aF1058792.8904
aF933363.0931
aF967902.7603
aF949977.9717
aF908005.3913
aF922361.9701
aF934528.3389
aF901616.5351
aF925832.119
aF911778.8535
aF957247.2138
aF951521.3401
aF946766.0952
aF919751.2549
aF932135.214
aF935462.1199
aF925770.9652
aF923629.8051
aF932732.8461
aF922979.8347
aF906164.7062
aF902081.9782
aa(lp15
S'SWAY5_10000'
p16
aF830543.2863
aF775630.4503
aF778391.878
aF767791.0306
aF776879.119
aF700655.1159
aF719381.7564
aF610808.2919
aF881975.1758
aF742778.0232
aF834371.0116
aF774513.372
aF862936.7949
aF805756.6102
aF793463.649
aF841123.6784
aF778152.2095
aF823301.5468
aF721482.6916
aF850796.0332
aF739844.1643
aF777012.2855
aF711438.1404
aF720012.2039
aF668581.1345
aF662934.0557
aF600181.1397
aF706102.0188
aF623072.3655
aF679016.3933
aF788917.1295
aF726133.6118
aF669057.9479
aF802701.8616
aF727907.3092
aF703602.2164
aF645733.4236
aF679538.7972
aF789300.6399
aF650342.4174
aF715682.4814
aF682497.3488
aF798318.8362
aF631191.0169
aF595586.0878
aF696185.7348
aF798903.861
aF741735.2854
aF718361.4935
aF807085.8977
aF714727.1307
aF692648.3246
aF715174.7259
aF647154.8912
aF712279.4322
aF758251.242
aF718626.6656
aF718626.1021
aF819794.4996
aF839191.9804
aF671271.8292
aF710842.9426
aF741293.3303
aF686223.2499
aF671078.5128
aF703152.6014
aF707250.6409
aF680381.3751
aF632118.0215
aF668946.1594
aF483331.137
aF610179.1424
aF625717.3586
aF711413.4809
aF600113.4066
aF639842.982
aF649697.4053
aF732588.7545
aF723118.6467
aF639325.8382
aF749022.6855
aF611300.6187
aF658699.4932
aF608156.3469
aa(lp17
S'SPEA2_100'
p18
aF914181.3628
aF959404.664
aF925613.5245
aF937938.9219
aF903252.5601
aF928561.5844
aF929729.1451
aF938727.9674
aF926292.2601
aF965841.4393
aF931982.3012
aF910391.7912
aF928525.9762
aF941183.702
aF915746.8417
aF917226.8624
aF930328.9329
aF931701.7526
aF935506.5875
aF939981.416
aF964553.9687
aF875627.5598
aF862441.4865
aF881749.1477
aF863182.0544
aF915180.0624
aF927351.6223
aF911309.8157
aF879039.7834
aF869254.9711
aF872737.4293
aF848142.8782
aF890616.0079
aF940238.8356
aF853594.5166
aF889076.5747
aF878212.2822
aF877230.4157
aF878220.1372
aF879062.1431
aF888716.8909
aF896764.633
aF979854.3998
aF970921.5444
aF958347.9662
aF964486.9345
aF971928.11
aF974259.8342
aF963774.4462
aF973981.3197
aF973117.1267
aF991232.2783
aF966939.6292
aF978403.4431
aF959888.9039
aF966507.6974
aF987771.3542
aF968607.4804
aF999752.5735
aF961779.514
aF996497.578
aF967902.1694
aF958738.9915
aF1048187.8826
aF1068842.0849
aF1057700.3794
aF1058682.4792
aF1111305.0055
aF1142709.9854
aF1075933.5749
aF1116861.6007
aF1118688.2174
aF1048504.9131
aF1069267.5312
aF1095821.1916
aF1065065.6223
aF1114162.9809
aF1097467.7685
aF1067533.4158
aF1108710.6673
aF1050013.2105
aF1074615.3868
aF1131636.8108
aF1289059.8665
aass.