(dp0
S'POM3D'
p1
(dp2
S'Spread'
p3
(lp4
(lp5
S'NSGAII_100'
p6
aF0.8979285895798347
aF0.8943860940295556
aF0.8195682962741304
aF0.7067462164652323
aF0.8102537659574551
aF0.8126193247225143
aF0.7373488669241397
aF0.8578259582922941
aF0.7397898024010894
aF0.8381031808408729
aF0.9306055874250252
aF0.7673066497054783
aF0.7608084136670492
aF0.9441895915631315
aF0.8569884536192356
aF0.8557918739213668
aF0.7895568234735317
aF0.7992268771587422
aF0.6916225172493314
aF0.8437901019133773
aF0.7186185786085308
aa(lp7
S'SWAY5_10000'
p8
aF0.5965099407461663
aF0.5859936924538907
aF0.5597846774087835
aF0.6165276839850651
aF0.5411652096011597
aF0.4980098355248217
aF0.4613116774248
aF0.6038563706055214
aF0.5862484377836394
aF0.5449550604101744
aF0.5349889283042486
aF0.5624648696608168
aF0.5456050943979686
aF0.43397015413070206
aF0.5552004830997135
aF0.5607531532321297
aF0.6641122303254482
aF0.4953043338350703
aF0.488134935668285
aF0.5037259574196631
aF0.6446256915406607
aa(lp9
S'SPEA2_100'
p10
aF0.8133874059927506
aF0.8198744242428652
aF0.764300796539124
aF0.9255783952526838
aF0.9175128918631544
aF0.8290221755146815
aF0.7754649192840667
aF0.8757752172800478
aF0.7444096696229473
aF0.9104632349740404
aF0.7836185019329353
aF0.7192709636905485
aF0.8743230661847827
aF0.839187415675089
aF0.8923210336974171
aF0.8564942708344188
aF0.7857225792749291
aF0.8651534186968396
aF0.8377263091899513
aF0.8464336203826944
aF0.7181431845264634
aasS'HV'
p11
(lp12
(lp13
S'NSGAII_100'
p14
aF1317234.4133
aF1302188.3393
aF1310680.1789
aF1324002.6482
aF1309488.5027
aF1299066.0163
aF1313932.061
aF1317304.5723
aF1291563.9457
aF1324143.2735
aF1303222.5442
aF1329043.5103
aF1320438.4863
aF1303970.5405
aF1321560.55
aF1318672.3537
aF1314809.3424
aF1321712.9484
aF1293538.2719
aF1293565.3586
aF1294520.6687
aa(lp15
S'SWAY5_10000'
p16
aF1235337.9306
aF1238461.5038
aF1139083.5335
aF1282141.984
aF1221964.033
aF1180811.7331
aF1132117.6039
aF1241212.3184
aF1193023.2197
aF1203009.2719
aF1227234.1688
aF1189677.6153
aF1197821.1429
aF1226271.8163
aF1269982.1596
aF1204365.1442
aF1154706.6072
aF1214573.8816
aF1201636.4593
aF1254620.1154
aF1206789.3359
aa(lp17
S'SPEA2_100'
p18
aF1292514.3187
aF1310880.9157
aF1306847.603
aF1303233.5641
aF1322037.3713
aF1325469.5754
aF1309514.8489
aF1305817.2683
aF1315158.1765
aF1287612.8583
aF1323157.017
aF1293336.9794
aF1328168.645
aF1302885.6561
aF1315990.2682
aF1325683.261
aF1322685.2937
aF1310493.3267
aF1302146.452
aF1295553.5301
aF1322575.9639
aass.