(dp0
S'POM3A'
p1
(dp2
S'Spread'
p3
(lp4
(lp5
S'NSGAII_100'
p6
aF0.7072596111800825
aF0.7860895835520133
aF0.7046508722876034
aF0.6298743213222314
aF0.6752291535594905
aF0.6611150774603137
aF0.7350249079767538
aF0.6609444002584174
aF0.6446619473538372
aF0.7028082834130628
aF0.6262576144391669
aF0.8451912301164736
aF0.6880513115583179
aF0.6652034574957548
aF0.6662469532169012
aF0.7192504416733518
aF0.6787610133587041
aF0.5785182267039564
aF0.5594524360007783
aF0.7003149249305486
aF0.6267188376473465
aF0.8567256677464591
aF0.9761605999030583
aF0.772111659933632
aF0.8428190521023302
aF0.75547937025307
aF0.8659951417565854
aF0.7973024010754642
aF0.8522177876339071
aF0.8191049057272808
aF0.7864597235534461
aF0.7759978037087781
aF0.8093691541623604
aF0.772701924754657
aF0.7039992012051841
aF0.7877463367253282
aF0.9571368788675363
aF0.8220347977465616
aF0.8348421282251807
aF0.8204858259100097
aF0.7956360340411284
aF0.807250274579722
aF0.7803551808704844
aF0.8865856532030444
aF0.8193412099007585
aF0.7589288254210881
aF0.7283994139655964
aF0.7999503926231566
aF0.8198910953236401
aF0.793523994905981
aF0.7749903364535731
aF0.8248380658096556
aF0.7745707305429966
aF0.8146563219958073
aF0.7348770033823698
aF0.8126365320641388
aF0.7948273454288403
aF0.8445146121476285
aF0.8380757952855312
aF0.7191081543145624
aF0.7786080079574301
aF0.883170870558985
aF0.7544914919143126
aF0.6803730051350286
aF0.6863107230399647
aF0.6558505241395304
aF0.7375076628563687
aF0.6958266542220876
aF0.7215110036735702
aF0.7722756959897538
aF0.7551622734633413
aF0.6305249214758966
aF0.7080060503972133
aF0.6699298068461502
aF0.6756443292767114
aF0.6832919537108776
aF0.7033220320317473
aF0.6971973138127177
aF0.65648750948955
aF0.778058897463808
aF0.6476272827224807
aF0.698547457139767
aF0.675134092896725
aF0.6243588432177498
aa(lp7
S'SPEA2_100'
p8
aF0.5612966152762695
aF0.6477804039447361
aF0.737685003617657
aF0.7104533983888468
aF0.663168265488698
aF0.6773855101707558
aF0.5475806035890145
aF0.7351655964383333
aF0.6390803799129807
aF0.6100102760746914
aF0.6935896824495572
aF0.5819723639508912
aF0.7297906090379797
aF0.6275278475523041
aF0.7393206578908338
aF0.7734761833642508
aF0.7155379707326122
aF0.6558091885329851
aF0.5956355955790732
aF0.6906729863534221
aF0.7333914814524118
aF0.5894436201257144
aF0.686020786922287
aF0.6512194191300013
aF0.6181984632097152
aF0.6807758586576111
aF0.5925177253935368
aF0.6968833957716156
aF0.7564799894439658
aF0.6681394840954075
aF0.6801629319935953
aF0.7154874358976822
aF0.6434720521665318
aF0.6633395386261631
aF0.6237460597519727
aF0.6902924629537062
aF0.6545988966761204
aF0.6145453016132577
aF0.7282648398436973
aF0.7258399225280522
aF0.6198813975371139
aF0.7591321630320302
aF0.6979391700814855
aF0.708701575216265
aF0.7484763610580843
aF0.7708035853909581
aF0.7160657392004113
aF0.752961755420809
aF0.7187957989954158
aF0.6404211526823523
aF0.7920395785235268
aF0.7095973846783018
aF0.7588669067307492
aF0.733666404045515
aF0.6917455085888694
aF0.7376876347999097
aF0.6521839198281073
aF0.6435799768125625
aF0.8095525593145579
aF0.7182591699191329
aF0.6118543196893567
aF0.8409782065057836
aF0.6832646903393982
aF0.7579919228605178
aF0.702493348593534
aF0.6999122709684714
aF0.7750795479090223
aF0.7793092027719282
aF0.8179265040579513
aF0.741132983677123
aF0.7918940396330997
aF0.7733867982774972
aF0.7580497796925881
aF0.7902307055866844
aF0.7026664737960973
aF0.7188413618211814
aF0.7653147023615469
aF0.73122103761203
aF0.7834420293200399
aF0.7818451637362389
aF0.7014566456827835
aF0.7171648727914469
aF0.6880708338730709
aF0.8554595022850574
aa(lp9
S'SWAY5_10000'
p10
aF0.5125673351157165
aF0.5253021102548542
aF0.5471824715390546
aF0.5755662232113277
aF0.49645120458054476
aF0.5250429062231572
aF0.5624277298145455
aF0.5387731237456802
aF0.5205831237633264
aF0.5489070211631218
aF0.48599602432027256
aF0.5344103478142382
aF0.4868341472258
aF0.46420908792134646
aF0.536607031658343
aF0.5537478299813937
aF0.5655355193550642
aF0.5458922488054858
aF0.5347569878517564
aF0.6047874287700845
aF0.5166447613345719
aF0.4993832922499662
aF0.4339058381643316
aF0.45179321319190546
aF0.41143759895278464
aF0.4137996900122877
aF0.4713246843684464
aF0.5209880376997346
aF0.4306600162319937
aF0.444804798790101
aF0.6325806144095353
aF0.5331863031868137
aF0.48487901744675393
aF0.43002581495004166
aF0.47602805681485477
aF0.5031189670657877
aF0.5135377357076544
aF0.5421882654062564
aF0.5986980253357258
aF0.5289549354552207
aF0.41906084669610205
aF0.46723063781664176
aF0.5053757602928935
aF0.5813483794006971
aF0.5408010085564817
aF0.5471481348430333
aF0.5499920588141671
aF0.4289092466089599
aF0.5771390217888902
aF0.5122776445923848
aF0.49140797499233263
aF0.5381431022610443
aF0.6256193896969257
aF0.5539337453160191
aF0.5036270000167916
aF0.5162080518340771
aF0.4994336466765053
aF0.5596950945765271
aF0.626635730425876
aF0.5177426591141518
aF0.5625632317564294
aF0.4471148324538939
aF0.5119302341446381
aF0.3570380407892682
aF0.4625349065096643
aF0.4057219916523155
aF0.4183571920824727
aF0.44210405251413526
aF0.39314062847370534
aF0.4347245901968676
aF0.43114936856765684
aF0.4624214885979384
aF0.3334012844796726
aF0.43083626297695204
aF0.4661201079542926
aF0.40997041090813136
aF0.44797724473288764
aF0.3981468236804943
aF0.42547098473810946
aF0.43755562691992805
aF0.45299949820522056
aF0.46110823823511266
aF0.40007697345703
aF0.5484217747230227
aasS'HV'
p11
(lp12
(lp13
S'NSGAII_100'
p14
aF1314671.7411
aF1317432.347
aF1318967.5824
aF1324947.9754
aF1318294.8409
aF1317136.5969
aF1312657.3996
aF1322012.5075
aF1313640.8138
aF1319699.1968
aF1320026.8469
aF1317743.1092
aF1312973.7221
aF1321318.2478
aF1324467.8064
aF1312813.1991
aF1318728.1646
aF1319812.6066
aF1323311.503
aF1318049.5121
aF1312617.5991
aF1165629.5159
aF1160370.1878
aF1132576.9842
aF1106172.4597
aF1135592.0104
aF1108698.0205
aF1142481.565
aF1137464.1925
aF1132808.7568
aF1122198.5965
aF1121336.251
aF1159865.7178
aF1177240.3291
aF1112526.2163
aF1124785.4353
aF1121655.0682
aF1093602.121
aF1124947.2565
aF1125079.769
aF1157752.8028
aF1112508.6242
aF1021072.1059
aF1039698.3741
aF1036639.9165
aF1066121.6033
aF1087395.5421
aF1045644.7863
aF1008464.8561
aF1037525.5034
aF1042831.994
aF1021569.2906
aF1060995.889
aF1070267.1674
aF1015400.665
aF1049668.222
aF1063685.4976
aF1033116.0017
aF1034339.9401
aF1036287.6246
aF1053708.2095
aF1028304.3648
aF1070719.9078
aF1305707.897
aF1306944.3207
aF1308598.565
aF1302949.0331
aF1314559.4884
aF1305606.2595
aF1304967.6905
aF1303688.2498
aF1308555.6488
aF1302254.5653
aF1301812.8724
aF1308193.0098
aF1298751.9454
aF1300001.6442
aF1311568.7798
aF1304914.8949
aF1307497.4405
aF1297776.4606
aF1306550.1057
aF1314027.1852
aF1308983.8191
aa(lp15
S'SPEA2_100'
p16
aF1316844.432
aF1316017.4329
aF1314334.215
aF1317707.1858
aF1312890.9069
aF1322451.6851
aF1315775.7695
aF1315050.7785
aF1317073.4429
aF1311649.0114
aF1318985.3236
aF1318970.0316
aF1317975.1367
aF1316001.7973
aF1322869.0715
aF1316066.0788
aF1312776.7888
aF1319284.0927
aF1314348.3447
aF1321011.5972
aF1316719.2375
aF1302195.1416
aF1305801.4327
aF1303215.2811
aF1302597.8178
aF1304777.2014
aF1299093.0454
aF1304487.925
aF1277763.1336
aF1299367.1804
aF1314046.4487
aF1303259.9468
aF1312805.3496
aF1294810.1759
aF1293218.4189
aF1310322.6885
aF1304094.9486
aF1299158.6124
aF1309572.8498
aF1308289.0967
aF1303283.2947
aF1312229.6954
aF1079317.6159
aF1053814.8543
aF1103313.3638
aF1065815.758
aF1031398.6006
aF1037268.1417
aF1049589.9128
aF1028549.0127
aF1039169.0373
aF1078381.2385
aF1092219.0277
aF1021831.1551
aF1060628.9957
aF1037247.5033
aF1016195.9957
aF1063407.7685
aF1024079.731
aF1031077.6937
aF1062478.4152
aF1082230.21
aF1054689.4732
aF1136492.682
aF1120813.2628
aF1120345.697
aF1117525.9168
aF1149758.2594
aF1119207.0507
aF1120990.2846
aF1123761.5083
aF1132286.629
aF1126750.0821
aF1102114.3667
aF1146559.5438
aF1141916.4013
aF1125747.8467
aF1154656.8665
aF1131026.5538
aF1109233.9233
aF1166498.5349
aF1127782.4034
aF1105045.7227
aF1131970.6779
aa(lp17
S'SWAY5_10000'
p18
aF923480.2329
aF903636.2693
aF858929.2948
aF854351.0891
aF892610.7269
aF899294.1695
aF964654.9278
aF954574.0568
aF905763.5986
aF871148.1479
aF896592.4252
aF871327.3341
aF841187.2424
aF925480.239
aF867406.2346
aF912795.9556
aF901901.873
aF902254.9774
aF930967.269
aF826856.2435
aF965324.3015
aF1174241.4192
aF1078188.3172
aF1101482.375
aF891438.2706
aF1244913.4827
aF1107992.1261
aF1072518.4906
aF961932.3875
aF1135923.7026
aF1043017.7621
aF955116.201
aF1134231.9437
aF1157954.6278
aF1041039.4242
aF1168485.2302
aF1101658.4609
aF1026419.3826
aF1131096.8461
aF931613.3243
aF1075245.3882
aF1058498.2231
aF1023468.9063
aF985474.2323
aF819744.2444
aF853095.6949
aF1016908.5624
aF1013963.0882
aF987266.9679
aF941660.2278
aF996623.4731
aF1015300.6864
aF849996.3003
aF933960.6946
aF1002845.1446
aF1069666.835
aF991399.9428
aF834892.9479
aF995940.1939
aF841083.5634
aF947264.389
aF924383.9118
aF919538.1436
aF1198642.0413
aF1202318.4632
aF1262189.0849
aF1277364.3171
aF1251138.0877
aF1096080.5705
aF1254345.9925
aF1241308.0943
aF1241643.9525
aF1218082.685
aF1163879.7593
aF1273532.0003
aF1244846.887
aF1158088.7876
aF1233633.2821
aF1192341.5692
aF1211842.8981
aF1265337.2803
aF1273783.7855
aF1158815.0454
aF1117996.6837
aass.