(dp0
S'POM3C(L)'
p1
(dp2
S'Spread'
p3
(lp4
(lp5
S'NSGAII_100'
p6
aF0.5016938390757426
aF0.5283174376401606
aF0.5237164028443831
aF0.6278233497999819
aF0.520462693103556
aF0.4845960354342321
aF0.5167085550689098
aF0.5317810239949231
aF0.5036412355507828
aF0.5939727904440071
aF0.48877920529369767
aF0.5061806073569306
aF0.5847806885112232
aF0.5143280888722848
aF0.49426980982892554
aF0.4856301425552686
aF0.523629897646695
aF0.48575581811974183
aF0.481758992425518
aF0.4735399850487865
aF0.448232374859347
aa(lp7
S'SWAY5_10000'
p8
aF0.5040709813510869
aF0.4730044055043117
aF0.6213095664221958
aF0.4210988838414964
aF0.39030869361106774
aF0.4749062486504306
aF0.440185472883906
aF0.49141754639691565
aF0.4160777019246423
aF0.48533974873663593
aF0.5109376120233016
aF0.41962407732757284
aF0.3660608067158903
aF0.5013985209871348
aF0.4872266674053887
aF0.3721620641667501
aF0.4066927700799334
aF0.4331416132045811
aF0.42750154264145807
aF0.4485870129729739
aF0.4426518454162708
aa(lp9
S'SPEA2_100'
p10
aF0.5703807011176499
aF0.5811684650711014
aF0.6406744182274018
aF0.638042972394755
aF0.6517514162483465
aF0.5853438619396752
aF0.44528972217301543
aF0.5368169601131089
aF0.6053738472046974
aF0.5713190755020042
aF0.5499476261738989
aF0.5862291027885211
aF0.5831640433928407
aF0.553077537848383
aF0.6075529842758765
aF0.5298689408667356
aF0.6163592774055832
aF0.6287758945676789
aF0.7172347337322845
aF0.66828509228068
aF0.5755420992224345
aasS'HV'
p11
(lp12
(lp13
S'NSGAII_100'
p14
aF1104811.5216
aF1079491.3555
aF1112854.6256
aF1094727.1447
aF1114012.3563
aF1081189.2733
aF1106002.2314
aF1128813.3952
aF1104791.929
aF1111451.9826
aF1095952.9429
aF1082816.2921
aF1097845.585
aF1105254.2169
aF1069167.3218
aF1070814.2655
aF1118566.6904
aF1086329.1959
aF1077250.0359
aF1081428.7876
aF1081490.9411
aa(lp15
S'SWAY5_10000'
p16
aF872556.6742
aF663560.2008
aF625622.7232
aF750130.1079
aF873647.9078
aF807841.263
aF774332.7152
aF880200.0088
aF770046.0495
aF743490.7614
aF772817.0429
aF689402.9268
aF759123.7668
aF822211.2305
aF769987.2627
aF777714.3635
aF903979.6313
aF922774.2047
aF718492.5495
aF767983.9761
aF789239.4068
aa(lp17
S'SPEA2_100'
p18
aF1105320.975
aF1092879.7828
aF1077039.055
aF1084194.8891
aF1093957.8634
aF1098324.6102
aF1082839.9772
aF1098350.6252
aF1096371.2587
aF1117942.0994
aF1088689.9934
aF1103616.2287
aF1079991.1147
aF1085649.3437
aF1114703.9505
aF1088586.4266
aF1130418.0363
aF1082236.5914
aF1125202.9543
aF1089648.8874
aF1077371.0324
aass.