(dp0
S'xomo_flight'
p1
(dp2
S'Spread'
p3
(lp4
(lp5
S'NSGAII_100'
p6
aF0.7391943900310242
aF0.7556466128486318
aF0.7271283176166868
aF0.6920878605830391
aF0.781562000180572
aF0.7483210862954982
aF0.6361378982847472
aF0.7329683145372216
aF0.6978254722690516
aF0.7519194698732546
aF0.6857656715856779
aF0.6969475601081584
aF0.7330540501176587
aF0.6785203807504232
aF0.774293113978762
aF0.7116387086632535
aF0.7087942232130292
aF0.7614743878188691
aF0.6932331527916202
aF0.6475340941610944
aF0.8044222895101866
aa(lp7
S'SPEA2_100'
p8
aF0.7061989150348732
aF0.6912379392749913
aF0.7442614843442031
aF0.6667839602659114
aF0.6666179590212294
aF0.7747310518263381
aF0.680902383699817
aF0.6826906015823168
aF0.6382852235276844
aF0.667082461435999
aF0.7356067332748826
aF0.7036487491920139
aF0.6488355913552115
aF0.5841151922166881
aF0.7073561885139493
aF0.7465713689877418
aF0.7156590861398665
aF0.7132137731678838
aF0.6246672822275294
aF0.7248538206714168
aF0.6122692449670101
aa(lp9
S'SWAY5_10000'
p10
aF0.4514025760727304
aF0.39494987479487914
aF0.48840289578473406
aF0.4195442922547547
aF0.49059204879013796
aF0.44704525771165454
aF0.4696419478977843
aF0.44852550244987494
aF0.5005648360407737
aF0.5093165870449643
aF0.4438024122157479
aF0.4660225912402375
aF0.42798460600771204
aF0.5363410321953486
aF0.4553070562351095
aF0.40190137821035654
aF0.4086753919900987
aF0.41493773986292254
aF0.4752563475923299
aF0.38836051823023177
aF0.41177982809632446
aasS'HV'
p11
(lp12
(lp13
S'NSGAII_100'
p14
aF144445759.9776
aF140485863.8158
aF143065705.1404
aF142460989.8155
aF142362444.083
aF141677897.9338
aF141062804.2493
aF144130411.555
aF140559653.1496
aF141425648.3279
aF142827798.1778
aF139250701.3111
aF145930878.024
aF142885149.8524
aF143144356.0893
aF142172017.7448
aF142974645.7438
aF141966033.8791
aF142659950.6521
aF142265251.2112
aF141774593.5241
aa(lp15
S'SPEA2_100'
p16
aF142142030.9267
aF143230432.9755
aF141309732.0605
aF142477243.7717
aF144277678.4999
aF142309522.3286
aF142024649.8956
aF140936845.1285
aF142287662.417
aF144621195.0964
aF141159676.4076
aF141000599.2051
aF142584925.6034
aF140603266.8298
aF139641756.9619
aF143345579.8069
aF142561940.2822
aF142430919.3715
aF143916964.625
aF142138046.0007
aF141340039.8731
aa(lp17
S'SWAY5_10000'
p18
aF136667090.5955
aF136145847.8719
aF120125489.8119
aF138814257.1666
aF137522851.5387
aF129564170.1213
aF137861434.0821
aF130431379.6758
aF138566979.0048
aF124273755.2916
aF129868197.0349
aF107610095.9331
aF126148417.0859
aF126707762.6822
aF128910886.9388
aF114773033.9333
aF135932705.1073
aF139409647.46
aF134348228.4774
aF139024540.4128
aF130662539.3587
aass.