(dp0
S'xomoo2'
p1
(dp2
S'Spread'
p3
(lp4
(lp5
S'NSGAII_100'
p6
aF0.6592339652056507
aF0.7068040010353991
aF0.5907209518780604
aF0.7338751245682993
aF0.6755596905358532
aF0.7217025246505837
aF0.7695367878703278
aF0.754196315389295
aF0.7975305136663944
aF0.787688814724075
aF0.7387490368871651
aF0.7420075443069813
aF0.725940342044881
aF0.6715122450726116
aF0.6684394453743879
aF0.7112446579400791
aF0.7067662801496538
aF0.687861964894887
aF0.6659368222290705
aF0.7036094762669373
aF0.743454974449768
aa(lp7
S'SWAY5_10000'
p8
aF0.4825107618586708
aF0.43513002752141694
aF0.5217739866662868
aF0.4226616934459338
aF0.5139565832644952
aF0.51051263665817
aF0.5257471789671079
aF0.516340519655867
aF0.5904778558725908
aF0.4743154328358094
aF0.39076264193958626
aF0.49979467969896624
aF0.5601379247930743
aF0.48249975081881435
aF0.42473430029656967
aF0.45182042118382676
aF0.5363690125013378
aF0.4217932720323942
aF0.6434562860678313
aF0.3945955756866191
aF0.42052440184210765
aa(lp9
S'SPEA2_100'
p10
aF0.7595563120189871
aF0.6898097746928942
aF0.6446864168825773
aF0.6937081826142462
aF0.7054076455116145
aF0.7348435751444365
aF0.7552926129024671
aF0.759221078747574
aF0.6786333105822292
aF0.693335094078118
aF0.7141200450623453
aF0.674335737086322
aF0.6366983946285023
aF0.6897815111779728
aF0.7039367755371003
aF0.732774707831949
aF0.6500077265402935
aF0.6914913172884959
aF0.7413629373656601
aF0.7186606673192547
aF0.799630066576396
aasS'HV'
p11
(lp12
(lp13
S'NSGAII_100'
p14
aF144238491.5787
aF142969549.5434
aF143303422.2472
aF143118395.0945
aF141712293.5507
aF144639030.0941
aF142333618.5966
aF141488806.9739
aF144779014.3722
aF143395676.211
aF144770841.8827
aF142361369.9539
aF142236355.6312
aF141598079.7353
aF141773164.2385
aF141003588.805
aF141198062.8561
aF142561148.8186
aF142783175.2579
aF141760944.0638
aF143141070.9739
aa(lp15
S'SWAY5_10000'
p16
aF137259377.5258
aF133098881.8753
aF118792543.8249
aF137071473.0993
aF133160254.6967
aF131534675.3304
aF113422796.5725
aF128234995.309
aF126569272.8442
aF125474207.7573
aF129438171.6055
aF138292951.6552
aF135365255.4542
aF137157523.6101
aF123249095.3484
aF131015072.0876
aF135554596.4173
aF133764744.5362
aF137066785.3072
aF131661151.1343
aF137505132.2964
aa(lp17
S'SPEA2_100'
p18
aF142133267.6128
aF142669885.1447
aF141982279.1569
aF144157254.5109
aF143121156.3002
aF142420923.3655
aF142700504.7023
aF142604889.9233
aF140863622.908
aF141538778.3053
aF143147346.67
aF140612184.1904
aF143343766.2181
aF141867690.6827
aF145414681.2616
aF140651707.1155
aF141669280.4504
aF144462670.7678
aF142833063.9203
aF144331479.7054
aF140581935.2099
aass.