(dp0
S'xomo_osp(S)'
p1
(dp2
S'Spread'
p3
(lp4
(lp5
S'NSGAII_100'
p6
aF0.648741646549477
aF0.6843661664912255
aF0.7840168032581291
aF0.6953649951166088
aF0.7483424158603753
aF0.7649732749436409
aF0.7642220685194558
aF0.74000147990387
aF0.7093219704438848
aF0.7923901795455502
aF0.7543500220236606
aF0.7431282100861786
aF0.8035546323957916
aF0.6560252220818908
aF0.7109072007056255
aF0.6302349980608543
aF0.6655472795860388
aF0.8383669969037041
aF0.6757724325817458
aF0.7525254299085123
aF0.7082624794104385
aa(lp7
S'SPEA2_100'
p8
aF0.7486700912324609
aF0.6721754989462472
aF0.6925620605886431
aF0.7082958694071458
aF0.725151648448104
aF0.7260092950635412
aF0.7325167502534364
aF0.702583504045417
aF0.7566627450955123
aF0.6814854665778326
aF0.7071656200633095
aF0.6853984031580683
aF0.6844251947926973
aF0.7501313698257298
aF0.6865017306307747
aF0.6823519145579688
aF0.6126545601276912
aF0.6167119133735885
aF0.7561864708594003
aF0.7202218118948832
aF0.6605787794126973
aa(lp9
S'SWAY5_10000'
p10
aF0.4806166593205011
aF0.43445608393847013
aF0.5167370367028407
aF0.4276975741297175
aF0.40780656388014347
aF0.4155013803657824
aF0.42406103052179356
aF0.5400754528084152
aF0.553193317172823
aF0.49212582039978836
aF0.44910807784697987
aF0.5164685897005558
aF0.4870632430633058
aF0.4510653847495806
aF0.4717636598609127
aF0.5263739409554228
aF0.4231073014894843
aF0.3877459686942
aF0.45873011131891267
aF0.4259703550673542
aF0.46285035355624465
aasS'HV'
p11
(lp12
(lp13
S'NSGAII_100'
p14
aF143205047.6307
aF143374303.7819
aF145380596.3981
aF143531519.1859
aF145046052.4877
aF143300751.2688
aF145792120.0113
aF140735590.4548
aF141636295.5498
aF141709722.3777
aF139750665.3117
aF144601827.9506
aF141864440.6014
aF142307394.5238
aF142038144.7237
aF143676133.3107
aF141761824.1708
aF140910574.8531
aF141777592.2789
aF143827248.6113
aF143491536.537
aa(lp15
S'SPEA2_100'
p16
aF142894054.1451
aF143826330.9422
aF144337185.9866
aF143900999.4315
aF142693279.0748
aF142827063.1218
aF143708281.8131
aF145393481.8016
aF142447702.3698
aF142252376.6142
aF141742074.4665
aF142307559.6013
aF143970643.2186
aF143232754.9704
aF142723042.9132
aF142371246.3687
aF142602037.1931
aF142463192.2625
aF143915735.2485
aF145517995.4985
aF143457011.1034
aa(lp17
S'SWAY5_10000'
p18
aF130218555.8204
aF132051894.8823
aF128320093.2969
aF132871466.1913
aF132558575.2596
aF125408710.5803
aF127784078.5111
aF133026715.7692
aF133559382.0911
aF131027739.3482
aF135305016.9953
aF131162274.812
aF132906962.0533
aF125826232.1952
aF127437342.073
aF121395453.2245
aF130408904.2317
aF128995688.5082
aF126926541.4256
aF129929215.346
aF128369840.0573
aass.