(dp0
S'xomo_osp'
p1
(dp2
S'Spread'
p3
(lp4
(lp5
S'NSGAII_100'
p6
aF0.6732532041567835
aF0.7120945472099549
aF0.7568651926437426
aF0.7005770324401045
aF0.619296462369996
aF0.6729284742995804
aF0.7899251081668812
aF0.6786581033315898
aF0.720207114268527
aF0.6375875179626531
aF0.743185274935175
aF0.7024360266048326
aF0.7318303271999314
aF0.680771356338445
aF0.7306261709322441
aF0.687307899255728
aF0.7152955478725278
aF0.7426083216915882
aF0.6574883514178942
aF0.7647776294400678
aF0.7469246830331833
aa(lp7
S'SPEA2_100'
p8
aF0.660308132974364
aF0.6963333290461653
aF0.6445248262957923
aF0.7514689142529127
aF0.7465895561720605
aF0.7721617493796747
aF0.721024434253359
aF0.7054826491410724
aF0.7646003152875616
aF0.6863264778770634
aF0.7409371408020775
aF0.608691950694749
aF0.7249437831178784
aF0.7390660052383083
aF0.6764791553361844
aF0.7599110983656181
aF0.6969163467603872
aF0.7378857714878109
aF0.713983750741916
aF0.7568542616038646
aF0.6830509094735785
aa(lp9
S'SWAY5_10000'
p10
aF0.5221436128266407
aF0.5031355345606455
aF0.45401457432662357
aF0.4298636736980222
aF0.463379575290634
aF0.5082193742547451
aF0.48907276355650564
aF0.46695561307056516
aF0.4643761278609663
aF0.491079422879931
aF0.4908862320991135
aF0.5281674736741204
aF0.44660460132290836
aF0.4365382805405357
aF0.49973551126089083
aF0.48084131566499655
aF0.44218697703088367
aF0.486172033280923
aF0.473969933936167
aF0.4611034969782375
aF0.49375214430946857
aasS'HV'
p11
(lp12
(lp13
S'NSGAII_100'
p14
aF143781798.5987
aF143088236.7784
aF143232278.2063
aF142124464.5793
aF142003538.0087
aF139345231.764
aF141818073.331
aF142411994.3396
aF141853338.2583
aF143326596.1655
aF141413264.364
aF142291893.7206
aF141293252.7299
aF142913033.1464
aF142133580.8721
aF142066399.5714
aF140725583.4761
aF142284796.6658
aF141488337.3708
aF143289469.0231
aF140657879.6796
aa(lp15
S'SPEA2_100'
p16
aF141352943.777
aF145072669.0365
aF142748355.017
aF141629446.5488
aF140988500.6695
aF142335216.437
aF141194286.3995
aF142237637.5415
aF141238918.0866
aF142684306.8425
aF141437386.6206
aF140842188.3041
aF140876828.6994
aF141920443.4767
aF142155759.5394
aF142818788.306
aF140442274.8934
aF143290140.8889
aF138483445.8548
aF142974414.3271
aF142261513.4856
aa(lp17
S'SWAY5_10000'
p18
aF135703118.6441
aF130624444.5444
aF134853767.2144
aF130870457.1006
aF133041712.8827
aF129506637.3634
aF134220834.579
aF135812881.3954
aF124479513.9474
aF142857693.3539
aF138838295.0335
aF127648210.3766
aF130437716.9908
aF126839528.2373
aF126869092.0577
aF123191450.1954
aF134418194.7659
aF131567964.4581
aF124942378.3543
aF137611660.429
aF126356682.777
aass.