(dp0
S'xomo_ground(S)'
p1
(dp2
S'Spread'
p3
(lp4
(lp5
S'NSGAII_100'
p6
aF0.7497669086891957
aF0.7628567980903881
aF0.654124553785225
aF0.6587714211194818
aF0.6370606961003624
aF0.7632082258354063
aF0.6436769102406026
aF0.7347354630193756
aF0.6289439742849552
aF0.7784483943451397
aF0.7208855247123326
aF0.6488839544673911
aF0.73466555444975
aF0.6331643518124345
aF0.6705550934054838
aF0.7151247466784668
aF0.813745547016772
aF0.6158538411610753
aF0.696678817183959
aF0.7224437234851355
aF0.7003352829140544
aa(lp7
S'SPEA2_100'
p8
aF0.6644865125324365
aF0.6898650923360067
aF0.6939073962634373
aF0.6755245604400232
aF0.7211992360057856
aF0.6345736940030425
aF0.6380954755854255
aF0.6704423160902221
aF0.6991963018517844
aF0.740206562896168
aF0.7035669776156169
aF0.6990407036030151
aF0.6925826797392689
aF0.6345660127627056
aF0.6737409310376833
aF0.7346402296683512
aF0.6509586012660024
aF0.7080214136513266
aF0.699636806084209
aF0.7274217016140057
aF0.7154371904474576
aa(lp9
S'SWAY5_10000'
p10
aF0.5717629024176946
aF0.49953324849689235
aF0.46139498705700077
aF0.5667154226511115
aF0.5026979370383091
aF0.4435320563244052
aF0.4395212739405893
aF0.49199832422193923
aF0.4474118556909474
aF0.36487569429993094
aF0.4213058955282943
aF0.3842299184103856
aF0.47570923531405784
aF0.40744860508270436
aF0.4815929322957826
aF0.4034087379025694
aF0.42320758669066594
aF0.44635026931229965
aF0.4440146450793971
aF0.38457047654293064
aF0.3925762381227402
aasS'HV'
p11
(lp12
(lp13
S'NSGAII_100'
p14
aF143930231.1642
aF143766750.7348
aF140882865.514
aF144310557.192
aF142288596.6715
aF142182292.2773
aF144623793.9235
aF144315941.4659
aF144043110.6056
aF141699085.0145
aF142983971.7431
aF143182460.299
aF143918487.9777
aF144100232.1659
aF143550568.6619
aF143974949.7113
aF143141655.9817
aF144817837.1799
aF143831969.8789
aF144027166.905
aF145194655.668
aa(lp15
S'SPEA2_100'
p16
aF143038252.351
aF145326171.7067
aF143196937.2135
aF144375877.4167
aF143825077.6076
aF142861466.7107
aF143885533.1003
aF142781962.23
aF144431678.3762
aF142880944.9827
aF144530919.9608
aF143677502.224
aF144553179.6059
aF144850054.4974
aF142573612.7063
aF144299450.1168
aF142239769.0909
aF143077900.8519
aF144400513.4154
aF143258123.9293
aF142096773.0415
aa(lp17
S'SWAY5_10000'
p18
aF133647902.4685
aF127972302.4098
aF135790730.1117
aF131791568.0145
aF121889115.808
aF132994632.8249
aF134427173.3476
aF137020616.5544
aF130957897.9936
aF132255195.2139
aF137154428.4683
aF135149825.2449
aF130200842.4083
aF136729596.6274
aF138335416.4732
aF138004403.4435
aF136491229.8612
aF135303075.4457
aF131930468.5936
aF130910774.9324
aF132984723.9895
aass.