(dp0
S'xomo_all(M)'
p1
(dp2
S'Spread'
p3
(lp4
(lp5
S'NSGAII_100'
p6
aF0.7399444856237204
aF0.6787359936765757
aF0.7430839981775548
aF0.7153726708729131
aF0.6283547525709993
aF0.7354300404670375
aF0.6711649790459293
aF0.800364186631034
aF0.6464050509454152
aF0.7291328262288477
aF0.7781332143210654
aF0.7095856894513293
aF0.7331112644643538
aF0.686024546975728
aF0.6678111549754358
aF0.7304558596113798
aF0.7155738333481886
aF0.7461146172604951
aF0.6806683482682154
aF0.6819137187485447
aF0.7236997551889851
aa(lp7
S'SPEA2_100'
p8
aF0.6911486029601408
aF0.6441467001594694
aF0.6270951179190487
aF0.6654637895015642
aF0.7128196936413589
aF0.6871521614797251
aF0.7098744564021159
aF0.6821840485715608
aF0.664161245536652
aF0.6243457491356826
aF0.6843408487626098
aF0.7830388549843528
aF0.697077865268342
aF0.6981805361136021
aF0.7369223941685734
aF0.6623119846061637
aF0.7351153576220084
aF0.7216234823466271
aF0.6944454202469567
aF0.7498397628041134
aF0.6992680685194413
aa(lp9
S'SWAY5_10000'
p10
aF0.5458607533697672
aF0.507421825656309
aF0.5029516529404005
aF0.4020361858809173
aF0.521882254502609
aF0.466492895264761
aF0.46117761189579304
aF0.42771435472148317
aF0.5061498623452176
aF0.40311949138935127
aF0.4526917230136441
aF0.4252839960441211
aF0.5485159114694865
aF0.4065407929861121
aF0.45606833104571276
aF0.4775083303939519
aF0.5312520814675848
aF0.39330917660886733
aF0.42792866636850246
aF0.4320195220837133
aF0.39213758890136824
aasS'HV'
p11
(lp12
(lp13
S'NSGAII_100'
p14
aF144071112.7493
aF143754969.316
aF143694316.4143
aF141921154.3221
aF144171874.4516
aF143411348.9978
aF140040934.0518
aF140474776.3086
aF142714566.5043
aF143552247.9617
aF145026439.495
aF145002351.2209
aF142039206.0079
aF144143010.3284
aF143586633.0827
aF143612131.1221
aF142683705.1698
aF141692100.2115
aF143122815.3233
aF142003007.5928
aF143199251.5468
aa(lp15
S'SPEA2_100'
p16
aF141848953.6398
aF144703063.3365
aF140640378.6717
aF143361492.8227
aF144107910.5134
aF144073084.3747
aF143560135.6093
aF142075507.832
aF143405706.8481
aF142361691.7261
aF142807598.9453
aF143604103.0809
aF142895846.3775
aF144909931.3664
aF144140805.6934
aF142049969.097
aF142893820.87
aF143814083.1713
aF143564998.0333
aF143293857.7054
aF143573268.4295
aa(lp17
S'SWAY5_10000'
p18
aF136142266.8018
aF134299209.2174
aF138547480.5121
aF130172284.6078
aF124315785.6854
aF127382945.5922
aF135866417.0757
aF135677247.3031
aF127717328.6706
aF134333174.1884
aF132278088.4815
aF132587964.81
aF130752949.1508
aF137470937.6073
aF135921389.131
aF138365880.2301
aF125701018.0569
aF134007754.6627
aF132171656.5176
aF139024729.0252
aF132249672.3402
aass.