(dp0
S'xomo_ground(M)'
p1
(dp2
S'Spread'
p3
(lp4
(lp5
S'NSGAII_100'
p6
aF0.6926844562030454
aF0.7299054638810087
aF0.6623348378791634
aF0.7320081011930636
aF0.7757477454354011
aF0.7910298749887827
aF0.7074358030958254
aF0.6555518044007911
aF0.7535599471880143
aF0.681523592415389
aF0.6994912923986792
aF0.64229432988333
aF0.686812953272699
aF0.7308127720988766
aF0.6842691895857705
aF0.752096374528946
aF0.7511929449347354
aF0.7020058533621104
aF0.6816216184304821
aF0.5984093520832874
aF0.6960400636057694
aa(lp7
S'SWAY5_10000'
p8
aF0.33548423932012783
aF0.4007096307584061
aF0.4789975009427934
aF0.4423718639773206
aF0.40699132297595064
aF0.453871323866394
aF0.41871233185882956
aF0.4150071035482477
aF0.5428810556972881
aF0.420255469802569
aF0.4838895808768894
aF0.4389310367343525
aF0.4564115427724595
aF0.49595154711368494
aF0.40205452295806815
aF0.5329671341464987
aF0.3990575437985507
aF0.4562061992327105
aF0.48109939144346336
aF0.520863625750172
aF0.4287067671046693
aa(lp9
S'SPEA2_100'
p10
aF0.6547483356970397
aF0.7603205179723677
aF0.6758659848205987
aF0.6682244542443336
aF0.6727172268913382
aF0.659107599353876
aF0.7310011620634963
aF0.748217676684326
aF0.721561343406826
aF0.7179565311291927
aF0.6724522058542665
aF0.7627465830062695
aF0.7282411273833997
aF0.6768248139448605
aF0.7190467845538179
aF0.6798998655279389
aF0.7498322960724924
aF0.6881040167428343
aF0.653602466379714
aF0.6910099668324088
aF0.6522435037915153
aasS'HV'
p11
(lp12
(lp13
S'NSGAII_100'
p14
aF143203007.5367
aF143785725.5329
aF143860440.8559
aF145312323.3321
aF143592609.6054
aF142264394.6855
aF141958381.7045
aF142544184.9891
aF142094679.2863
aF141842572.4945
aF143569602.3897
aF144420014.8507
aF143472951.8639
aF142050171.0465
aF144985494.9475
aF144297972.4545
aF145674708.6684
aF141977024.3664
aF145331817.0675
aF141790982.5252
aF140854190.079
aa(lp15
S'SWAY5_10000'
p16
aF137131982.1003
aF126800658.4695
aF135972970.4461
aF130585876.9008
aF128825109.9689
aF135647246.0401
aF139581195.6523
aF130952561.1492
aF125777722.9335
aF131976153.2958
aF124721906.9623
aF132559378.4962
aF130693551.2462
aF135811813.1723
aF136760434.0104
aF132186877.393
aF137248407.1256
aF136517476.8987
aF132626318.2944
aF129043955.065
aF131083303.7497
aa(lp17
S'SPEA2_100'
p18
aF143229262.5192
aF143553502.8859
aF143892087.6503
aF144416873.2412
aF145180452.431
aF142382149.3106
aF144256057.0771
aF142141433.6068
aF143960399.779
aF143937589.9167
aF142994383.4036
aF144999206.3753
aF142866070.1491
aF142607034.5129
aF144049274.8938
aF144692414.9066
aF142868845.3934
aF144597533.6354
aF144130392.9784
aF144756640.6858
aF144653725.2495
aass.