(dp0
S'xomo_all'
p1
(dp2
S'Spread'
p3
(lp4
(lp5
S'NSGAII_100'
p6
aF0.7428024223407734
aF0.7068439712404244
aF0.6578710178473653
aF0.714728599130348
aF0.7563746480859602
aF0.7467207375388557
aF0.7667033903965343
aF0.7931166726471166
aF0.6409789890994786
aF0.7120794515413212
aF0.682224368345244
aF0.6938427045204176
aF0.713941567605172
aF0.7228528980030159
aF0.6670533396992304
aF0.6889191694832586
aF0.667382260887476
aF0.7085856829358189
aF0.7210309478422899
aF0.7764372881554943
aF0.7106708193486754
aa(lp7
S'SWAY5_10000'
p8
aF0.4757481373356138
aF0.45961050822904154
aF0.4420786864978763
aF0.4113941070983935
aF0.4654193118963532
aF0.36349465744370335
aF0.4626230885299783
aF0.48626096786059897
aF0.4898765205070241
aF0.48967816782061113
aF0.4584464725659575
aF0.4501504451964375
aF0.4583131761484118
aF0.4299270292035135
aF0.36557470034512624
aF0.4463713851009923
aF0.5079989131385827
aF0.4247832199384258
aF0.5154797257383037
aF0.38081813362953804
aF0.44728722104719004
aa(lp9
S'SPEA2_100'
p10
aF0.7136295887063538
aF0.7220242068977017
aF0.7339995693601786
aF0.7379303774273189
aF0.7035840979430854
aF0.6914451244725348
aF0.6884396549828621
aF0.7583561395028513
aF0.741406026668025
aF0.6706188944461721
aF0.6294739585172043
aF0.7207196344042103
aF0.7683265489435132
aF0.7523359311637513
aF0.7449285120660394
aF0.704261425388846
aF0.6285004573452777
aF0.6558114728547572
aF0.7116057404006068
aF0.7132644511630836
aF0.6208004517907073
aasS'HV'
p11
(lp12
(lp13
S'NSGAII_100'
p14
aF141473991.7875
aF144475316.9398
aF140710557.6923
aF144019977.9198
aF143256699.825
aF141723240.8682
aF141752281.3847
aF142878236.499
aF141647366.1032
aF142786232.5526
aF141271397.0628
aF142147281.4036
aF140486820.3637
aF139912013.3322
aF142513204.2876
aF142312466.0621
aF141755535.0752
aF142242237.3702
aF138942724.3266
aF142310643.6373
aF143679600.9724
aa(lp15
S'SWAY5_10000'
p16
aF134904952.4663
aF139643408.8227
aF138685440.1642
aF129727634.7722
aF129843996.1695
aF130282545.4495
aF130619643.8756
aF129689687.8483
aF137071239.0504
aF131811214.7306
aF129682716.0144
aF127022508.6306
aF140718207.2675
aF135562923.6146
aF131351373.167
aF123004827.9079
aF132632665.0438
aF124347401.3425
aF114014415.9087
aF130113923.5092
aF131477969.475
aa(lp17
S'SPEA2_100'
p18
aF143173509.3856
aF141318272.4189
aF142850561.9661
aF140752313.8836
aF143251865.0395
aF144250335.257
aF140690910.8249
aF142484109.9227
aF140836261.0305
aF141746426.6014
aF145043780.8539
aF141899266.7085
aF143222494.6307
aF140031904.1377
aF143335373.9156
aF140564066.374
aF142388322.5967
aF142340002.6276
aF142189472.0537
aF142660869.8621
aF142374625.3355
aass.