ccopy_reg
_reconstructor
p0
(cProblems.MONRP.monrp
MONRP
p1
c__builtin__
object
p2
Ntp3
Rp4
(dp5
S'tbudget'
p6
I110
sS'requirement'
p7
(lp8
(iProblems.MONRP.Requirement
Requirement
p9
(dp10
S'cost'
p11
I16
sS'id'
p12
I0
sS'risk'
p13
I2
sba(iProblems.MONRP.Requirement
Requirement
p14
(dp15
g11
I19
sg12
I1
sg13
I2
sba(iProblems.MONRP.Requirement
Requirement
p16
(dp17
g11
I10
sg12
I2
sg13
I4
sba(iProblems.MONRP.Requirement
Requirement
p18
(dp19
g11
I13
sg12
I3
sg13
I4
sba(iProblems.MONRP.Requirement
Requirement
p20
(dp21
g11
I14
sg12
I4
sg13
I4
sba(iProblems.MONRP.Requirement
Requirement
p22
(dp23
g11
I13
sg12
I5
sg13
I1
sba(iProblems.MONRP.Requirement
Requirement
p24
(dp25
g11
I19
sg12
I6
sg13
I4
sba(iProblems.MONRP.Requirement
Requirement
p26
(dp27
g11
I16
sg12
I7
sg13
I4
sba(iProblems.MONRP.Requirement
Requirement
p28
(dp29
g11
I14
sg12
I8
sg13
I1
sba(iProblems.MONRP.Requirement
Requirement
p30
(dp31
g11
I12
sg12
I9
sg13
I3
sba(iProblems.MONRP.Requirement
Requirement
p32
(dp33
g11
I13
sg12
I10
sg13
I3
sba(iProblems.MONRP.Requirement
Requirement
p34
(dp35
g11
I16
sg12
I11
sg13
I1
sba(iProblems.MONRP.Requirement
Requirement
p36
(dp37
g11
I18
sg12
I12
sg13
I3
sba(iProblems.MONRP.Requirement
Requirement
p38
(dp39
g11
I10
sg12
I13
sg13
I1
sba(iProblems.MONRP.Requirement
Requirement
p40
(dp41
g11
I15
sg12
I14
sg13
I1
sba(iProblems.MONRP.Requirement
Requirement
p42
(dp43
g11
I13
sg12
I15
sg13
I1
sba(iProblems.MONRP.Requirement
Requirement
p44
(dp45
g11
I14
sg12
I16
sg13
I4
sba(iProblems.MONRP.Requirement
Requirement
p46
(dp47
g11
I16
sg12
I17
sg13
I4
sba(iProblems.MONRP.Requirement
Requirement
p48
(dp49
g11
I19
sg12
I18
sg13
I4
sba(iProblems.MONRP.Requirement
Requirement
p50
(dp51
g11
I10
sg12
I19
sg13
I3
sba(iProblems.MONRP.Requirement
Requirement
p52
(dp53
g11
I10
sg12
I20
sg13
I1
sba(iProblems.MONRP.Requirement
Requirement
p54
(dp55
g11
I13
sg12
I21
sg13
I1
sba(iProblems.MONRP.Requirement
Requirement
p56
(dp57
g11
I17
sg12
I22
sg13
I1
sba(iProblems.MONRP.Requirement
Requirement
p58
(dp59
g11
I13
sg12
I23
sg13
I3
sba(iProblems.MONRP.Requirement
Requirement
p60
(dp61
g11
I19
sg12
I24
sg13
I4
sba(iProblems.MONRP.Requirement
Requirement
p62
(dp63
g11
I10
sg12
I25
sg13
I4
sba(iProblems.MONRP.Requirement
Requirement
p64
(dp65
g11
I12
sg12
I26
sg13
I4
sba(iProblems.MONRP.Requirement
Requirement
p66
(dp67
g11
I10
sg12
I27
sg13
I2
sba(iProblems.MONRP.Requirement
Requirement
p68
(dp69
g11
I10
sg12
I28
sg13
I1
sba(iProblems.MONRP.Requirement
Requirement
p70
(dp71
g11
I11
sg12
I29
sg13
I2
sba(iProblems.MONRP.Requirement
Requirement
p72
(dp73
g11
I13
sg12
I30
sg13
I2
sba(iProblems.MONRP.Requirement
Requirement
p74
(dp75
g11
I17
sg12
I31
sg13
I2
sba(iProblems.MONRP.Requirement
Requirement
p76
(dp77
g11
I13
sg12
I32
sg13
I2
sba(iProblems.MONRP.Requirement
Requirement
p78
(dp79
g11
I16
sg12
I33
sg13
I4
sba(iProblems.MONRP.Requirement
Requirement
p80
(dp81
g11
I14
sg12
I34
sg13
I2
sba(iProblems.MONRP.Requirement
Requirement
p82
(dp83
g11
I16
sg12
I35
sg13
I3
sba(iProblems.MONRP.Requirement
Requirement
p84
(dp85
g11
I10
sg12
I36
sg13
I2
sba(iProblems.MONRP.Requirement
Requirement
p86
(dp87
g11
I11
sg12
I37
sg13
I1
sba(iProblems.MONRP.Requirement
Requirement
p88
(dp89
g11
I16
sg12
I38
sg13
I2
sba(iProblems.MONRP.Requirement
Requirement
p90
(dp91
g11
I14
sg12
I39
sg13
I4
sba(iProblems.MONRP.Requirement
Requirement
p92
(dp93
g11
I13
sg12
I40
sg13
I2
sba(iProblems.MONRP.Requirement
Requirement
p94
(dp95
g11
I11
sg12
I41
sg13
I3
sba(iProblems.MONRP.Requirement
Requirement
p96
(dp97
g11
I10
sg12
I42
sg13
I3
sba(iProblems.MONRP.Requirement
Requirement
p98
(dp99
g11
I19
sg12
I43
sg13
I3
sba(iProblems.MONRP.Requirement
Requirement
p100
(dp101
g11
I14
sg12
I44
sg13
I2
sba(iProblems.MONRP.Requirement
Requirement
p102
(dp103
g11
I17
sg12
I45
sg13
I3
sba(iProblems.MONRP.Requirement
Requirement
p104
(dp105
g11
I10
sg12
I46
sg13
I2
sba(iProblems.MONRP.Requirement
Requirement
p106
(dp107
g11
I11
sg12
I47
sg13
I1
sba(iProblems.MONRP.Requirement
Requirement
p108
(dp109
g11
I11
sg12
I48
sg13
I3
sba(iProblems.MONRP.Requirement
Requirement
p110
(dp111
g11
I14
sg12
I49
sg13
I4
sbasS'tdensity'
p112
I4
sS'name'
p113
S'MONRP_50_4_5_4_110'
p114
sS'precedence'
p115
(lp116
(lp117
I0
aI0
aI0
aI0
aI0
aI0
aI0
aI0
aI0
aI0
aI0
aI0
aI0
aI0
aI0
aI0
aI0
aI0
aI0
aI0
aI0
aI0
aI0
aI0
aI0
aI0
aI0
aI0
aI0
aI0
aI0
aI0
aI0
aI0
aI0
aI0
aI0
aI0
aI0
aI0
aI0
aI0
aI0
aI0
aI0
aI0
aI0
aI0
aI0
aI0
aa(lp118
I0
aI0
aI0
aI0
aI0
aI0
aI0
aI0
aI0
aI0
aI0
aI0
aI0
aI0
aI0
aI0
aI0
aI0
aI0
aI0
aI0
aI0
aI0
aI0
aI0
aI0
aI0
aI0
aI0
aI0
aI0
aI0
aI0
aI0
aI0
aI0
aI0
aI0
aI0
aI0
aI0
aI0
aI0
aI0
aI0
aI0
aI0
aI0
aI0
aI0
aa(lp119
I0
aI0
aI0
aI0
aI0
aI0
aI0
aI0
aI0
aI0
aI0
aI0
aI0
aI0
aI0
aI0
aI0
aI0
aI0
aI0
aI0
aI0
aI0
aI0
aI0
aI0
aI0
aI0
aI0
aI0
aI0
aI0
aI0
aI0
aI0
aI0
aI0
aI0
aI0
aI0
aI0
aI0
aI0
aI0
aI0
aI0
aI0
aI0
aI0
aI0
aa(lp120
I0
aI0
aI0
aI0
aI0
aI0
aI0
aI0
aI0
aI0
aI0
aI0
aI0
aI0
aI0
aI0
aI0
aI0
aI0
aI0
aI0
aI0
aI0
aI0
aI0
aI0
aI0
aI0
aI0
aI0
aI0
aI0
aI0
aI0
aI0
aI0
aI0
aI0
aI0
aI0
aI0
aI0
aI0
aI0
aI0
aI0
aI0
aI0
aI0
aI0
aa(lp121
I0
aI0
aI0
aI0
aI0
aI0
aI0
aI0
aI0
aI0
aI0
aI0
aI0
aI0
aI0
aI0
aI0
aI0
aI0
aI0
aI0
aI0
aI0
aI0
aI0
aI0
aI0
aI0
aI0
aI0
aI0
aI0
aI0
aI0
aI0
aI0
aI0
aI0
aI0
aI0
aI0
aI0
aI0
aI0
aI0
aI0
aI0
aI0
aI0
aI0
aa(lp122
I0
aI0
aI0
aI0
aI0
aI0
aI0
aI0
aI0
aI0
aI0
aI0
aI0
aI0
aI0
aI0
aI0
aI0
aI0
aI0
aI0
aI0
aI0
aI0
aI0
aI0
aI0
aI0
aI0
aI0
aI0
aI0
aI0
aI0
aI0
aI0
aI0
aI0
aI0
aI0
aI0
aI0
aI0
aI0
aI0
aI0
aI0
aI0
aI0
aI0
aa(lp123
I0
aI0
aI0
aI0
aI0
aI0
aI0
aI0
aI0
aI0
aI0
aI0
aI0
aI0
aI0
aI0
aI0
aI0
aI0
aI0
aI0
aI0
aI0
aI0
aI0
aI0
aI0
aI0
aI0
aI0
aI0
aI0
aI0
aI0
aI0
aI0
aI0
aI0
aI0
aI0
aI0
aI0
aI0
aI0
aI0
aI0
aI0
aI0
aI0
aI0
aa(lp124
I0
aI0
aI0
aI0
aI0
aI0
aI0
aI0
aI0
aI0
aI0
aI0
aI0
aI0
aI0
aI0
aI0
aI0
aI0
aI0
aI0
aI0
aI0
aI0
aI0
aI0
aI0
aI0
aI0
aI0
aI0
aI0
aI0
aI0
aI0
aI0
aI0
aI0
aI0
aI0
aI0
aI0
aI0
aI0
aI0
aI0
aI0
aI0
aI0
aI0
aa(lp125
I0
aI0
aI0
aI0
aI0
aI0
aI0
aI0
aI0
aI0
aI0
aI0
aI0
aI0
aI0
aI0
aI0
aI0
aI0
aI0
aI0
aI0
aI0
aI0
aI0
aI0
aI0
aI0
aI0
aI0
aI0
aI0
aI0
aI0
aI0
aI0
aI0
aI0
aI0
aI0
aI0
aI0
aI0
aI0
aI0
aI0
aI0
aI0
aI0
aI0
aa(lp126
I0
aI0
aI0
aI0
aI0
aI0
aI0
aI0
aI0
aI0
aI0
aI0
aI0
aI0
aI0
aI0
aI0
aI0
aI0
aI0
aI0
aI0
aI0
aI0
aI0
aI0
aI0
aI0
aI0
aI0
aI0
aI0
aI0
aI0
aI0
aI0
aI0
aI0
aI0
aI0
aI0
aI0
aI0
aI0
aI0
aI0
aI0
aI0
aI0
aI0
aa(lp127
I0
aI0
aI0
aI0
aI0
aI0
aI0
aI0
aI0
aI0
aI0
aI0
aI0
aI0
aI0
aI0
aI0
aI0
aI0
aI0
aI0
aI0
aI0
aI0
aI0
aI0
aI0
aI0
aI0
aI0
aI0
aI0
aI0
aI0
aI0
aI0
aI0
aI0
aI0
aI0
aI0
aI0
aI0
aI0
aI0
aI0
aI0
aI0
aI0
aI0
aa(lp128
I0
aI0
aI0
aI0
aI0
aI0
aI0
aI0
aI0
aI0
aI0
aI0
aI0
aI0
aI0
aI0
aI0
aI0
aI0
aI1
aI0
aI0
aI0
aI0
aI0
aI0
aI0
aI0
aI0
aI0
aI0
aI0
aI0
aI0
aI0
aI0
aI0
aI0
aI0
aI0
aI0
aI0
aI0
aI0
aI0
aI0
aI0
aI0
aI0
aI0
aa(lp129
I0
aI0
aI0
aI0
aI0
aI0
aI0
aI0
aI0
aI0
aI0
aI0
aI0
aI0
aI0
aI0
aI0
aI0
aI0
aI0
aI0
aI0
aI0
aI0
aI0
aI0
aI0
aI0
aI0
aI0
aI0
aI0
aI0
aI0
aI0
aI0
aI0
aI0
aI0
aI0
aI0
aI0
aI0
aI0
aI0
aI0
aI0
aI0
aI0
aI0
aa(lp130
I0
aI0
aI0
aI0
aI0
aI0
aI0
aI0
aI0
aI0
aI0
aI0
aI0
aI0
aI0
aI0
aI0
aI0
aI0
aI0
aI0
aI0
aI0
aI0
aI0
aI0
aI0
aI0
aI0
aI0
aI0
aI0
aI0
aI0
aI0
aI0
aI0
aI0
aI0
aI0
aI0
aI0
aI0
aI0
aI0
aI0
aI0
aI0
aI0
aI0
aa(lp131
I0
aI0
aI0
aI0
aI0
aI0
aI0
aI0
aI0
aI0
aI0
aI0
aI0
aI0
aI0
aI0
aI0
aI0
aI0
aI0
aI0
aI0
aI0
aI0
aI0
aI0
aI0
aI0
aI0
aI0
aI0
aI0
aI0
aI0
aI0
aI0
aI0
aI0
aI0
aI0
aI0
aI0
aI0
aI0
aI0
aI0
aI0
aI0
aI0
aI0
aa(lp132
I0
aI0
aI0
aI0
aI0
aI0
aI0
aI0
aI0
aI0
aI0
aI0
aI0
aI0
aI0
aI0
aI0
aI0
aI0
aI0
aI0
aI0
aI0
aI0
aI0
aI0
aI0
aI0
aI0
aI0
aI0
aI0
aI0
aI0
aI0
aI0
aI0
aI0
aI0
aI0
aI0
aI0
aI0
aI0
aI0
aI0
aI0
aI0
aI0
aI0
aa(lp133
I0
aI0
aI0
aI0
aI0
aI0
aI0
aI0
aI0
aI0
aI0
aI0
aI0
aI0
aI0
aI0
aI0
aI0
aI0
aI0
aI0
aI0
aI0
aI0
aI0
aI0
aI0
aI0
aI0
aI0
aI0
aI0
aI0
aI0
aI0
aI0
aI0
aI0
aI0
aI0
aI0
aI0
aI0
aI0
aI0
aI0
aI0
aI0
aI1
aI0
aa(lp134
I0
aI0
aI0
aI0
aI0
aI0
aI0
aI0
aI0
aI0
aI0
aI0
aI0
aI0
aI0
aI0
aI0
aI0
aI0
aI0
aI0
aI0
aI0
aI0
aI0
aI0
aI0
aI0
aI0
aI0
aI0
aI0
aI0
aI0
aI0
aI0
aI0
aI0
aI0
aI0
aI0
aI0
aI0
aI0
aI0
aI0
aI0
aI0
aI0
aI0
aa(lp135
I0
aI0
aI0
aI0
aI0
aI0
aI0
aI0
aI0
aI0
aI0
aI0
aI0
aI0
aI0
aI0
aI0
aI0
aI0
aI0
aI0
aI0
aI0
aI0
aI0
aI0
aI0
aI0
aI0
aI0
aI0
aI0
aI0
aI0
aI0
aI0
aI0
aI0
aI0
aI0
aI0
aI0
aI0
aI0
aI0
aI0
aI0
aI0
aI0
aI0
aa(lp136
I0
aI0
aI0
aI0
aI0
aI0
aI0
aI0
aI0
aI0
aI0
aI0
aI0
aI0
aI0
aI0
aI0
aI0
aI0
aI0
aI0
aI0
aI0
aI0
aI0
aI0
aI0
aI0
aI0
aI0
aI0
aI0
aI0
aI0
aI0
aI0
aI0
aI0
aI0
aI0
aI0
aI0
aI0
aI0
aI0
aI0
aI0
aI0
aI0
aI0
aa(lp137
I0
aI0
aI0
aI0
aI0
aI0
aI0
aI0
aI0
aI0
aI0
aI0
aI0
aI0
aI0
aI0
aI0
aI0
aI0
aI0
aI0
aI0
aI0
aI0
aI0
aI0
aI0
aI0
aI0
aI0
aI0
aI0
aI0
aI0
aI0
aI0
aI0
aI0
aI0
aI0
aI0
aI0
aI0
aI0
aI0
aI0
aI0
aI0
aI0
aI0
aa(lp138
I0
aI0
aI0
aI0
aI0
aI0
aI0
aI0
aI0
aI0
aI0
aI0
aI0
aI0
aI0
aI0
aI0
aI0
aI0
aI0
aI0
aI0
aI0
aI0
aI0
aI0
aI0
aI0
aI0
aI0
aI0
aI0
aI0
aI0
aI0
aI0
aI0
aI0
aI0
aI0
aI0
aI0
aI0
aI0
aI0
aI0
aI0
aI0
aI0
aI0
aa(lp139
I0
aI0
aI0
aI0
aI0
aI0
aI0
aI0
aI0
aI0
aI0
aI0
aI0
aI0
aI0
aI0
aI0
aI0
aI0
aI0
aI0
aI0
aI0
aI0
aI0
aI0
aI0
aI0
aI0
aI0
aI0
aI0
aI0
aI0
aI0
aI0
aI0
aI0
aI0
aI0
aI0
aI0
aI0
aI0
aI0
aI0
aI0
aI0
aI0
aI0
aa(lp140
I0
aI0
aI0
aI0
aI0
aI0
aI0
aI0
aI0
aI0
aI0
aI0
aI0
aI0
aI0
aI0
aI0
aI0
aI0
aI0
aI0
aI0
aI0
aI0
aI0
aI0
aI0
aI0
aI0
aI0
aI0
aI0
aI0
aI0
aI0
aI0
aI0
aI0
aI0
aI0
aI0
aI0
aI0
aI0
aI0
aI0
aI0
aI0
aI0
aI0
aa(lp141
I0
aI0
aI0
aI0
aI0
aI0
aI0
aI0
aI0
aI0
aI0
aI0
aI0
aI0
aI0
aI0
aI0
aI0
aI0
aI0
aI0
aI0
aI0
aI0
aI0
aI0
aI0
aI0
aI0
aI0
aI0
aI0
aI0
aI0
aI0
aI0
aI0
aI0
aI0
aI0
aI0
aI0
aI0
aI0
aI0
aI0
aI0
aI0
aI0
aI0
aa(lp142
I0
aI0
aI0
aI0
aI0
aI0
aI0
aI0
aI0
aI0
aI0
aI0
aI0
aI0
aI0
aI0
aI0
aI0
aI0
aI0
aI0
aI0
aI0
aI0
aI0
aI0
aI0
aI0
aI0
aI0
aI0
aI0
aI0
aI0
aI0
aI0
aI0
aI0
aI0
aI0
aI0
aI0
aI0
aI0
aI0
aI0
aI0
aI0
aI0
aI0
aa(lp143
I0
aI0
aI0
aI0
aI0
aI0
aI0
aI0
aI0
aI0
aI0
aI0
aI0
aI0
aI0
aI0
aI0
aI0
aI0
aI0
aI0
aI0
aI0
aI0
aI0
aI0
aI0
aI0
aI0
aI0
aI0
aI0
aI0
aI0
aI0
aI0
aI0
aI0
aI0
aI0
aI0
aI0
aI0
aI0
aI0
aI0
aI0
aI0
aI0
aI0
aa(lp144
I0
aI0
aI0
aI0
aI0
aI0
aI0
aI0
aI0
aI0
aI0
aI0
aI0
aI0
aI0
aI0
aI0
aI0
aI0
aI0
aI0
aI0
aI0
aI0
aI0
aI0
aI0
aI0
aI0
aI0
aI0
aI0
aI0
aI0
aI0
aI0
aI0
aI0
aI0
aI0
aI0
aI0
aI0
aI0
aI0
aI0
aI0
aI0
aI0
aI0
aa(lp145
I0
aI0
aI0
aI0
aI0
aI0
aI0
aI0
aI0
aI0
aI0
aI0
aI0
aI0
aI0
aI0
aI0
aI0
aI0
aI0
aI0
aI0
aI0
aI0
aI0
aI0
aI0
aI0
aI0
aI0
aI0
aI0
aI0
aI0
aI0
aI0
aI0
aI0
aI0
aI0
aI0
aI0
aI0
aI0
aI0
aI0
aI0
aI0
aI0
aI0
aa(lp146
I0
aI0
aI0
aI0
aI0
aI0
aI0
aI0
aI0
aI0
aI0
aI0
aI0
aI0
aI0
aI0
aI0
aI0
aI0
aI0
aI0
aI0
aI0
aI0
aI0
aI0
aI0
aI0
aI0
aI0
aI0
aI0
aI0
aI0
aI0
aI0
aI0
aI0
aI0
aI0
aI0
aI0
aI0
aI0
aI0
aI0
aI0
aI0
aI0
aI0
aa(lp147
I0
aI0
aI0
aI0
aI0
aI0
aI0
aI0
aI0
aI0
aI0
aI0
aI0
aI0
aI0
aI0
aI0
aI0
aI0
aI0
aI0
aI0
aI0
aI0
aI0
aI0
aI0
aI0
aI0
aI0
aI0
aI0
aI0
aI0
aI0
aI0
aI0
aI0
aI0
aI0
aI0
aI0
aI0
aI0
aI0
aI0
aI0
aI0
aI0
aI0
aa(lp148
I0
aI0
aI0
aI0
aI0
aI0
aI0
aI0
aI0
aI0
aI0
aI0
aI0
aI0
aI0
aI0
aI0
aI0
aI0
aI0
aI0
aI0
aI0
aI0
aI0
aI0
aI0
aI0
aI0
aI0
aI0
aI0
aI0
aI0
aI0
aI0
aI0
aI0
aI0
aI0
aI0
aI0
aI0
aI0
aI0
aI0
aI0
aI0
aI0
aI0
aa(lp149
I0
aI0
aI0
aI0
aI0
aI0
aI0
aI0
aI0
aI0
aI0
aI0
aI0
aI0
aI0
aI0
aI0
aI0
aI0
aI0
aI0
aI0
aI0
aI0
aI0
aI0
aI0
aI0
aI0
aI0
aI0
aI0
aI0
aI0
aI0
aI0
aI0
aI0
aI0
aI0
aI0
aI0
aI0
aI0
aI0
aI0
aI0
aI0
aI0
aI0
aa(lp150
I0
aI0
aI0
aI0
aI0
aI0
aI0
aI0
aI0
aI0
aI0
aI0
aI0
aI0
aI0
aI0
aI0
aI0
aI0
aI0
aI0
aI0
aI0
aI0
aI0
aI0
aI0
aI0
aI0
aI0
aI0
aI0
aI0
aI0
aI0
aI0
aI0
aI0
aI0
aI0
aI0
aI0
aI0
aI0
aI0
aI0
aI0
aI0
aI0
aI0
aa(lp151
I0
aI0
aI0
aI0
aI0
aI0
aI0
aI0
aI0
aI0
aI0
aI0
aI0
aI0
aI0
aI0
aI0
aI0
aI0
aI0
aI0
aI0
aI0
aI0
aI0
aI0
aI0
aI0
aI0
aI0
aI0
aI0
aI0
aI0
aI0
aI0
aI0
aI0
aI0
aI0
aI0
aI0
aI0
aI0
aI0
aI0
aI0
aI0
aI0
aI0
aa(lp152
I0
aI0
aI0
aI0
aI0
aI0
aI0
aI0
aI0
aI0
aI0
aI0
aI0
aI0
aI0
aI0
aI0
aI0
aI0
aI0
aI0
aI0
aI0
aI0
aI0
aI0
aI0
aI0
aI0
aI0
aI0
aI0
aI0
aI0
aI0
aI0
aI0
aI0
aI0
aI0
aI0
aI0
aI0
aI0
aI0
aI0
aI0
aI0
aI0
aI0
aa(lp153
I0
aI0
aI0
aI0
aI0
aI0
aI0
aI0
aI0
aI0
aI0
aI0
aI0
aI0
aI0
aI0
aI0
aI0
aI0
aI0
aI0
aI0
aI0
aI0
aI0
aI0
aI0
aI0
aI0
aI0
aI0
aI0
aI0
aI0
aI0
aI0
aI0
aI0
aI0
aI0
aI0
aI0
aI0
aI0
aI0
aI0
aI0
aI0
aI0
aI0
aa(lp154
I0
aI0
aI0
aI0
aI0
aI0
aI0
aI0
aI0
aI0
aI0
aI0
aI0
aI0
aI0
aI0
aI0
aI0
aI0
aI0
aI0
aI0
aI0
aI0
aI0
aI0
aI0
aI0
aI0
aI0
aI0
aI0
aI0
aI0
aI0
aI0
aI0
aI0
aI0
aI0
aI0
aI0
aI0
aI0
aI0
aI0
aI0
aI0
aI0
aI0
aa(lp155
I0
aI0
aI0
aI0
aI0
aI0
aI0
aI0
aI0
aI0
aI0
aI0
aI0
aI0
aI0
aI0
aI0
aI0
aI0
aI0
aI0
aI0
aI0
aI0
aI0
aI0
aI0
aI0
aI0
aI0
aI0
aI0
aI0
aI0
aI0
aI0
aI0
aI0
aI0
aI0
aI0
aI0
aI0
aI0
aI0
aI0
aI0
aI0
aI0
aI0
aa(lp156
I0
aI0
aI0
aI0
aI0
aI0
aI0
aI0
aI0
aI0
aI0
aI0
aI0
aI0
aI0
aI0
aI0
aI0
aI0
aI0
aI0
aI0
aI0
aI0
aI0
aI0
aI0
aI0
aI0
aI0
aI0
aI0
aI0
aI0
aI0
aI0
aI0
aI0
aI0
aI0
aI0
aI0
aI0
aI0
aI0
aI0
aI0
aI0
aI0
aI0
aa(lp157
I0
aI0
aI0
aI0
aI0
aI0
aI0
aI0
aI0
aI0
aI0
aI0
aI0
aI0
aI0
aI0
aI0
aI0
aI0
aI0
aI0
aI0
aI0
aI0
aI0
aI0
aI0
aI0
aI0
aI0
aI0
aI0
aI0
aI0
aI0
aI0
aI0
aI0
aI0
aI0
aI0
aI0
aI0
aI0
aI0
aI0
aI0
aI0
aI0
aI0
aa(lp158
I0
aI0
aI0
aI0
aI0
aI0
aI0
aI0
aI0
aI0
aI0
aI0
aI0
aI0
aI0
aI0
aI0
aI0
aI0
aI0
aI0
aI0
aI0
aI0
aI0
aI0
aI0
aI0
aI0
aI0
aI0
aI0
aI0
aI0
aI0
aI0
aI0
aI0
aI0
aI0
aI0
aI0
aI0
aI0
aI0
aI0
aI0
aI0
aI0
aI0
aa(lp159
I0
aI0
aI0
aI0
aI0
aI0
aI0
aI0
aI0
aI0
aI0
aI0
aI0
aI0
aI0
aI0
aI0
aI0
aI0
aI0
aI0
aI0
aI0
aI0
aI0
aI0
aI0
aI0
aI0
aI0
aI0
aI0
aI0
aI0
aI0
aI0
aI0
aI0
aI0
aI0
aI0
aI0
aI0
aI0
aI0
aI0
aI0
aI0
aI0
aI0
aa(lp160
I0
aI0
aI0
aI0
aI0
aI0
aI0
aI0
aI0
aI0
aI0
aI0
aI0
aI0
aI0
aI0
aI0
aI0
aI0
aI0
aI0
aI0
aI0
aI0
aI0
aI0
aI0
aI0
aI0
aI0
aI0
aI0
aI0
aI0
aI0
aI0
aI0
aI0
aI0
aI0
aI0
aI0
aI0
aI0
aI0
aI0
aI0
aI0
aI0
aI0
aa(lp161
I0
aI0
aI0
aI0
aI0
aI0
aI0
aI0
aI0
aI0
aI0
aI0
aI0
aI0
aI0
aI0
aI0
aI0
aI0
aI0
aI0
aI0
aI0
aI0
aI0
aI0
aI0
aI0
aI0
aI0
aI0
aI0
aI0
aI0
aI0
aI0
aI0
aI0
aI0
aI0
aI0
aI0
aI0
aI0
aI0
aI0
aI0
aI0
aI0
aI0
aa(lp162
I0
aI0
aI0
aI0
aI0
aI0
aI0
aI0
aI0
aI0
aI0
aI0
aI0
aI0
aI0
aI0
aI0
aI0
aI0
aI0
aI0
aI0
aI0
aI0
aI0
aI0
aI0
aI0
aI0
aI0
aI0
aI0
aI0
aI0
aI0
aI0
aI0
aI0
aI0
aI0
aI0
aI0
aI0
aI0
aI0
aI0
aI0
aI0
aI0
aI0
aa(lp163
I0
aI0
aI0
aI0
aI0
aI0
aI0
aI0
aI0
aI0
aI0
aI0
aI0
aI0
aI0
aI0
aI0
aI0
aI0
aI0
aI0
aI0
aI0
aI0
aI0
aI0
aI0
aI0
aI0
aI0
aI0
aI0
aI0
aI0
aI0
aI0
aI0
aI0
aI0
aI0
aI0
aI0
aI0
aI0
aI0
aI0
aI0
aI0
aI0
aI0
aa(lp164
I0
aI0
aI0
aI0
aI0
aI0
aI0
aI0
aI0
aI0
aI0
aI0
aI0
aI0
aI0
aI0
aI0
aI0
aI0
aI0
aI0
aI0
aI0
aI0
aI0
aI0
aI0
aI0
aI0
aI0
aI0
aI0
aI0
aI0
aI0
aI0
aI0
aI0
aI0
aI0
aI0
aI0
aI0
aI0
aI0
aI0
aI0
aI0
aI0
aI0
aa(lp165
I0
aI0
aI0
aI0
aI0
aI0
aI0
aI0
aI0
aI0
aI0
aI0
aI0
aI0
aI0
aI0
aI0
aI0
aI0
aI0
aI0
aI0
aI0
aI0
aI0
aI0
aI0
aI0
aI0
aI0
aI0
aI0
aI0
aI0
aI0
aI0
aI0
aI0
aI0
aI0
aI0
aI0
aI0
aI0
aI0
aI0
aI0
aI0
aI0
aI0
aa(lp166
I0
aI0
aI0
aI0
aI0
aI0
aI0
aI0
aI0
aI0
aI0
aI0
aI0
aI0
aI0
aI0
aI0
aI0
aI0
aI0
aI0
aI0
aI0
aI0
aI0
aI0
aI0
aI0
aI0
aI0
aI0
aI0
aI0
aI0
aI0
aI0
aI0
aI0
aI0
aI0
aI0
aI0
aI0
aI0
aI0
aI0
aI0
aI0
aI0
aI0
aasS'trequirements'
p167
I50
sS'objectives'
p168
(lp169
(ijmoo_objective
jmoo_objective
p170
(dp171
S'lismore'
p172
I01
sS'up'
p173
Nsg113
S'f1'
p174
sS'low'
p175
Nsba(ijmoo_objective
jmoo_objective
p176
(dp177
g172
I01
sg173
Nsg113
S'f2'
p178
sg175
Nsba(ijmoo_objective
jmoo_objective
p179
(dp180
g172
I01
sg173
Nsg113
S'f3'
p181
sg175
NsbasS'treleases'
p182
I4
sS'tclients'
p183
I5
sS'client'
p184
(lp185
(iProblems.MONRP.Client
Client
p186
(dp187
S'importance'
p188
(lp189
I0
aI5
aI4
aI0
aI4
aI5
aI3
aI0
aI4
aI1
aI3
aI2
aI2
aI0
aI2
aI4
aI3
aI0
aI3
aI3
aI0
aI1
aI4
aI3
aI1
aI0
aI0
aI2
aI5
aI2
aI0
aI4
aI1
aI5
aI3
aI1
aI4
aI0
aI4
aI5
aI3
aI5
aI1
aI5
aI2
aI0
aI4
aI2
aI4
aI2
asg12
I0
sS'weight'
p190
I3
sba(iProblems.MONRP.Client
Client
p191
(dp192
g188
(lp193
I2
aI3
aI3
aI0
aI1
aI4
aI2
aI2
aI1
aI4
aI1
aI2
aI0
aI2
aI0
aI2
aI2
aI3
aI1
aI3
aI0
aI5
aI2
aI0
aI4
aI3
aI5
aI1
aI0
aI1
aI5
aI2
aI3
aI1
aI2
aI0
aI0
aI4
aI5
aI5
aI5
aI0
aI0
aI4
aI4
aI3
aI2
aI3
aI4
aI1
asg12
I1
sg190
I1
sba(iProblems.MONRP.Client
Client
p194
(dp195
g188
(lp196
I4
aI1
aI0
aI2
aI4
aI1
aI0
aI0
aI4
aI2
aI4
aI0
aI3
aI1
aI1
aI1
aI0
aI5
aI2
aI4
aI2
aI1
aI1
aI0
aI4
aI2
aI5
aI5
aI5
aI0
aI5
aI5
aI0
aI5
aI0
aI2
aI3
aI1
aI2
aI1
aI5
aI5
aI2
aI0
aI2
aI5
aI3
aI0
aI3
aI0
asg12
I2
sg190
I0
sba(iProblems.MONRP.Client
Client
p197
(dp198
g188
(lp199
I3
aI5
aI4
aI5
aI1
aI3
aI5
aI5
aI5
aI5
aI5
aI2
aI3
aI3
aI4
aI0
aI2
aI0
aI1
aI5
aI5
aI4
aI2
aI3
aI1
aI2
aI3
aI2
aI4
aI0
aI3
aI3
aI0
aI3
aI5
aI2
aI3
aI2
aI5
aI1
aI0
aI2
aI2
aI4
aI5
aI4
aI0
aI0
aI0
aI5
asg12
I3
sg190
I0
sba(iProblems.MONRP.Client
Client
p200
(dp201
g188
(lp202
I4
aI0
aI2
aI5
aI5
aI5
aI0
aI4
aI3
aI3
aI3
aI1
aI4
aI0
aI5
aI2
aI0
aI2
aI3
aI0
aI1
aI2
aI0
aI5
aI1
aI3
aI5
aI3
aI2
aI1
aI4
aI5
aI1
aI5
aI1
aI5
aI1
aI3
aI4
aI4
aI0
aI1
aI5
aI3
aI3
aI0
aI1
aI0
aI3
aI1
asg12
I4
sg190
I2
sbasS'release'
p203
(lp204
(iProblems.MONRP.Release
Release
p205
(dp206
g12
I0
sS'budget'
p207
I188
sba(iProblems.MONRP.Release
Release
p208
(dp209
g12
I1
sg207
I188
sba(iProblems.MONRP.Release
Release
p210
(dp211
g12
I2
sg207
I188
sba(iProblems.MONRP.Release
Release
p212
(dp213
g12
I3
sg207
I188
sbasS'decisions'
p214
(lp215
(ijmoo_decision
jmoo_decision
p216
(dp217
g173
I3
sg113
S'x1'
p218
sg175
I-1
sba(ijmoo_decision
jmoo_decision
p219
(dp220
g173
I3
sg113
S'x2'
p221
sg175
I-1
sba(ijmoo_decision
jmoo_decision
p222
(dp223
g173
I3
sg113
S'x3'
p224
sg175
I-1
sba(ijmoo_decision
jmoo_decision
p225
(dp226
g173
I3
sg113
S'x4'
p227
sg175
I-1
sba(ijmoo_decision
jmoo_decision
p228
(dp229
g173
I3
sg113
S'x5'
p230
sg175
I-1
sba(ijmoo_decision
jmoo_decision
p231
(dp232
g173
I3
sg113
S'x6'
p233
sg175
I-1
sba(ijmoo_decision
jmoo_decision
p234
(dp235
g173
I3
sg113
S'x7'
p236
sg175
I-1
sba(ijmoo_decision
jmoo_decision
p237
(dp238
g173
I3
sg113
S'x8'
p239
sg175
I-1
sba(ijmoo_decision
jmoo_decision
p240
(dp241
g173
I3
sg113
S'x9'
p242
sg175
I-1
sba(ijmoo_decision
jmoo_decision
p243
(dp244
g173
I3
sg113
S'x10'
p245
sg175
I-1
sba(ijmoo_decision
jmoo_decision
p246
(dp247
g173
I3
sg113
S'x11'
p248
sg175
I-1
sba(ijmoo_decision
jmoo_decision
p249
(dp250
g173
I3
sg113
S'x12'
p251
sg175
I-1
sba(ijmoo_decision
jmoo_decision
p252
(dp253
g173
I3
sg113
S'x13'
p254
sg175
I-1
sba(ijmoo_decision
jmoo_decision
p255
(dp256
g173
I3
sg113
S'x14'
p257
sg175
I-1
sba(ijmoo_decision
jmoo_decision
p258
(dp259
g173
I3
sg113
S'x15'
p260
sg175
I-1
sba(ijmoo_decision
jmoo_decision
p261
(dp262
g173
I3
sg113
S'x16'
p263
sg175
I-1
sba(ijmoo_decision
jmoo_decision
p264
(dp265
g173
I3
sg113
S'x17'
p266
sg175
I-1
sba(ijmoo_decision
jmoo_decision
p267
(dp268
g173
I3
sg113
S'x18'
p269
sg175
I-1
sba(ijmoo_decision
jmoo_decision
p270
(dp271
g173
I3
sg113
S'x19'
p272
sg175
I-1
sba(ijmoo_decision
jmoo_decision
p273
(dp274
g173
I3
sg113
S'x20'
p275
sg175
I-1
sba(ijmoo_decision
jmoo_decision
p276
(dp277
g173
I3
sg113
S'x21'
p278
sg175
I-1
sba(ijmoo_decision
jmoo_decision
p279
(dp280
g173
I3
sg113
S'x22'
p281
sg175
I-1
sba(ijmoo_decision
jmoo_decision
p282
(dp283
g173
I3
sg113
S'x23'
p284
sg175
I-1
sba(ijmoo_decision
jmoo_decision
p285
(dp286
g173
I3
sg113
S'x24'
p287
sg175
I-1
sba(ijmoo_decision
jmoo_decision
p288
(dp289
g173
I3
sg113
S'x25'
p290
sg175
I-1
sba(ijmoo_decision
jmoo_decision
p291
(dp292
g173
I3
sg113
S'x26'
p293
sg175
I-1
sba(ijmoo_decision
jmoo_decision
p294
(dp295
g173
I3
sg113
S'x27'
p296
sg175
I-1
sba(ijmoo_decision
jmoo_decision
p297
(dp298
g173
I3
sg113
S'x28'
p299
sg175
I-1
sba(ijmoo_decision
jmoo_decision
p300
(dp301
g173
I3
sg113
S'x29'
p302
sg175
I-1
sba(ijmoo_decision
jmoo_decision
p303
(dp304
g173
I3
sg113
S'x30'
p305
sg175
I-1
sba(ijmoo_decision
jmoo_decision
p306
(dp307
g173
I3
sg113
S'x31'
p308
sg175
I-1
sba(ijmoo_decision
jmoo_decision
p309
(dp310
g173
I3
sg113
S'x32'
p311
sg175
I-1
sba(ijmoo_decision
jmoo_decision
p312
(dp313
g173
I3
sg113
S'x33'
p314
sg175
I-1
sba(ijmoo_decision
jmoo_decision
p315
(dp316
g173
I3
sg113
S'x34'
p317
sg175
I-1
sba(ijmoo_decision
jmoo_decision
p318
(dp319
g173
I3
sg113
S'x35'
p320
sg175
I-1
sba(ijmoo_decision
jmoo_decision
p321
(dp322
g173
I3
sg113
S'x36'
p323
sg175
I-1
sba(ijmoo_decision
jmoo_decision
p324
(dp325
g173
I3
sg113
S'x37'
p326
sg175
I-1
sba(ijmoo_decision
jmoo_decision
p327
(dp328
g173
I3
sg113
S'x38'
p329
sg175
I-1
sba(ijmoo_decision
jmoo_decision
p330
(dp331
g173
I3
sg113
S'x39'
p332
sg175
I-1
sba(ijmoo_decision
jmoo_decision
p333
(dp334
g173
I3
sg113
S'x40'
p335
sg175
I-1
sba(ijmoo_decision
jmoo_decision
p336
(dp337
g173
I3
sg113
S'x41'
p338
sg175
I-1
sba(ijmoo_decision
jmoo_decision
p339
(dp340
g173
I3
sg113
S'x42'
p341
sg175
I-1
sba(ijmoo_decision
jmoo_decision
p342
(dp343
g173
I3
sg113
S'x43'
p344
sg175
I-1
sba(ijmoo_decision
jmoo_decision
p345
(dp346
g173
I3
sg113
S'x44'
p347
sg175
I-1
sba(ijmoo_decision
jmoo_decision
p348
(dp349
g173
I3
sg113
S'x45'
p350
sg175
I-1
sba(ijmoo_decision
jmoo_decision
p351
(dp352
g173
I3
sg113
S'x46'
p353
sg175
I-1
sba(ijmoo_decision
jmoo_decision
p354
(dp355
g173
I3
sg113
S'x47'
p356
sg175
I-1
sba(ijmoo_decision
jmoo_decision
p357
(dp358
g173
I3
sg113
S'x48'
p359
sg175
I-1
sba(ijmoo_decision
jmoo_decision
p360
(dp361
g173
I3
sg113
S'x49'
p362
sg175
I-1
sba(ijmoo_decision
jmoo_decision
p363
(dp364
g173
I3
sg113
S'x50'
p365
sg175
I-1
sbasb.