(dp0
S'SWAY5_2500'
p1
(iGraphics.simplified_new
SolutionHolder
p2
(dp3
S'problem'
p4
S'MONRP_50_4_5_0_90'
p5
sS'repeats'
p6
(lp7
(iGraphics.simplified_new
Scores
p8
(dp9
S'pfs'
p10
I26
sS'spread'
p11
F0.49069466792433053
sS'hv'
p12
F689944.1605
sS'igd'
p13
Nsba(iGraphics.simplified_new
Scores
p14
(dp15
g10
I30
sg11
F0.5557583723385003
sg12
F608297.6606
sg13
Nsba(iGraphics.simplified_new
Scores
p16
(dp17
g10
I33
sg11
F0.5079603727793445
sg12
F648482.7224
sg13
Nsba(iGraphics.simplified_new
Scores
p18
(dp19
g10
I29
sg11
F0.43883388151006225
sg12
F534701.1815
sg13
Nsba(iGraphics.simplified_new
Scores
p20
(dp21
g10
I22
sg11
F0.5247922746711204
sg12
F558851.0462
sg13
Nsba(iGraphics.simplified_new
Scores
p22
(dp23
g10
I30
sg11
F0.5503943022973989
sg12
F629700.4373
sg13
Nsba(iGraphics.simplified_new
Scores
p24
(dp25
g10
I29
sg11
F0.5210430081421339
sg12
F612060.0963
sg13
Nsba(iGraphics.simplified_new
Scores
p26
(dp27
g10
I34
sg11
F0.5691657688455978
sg12
F541958.1477
sg13
Nsba(iGraphics.simplified_new
Scores
p28
(dp29
g10
I39
sg11
F0.48897951378722215
sg12
F631635.63
sg13
Nsba(iGraphics.simplified_new
Scores
p30
(dp31
g10
I17
sg11
F0.526982628509716
sg12
F617436.1306
sg13
Nsba(iGraphics.simplified_new
Scores
p32
(dp33
g10
I39
sg11
F0.545007547703674
sg12
F648530.4973
sg13
Nsba(iGraphics.simplified_new
Scores
p34
(dp35
g10
I39
sg11
F0.47973586209608027
sg12
F588287.9591
sg13
Nsba(iGraphics.simplified_new
Scores
p36
(dp37
g10
I25
sg11
F0.5862481116753794
sg12
F610388.0636
sg13
Nsba(iGraphics.simplified_new
Scores
p38
(dp39
g10
I34
sg11
F0.5173983534721839
sg12
F601891.2303
sg13
Nsba(iGraphics.simplified_new
Scores
p40
(dp41
g10
I34
sg11
F0.6048191558200768
sg12
F621865.1934
sg13
Nsba(iGraphics.simplified_new
Scores
p42
(dp43
g10
I29
sg11
F0.5673260840604561
sg12
F669276.6317
sg13
Nsba(iGraphics.simplified_new
Scores
p44
(dp45
g10
I29
sg11
F0.5813752073321137
sg12
F659053.4256
sg13
Nsba(iGraphics.simplified_new
Scores
p46
(dp47
g10
I33
sg11
F0.5783265558663604
sg12
F660692.5717
sg13
Nsba(iGraphics.simplified_new
Scores
p48
(dp49
g10
I44
sg11
F0.4649265747290489
sg12
F624268.9106
sg13
Nsba(iGraphics.simplified_new
Scores
p50
(dp51
g10
I45
sg11
F0.5520380968502302
sg12
F691149.2135
sg13
NsbasS'algorithm'
p52
S'SWAY5'
p53
sbsS'SWAY5_10000'
p54
(iGraphics.simplified_new
SolutionHolder
p55
(dp56
g4
g5
sg6
(lp57
(iGraphics.simplified_new
Scores
p58
(dp59
g10
I60
sg11
F0.4610348554401961
sg12
F235652.8281
sg13
Nsba(iGraphics.simplified_new
Scores
p60
(dp61
g10
I88
sg11
F0.5402640491351853
sg12
F241062.6518
sg13
Nsba(iGraphics.simplified_new
Scores
p62
(dp63
g10
I34
sg11
F0.5382899504818116
sg12
F181044.078
sg13
Nsba(iGraphics.simplified_new
Scores
p64
(dp65
g10
I78
sg11
F0.5354755889285531
sg12
F243880.631
sg13
Nsba(iGraphics.simplified_new
Scores
p66
(dp67
g10
I78
sg11
F0.4720013184392861
sg12
F253441.3846
sg13
Nsba(iGraphics.simplified_new
Scores
p68
(dp69
g10
I59
sg11
F0.5148866551640942
sg12
F208167.9092
sg13
Nsba(iGraphics.simplified_new
Scores
p70
(dp71
g10
I90
sg11
F0.5074302264268292
sg12
F228800.0562
sg13
Nsba(iGraphics.simplified_new
Scores
p72
(dp73
g10
I78
sg11
F0.5758728302639964
sg12
F192250.495
sg13
Nsba(iGraphics.simplified_new
Scores
p74
(dp75
g10
I90
sg11
F0.5543344564147044
sg12
F213284.2471
sg13
Nsba(iGraphics.simplified_new
Scores
p76
(dp77
g10
I73
sg11
F0.572038019422894
sg12
F215923.7804
sg13
Nsba(iGraphics.simplified_new
Scores
p78
(dp79
g10
I95
sg11
F0.5099750261739957
sg12
F229210.8948
sg13
Nsba(iGraphics.simplified_new
Scores
p80
(dp81
g10
I78
sg11
F0.5488155957963732
sg12
F224751.503
sg13
Nsba(iGraphics.simplified_new
Scores
p82
(dp83
g10
I77
sg11
F0.5486360194895042
sg12
F228436.7324
sg13
Nsba(iGraphics.simplified_new
Scores
p84
(dp85
g10
I87
sg11
F0.5057786655412629
sg12
F228577.7259
sg13
Nsba(iGraphics.simplified_new
Scores
p86
(dp87
g10
I39
sg11
F0.5534976145788503
sg12
F198552.2799
sg13
Nsba(iGraphics.simplified_new
Scores
p88
(dp89
g10
I88
sg11
F0.49946078949442596
sg12
F234337.2809
sg13
Nsba(iGraphics.simplified_new
Scores
p90
(dp91
g10
I88
sg11
F0.5661479612456881
sg12
F221800.0288
sg13
Nsba(iGraphics.simplified_new
Scores
p92
(dp93
g10
I78
sg11
F0.5671758519396864
sg12
F222714.2518
sg13
Nsba(iGraphics.simplified_new
Scores
p94
(dp95
g10
I59
sg11
F0.5028554188212646
sg12
F195214.1811
sg13
Nsba(iGraphics.simplified_new
Scores
p96
(dp97
g10
I78
sg11
F0.5214815202453593
sg12
F214347.2107
sg13
Nsbasg52
S'SWAY5'
p98
sbsS'SWAY5_1225'
p99
(iGraphics.simplified_new
SolutionHolder
p100
(dp101
g4
g5
sg6
(lp102
(iGraphics.simplified_new
Scores
p103
(dp104
g10
I21
sg11
F0.756195473656825
sg12
F351928.7441
sg13
Nsba(iGraphics.simplified_new
Scores
p105
(dp106
g10
I29
sg11
F0.6008550937560778
sg12
F373271.0549
sg13
Nsba(iGraphics.simplified_new
Scores
p107
(dp108
g10
I28
sg11
F0.5760221903856644
sg12
F360864.4625
sg13
Nsba(iGraphics.simplified_new
Scores
p109
(dp110
g10
I22
sg11
F0.5887462509683353
sg12
F338913.834
sg13
Nsba(iGraphics.simplified_new
Scores
p111
(dp112
g10
I29
sg11
F0.4620940365256506
sg12
F390751.3843
sg13
Nsba(iGraphics.simplified_new
Scores
p113
(dp114
g10
I33
sg11
F0.6311935949825986
sg12
F370364.4994
sg13
Nsba(iGraphics.simplified_new
Scores
p115
(dp116
g10
I19
sg11
F0.6023586560201893
sg12
F370228.4978
sg13
Nsba(iGraphics.simplified_new
Scores
p117
(dp118
g10
I29
sg11
F0.5215622476008721
sg12
F400620.4598
sg13
Nsba(iGraphics.simplified_new
Scores
p119
(dp120
g10
I19
sg11
F0.5158832750872013
sg12
F343305.765
sg13
Nsba(iGraphics.simplified_new
Scores
p121
(dp122
g10
I22
sg11
F0.5529775565356352
sg12
F336577.3259
sg13
Nsba(iGraphics.simplified_new
Scores
p123
(dp124
g10
I34
sg11
F0.5671107504427741
sg12
F343617.9096
sg13
Nsba(iGraphics.simplified_new
Scores
p125
(dp126
g10
I21
sg11
F0.5792307733353474
sg12
F326284.2435
sg13
Nsba(iGraphics.simplified_new
Scores
p127
(dp128
g10
I29
sg11
F0.5618975443621631
sg12
F370917.0224
sg13
Nsba(iGraphics.simplified_new
Scores
p129
(dp130
g10
I20
sg11
F0.6021136745873878
sg12
F350529.2438
sg13
Nsba(iGraphics.simplified_new
Scores
p131
(dp132
g10
I22
sg11
F0.6405131207363981
sg12
F425880.6951
sg13
Nsba(iGraphics.simplified_new
Scores
p133
(dp134
g10
I19
sg11
F0.7185069456918459
sg12
F337775.044
sg13
Nsba(iGraphics.simplified_new
Scores
p135
(dp136
g10
I28
sg11
F0.5134360640128003
sg12
F384275.7451
sg13
Nsba(iGraphics.simplified_new
Scores
p137
(dp138
g10
I25
sg11
F0.5803069907282338
sg12
F386904.666
sg13
Nsba(iGraphics.simplified_new
Scores
p139
(dp140
g10
I29
sg11
F0.5104655946712893
sg12
F350629.0066
sg13
Nsba(iGraphics.simplified_new
Scores
p141
(dp142
g10
I29
sg11
F0.5924131066115501
sg12
F389259.4174
sg13
Nsbasg52
S'SWAY5'
p143
sbsS'SWAY5_5000'
p144
(iGraphics.simplified_new
SolutionHolder
p145
(dp146
g4
g5
sg6
(lp147
(iGraphics.simplified_new
Scores
p148
(dp149
g10
I65
sg11
F0.5012504793767811
sg12
F678993.8509
sg13
Nsba(iGraphics.simplified_new
Scores
p150
(dp151
g10
I59
sg11
F0.5433763775584222
sg12
F647785.9559
sg13
Nsba(iGraphics.simplified_new
Scores
p152
(dp153
g10
I36
sg11
F0.5670417298822076
sg12
F628351.9471
sg13
Nsba(iGraphics.simplified_new
Scores
p154
(dp155
g10
I53
sg11
F0.5015071910516901
sg12
F662280.0657
sg13
Nsba(iGraphics.simplified_new
Scores
p156
(dp157
g10
I34
sg11
F0.5265449462501657
sg12
F602373.4277
sg13
Nsba(iGraphics.simplified_new
Scores
p158
(dp159
g10
I38
sg11
F0.630904117495529
sg12
F597993.581
sg13
Nsba(iGraphics.simplified_new
Scores
p160
(dp161
g10
I58
sg11
F0.47113396034726096
sg12
F697866.4651
sg13
Nsba(iGraphics.simplified_new
Scores
p162
(dp163
g10
I39
sg11
F0.49136016466376714
sg12
F643284.8204
sg13
Nsba(iGraphics.simplified_new
Scores
p164
(dp165
g10
I29
sg11
F0.5183141927922779
sg12
F591680.1047
sg13
Nsba(iGraphics.simplified_new
Scores
p166
(dp167
g10
I39
sg11
F0.5096602045845223
sg12
F600952.4518
sg13
Nsba(iGraphics.simplified_new
Scores
p168
(dp169
g10
I67
sg11
F0.5093009376317994
sg12
F693496.8284
sg13
Nsba(iGraphics.simplified_new
Scores
p170
(dp171
g10
I59
sg11
F0.5786120539347493
sg12
F680695.5071
sg13
Nsba(iGraphics.simplified_new
Scores
p172
(dp173
g10
I39
sg11
F0.6445677889912965
sg12
F662312.8835
sg13
Nsba(iGraphics.simplified_new
Scores
p174
(dp175
g10
I39
sg11
F0.48196083235702364
sg12
F556695.0398
sg13
Nsba(iGraphics.simplified_new
Scores
p176
(dp177
g10
I39
sg11
F0.5739779631137277
sg12
F640246.3016
sg13
Nsba(iGraphics.simplified_new
Scores
p178
(dp179
g10
I39
sg11
F0.5082109079349743
sg12
F617895.5086
sg13
Nsba(iGraphics.simplified_new
Scores
p180
(dp181
g10
I59
sg11
F0.5268401606811117
sg12
F672026.2649
sg13
Nsba(iGraphics.simplified_new
Scores
p182
(dp183
g10
I59
sg11
F0.5289127251090033
sg12
F709340.681
sg13
Nsba(iGraphics.simplified_new
Scores
p184
(dp185
g10
I52
sg11
F0.5651404358392589
sg12
F650322.5086
sg13
Nsba(iGraphics.simplified_new
Scores
p186
(dp187
g10
I58
sg11
F0.5973669669507694
sg12
F694450.1576
sg13
Nsbasg52
S'SWAY5'
p188
sbs.