(dp0
S'MONRP_50_4_5_0_110'
p1
(dp2
S'Spread'
p3
(lp4
(lp5
S'SPEA2_100'
p6
aF0.6193247504790642
aF0.5205485440913071
aF0.5547932580475038
aF0.48042568159210436
aF0.5274857140199521
aF0.5219166029107524
aF0.5478653109129658
aF0.502711750541745
aF0.524284772843367
aF0.5457308867465248
aF0.49584482353235937
aF0.515412199820269
aF0.5377218033805966
aF0.5487826340488572
aF0.5441553612551265
aF0.5855058309181703
aF0.5770450100928345
aF0.5488347763507074
aF0.5149840999431444
aF0.5127209056975744
aa(lp7
S'SPEA2SC-1225_100'
p8
aF0.5223845878890327
aF0.5603421800993933
aF0.5655299731012285
aF0.510484227546892
aF0.5450204093710174
aF0.5737819794505096
aF0.5027871149582318
aF0.6074611743811669
aF0.5547981520531173
aF0.6090394246755082
aF0.4828519910000011
aF0.5468599190561934
aF0.5087261854049836
aF0.5251424760025603
aF0.5225307475522929
aF0.5293441457108478
aF0.5271914621403789
aF0.555104489233754
aF0.5686695033972757
aF0.5046277002587392
aa(lp9
S'SWAY5_1225'
p10
aF0.7281339572533945
aF0.7157783259659122
aF0.6367403958222055
aF0.7281351399629183
aF0.7605931234408705
aF0.6368019946392295
aF0.6661307031140569
aF0.7169939372189977
aF0.7062661013463409
aF0.677338762955701
aF0.7408594010855905
aF0.6455875423154503
aF0.7433586425322833
aF0.6378139775646219
aF0.7084503906083104
aF0.6671732043370007
aF0.7479106655214627
aF0.70958218074946
aF0.5749997633091279
aF0.7151010816353937
aa(lp11
S'SWAY5_5000'
p12
aF0.6505319582867859
aF0.560941915685243
aF0.6634536343991118
aF0.5374508769557931
aF0.6207597193151162
aF0.6083223320260508
aF0.6891504395699275
aF0.6154942113371276
aF0.5943851145090271
aF0.6558088042694687
aF0.6410736665173408
aF0.673107508000875
aF0.6086184291088756
aF0.710676449253261
aF0.591471635036184
aF0.6771582669206042
aF0.5776470253258008
aF0.6328411701988096
aF0.5793621891812436
aF0.6967003704929662
aa(lp13
S'NSGAIISC-5000_100'
p14
aF0.6746743695431583
aF0.6499694920188812
aF0.6121358031924469
aF0.6406083412741472
aF0.6420312210646612
aF0.628628695089112
aF0.6292523074866122
aF0.6013489362010941
aF0.6168257769841947
aF0.6517899260372005
aF0.6813047952584076
aF0.6421945993858018
aF0.6277336847095087
aF0.6589583057810117
aF0.6341149941050216
aF0.7268537559542092
aF0.6797277494688827
aF0.7330824249774986
aF0.6339745543730323
aF0.5659506125472717
aa(lp15
S'SWAY5_2500'
p16
aF0.6829106780800467
aF0.625441310371639
aF0.7150549293405651
aF0.6707160890892404
aF0.6979312787328472
aF0.6443400242685061
aF0.5230053997275537
aF0.6265037041898459
aF0.6816288375725856
aF0.581398297490113
aF0.6443351720004665
aF0.5863586235717213
aF0.5941186184268322
aF0.6417860486470912
aF0.5125245442251297
aF0.659408337960322
aF0.6259457425961817
aF0.6368592863629409
aF0.6013444575079175
aF0.5981885245256348
aa(lp17
S'NSGAIISC-1225_100'
p18
aF0.6266102959286914
aF0.6200517639246604
aF0.603359588632067
aF0.6995580100727754
aF0.651678044721824
aF0.6351124538735275
aF0.6405282239574311
aF0.627420668383861
aF0.5379577340641569
aF0.6475590629879034
aF0.5754676808061052
aF0.6692526075468893
aF0.6729091866646417
aF0.6970727291629844
aF0.5402068995379896
aF0.5853040524724935
aF0.5855035043981628
aF0.6646140297654721
aF0.5520973752376307
aF0.5673945529976648
aa(lp19
S'SPEA2SC-5000_100'
p20
aF0.6105661669695804
aF0.5212224422019033
aF0.5414155031576593
aF0.5643655563689564
aF0.5721762582269236
aF0.5353186911417045
aF0.6077402717809491
aF0.4859590895789335
aF0.5800472967140708
aF0.5064735022301063
aF0.46921050280662946
aF0.5895094343726582
aF0.6618765567404952
aF0.5474977953104655
aF0.5721845991533583
aF0.5263450140551326
aF0.5461829541032698
aF0.4821636272722115
aF0.5414264067210771
aF0.51898710471527
aa(lp21
S'SWAY5_10000'
p22
aF0.5583376327541525
aF0.5453421428852426
aF0.5805510083322835
aF0.5436758212708686
aF0.6063227388876068
aF0.6215936382905918
aF0.5266838815278282
aF0.6031015760074249
aF0.5603226724849508
aF0.5334721268227693
aF0.5780264640505626
aF0.5249301485192858
aF0.5371215757178347
aF0.5615099202330306
aF0.53001819521692
aF0.6273409733289959
aF0.6851559593539214
aF0.6050548385062322
aF0.5307396669528784
aF0.5239161056193778
aa(lp23
S'NSGAIISC-10000_100'
p24
aF0.6986232901617235
aF0.6203785955996023
aF0.6953887005356582
aF0.5456793585212938
aF0.6127707311577103
aF0.6427998704285282
aF0.6674136205505216
aF0.7175639520460565
aF0.6662215581775144
aF0.6344728583860905
aF0.6533602532441405
aF0.7043808440815973
aF0.6066299467226292
aF0.6793404886436036
aF0.6967738101863618
aF0.699316634397524
aF0.657673103760614
aF0.6246676534333935
aF0.6759566051824437
aF0.5876302831085637
aa(lp25
S'NSGAII_100'
p26
aF0.6341260935562307
aF0.5927802881181348
aF0.6650388129875716
aF0.6650933787165698
aF0.718250866343845
aF0.5971728501038968
aF0.5690911059933162
aF0.6352364106091716
aF0.6634336547290244
aF0.6351271680075429
aF0.6276603937146078
aF0.6162851076011127
aF0.588467876256113
aF0.6327001684193145
aF0.6433577705984261
aF0.5652658434499482
aF0.5816947993475697
aF0.6540641058552144
aF0.620008018466986
aF0.5812299481469283
aa(lp27
S'SPEA2SC-2500_100'
p28
aF0.47805978771062535
aF0.5591504423828934
aF0.5723930191012111
aF0.5102102199860309
aF0.5378792430527566
aF0.5422552461280002
aF0.5239407243518625
aF0.6209475248457521
aF0.5845260507496612
aF0.5262622339904789
aF0.4991120191379823
aF0.5912487531360382
aF0.5339714607743946
aF0.5517114234161373
aF0.5813834187505048
aF0.6373799314039063
aF0.5354602033271699
aF0.6076100456616916
aF0.5480490392228488
aF0.638439696164125
aa(lp29
S'SPEA2SC-10000_100'
p30
aF0.6489164312081149
aF0.4885195589117284
aF0.5809134071842118
aF0.5705790076097683
aF0.5328949510434451
aF0.5879996062736749
aF0.5684124471016683
aF0.5095221035950567
aF0.6100891734361109
aF0.5295060940042178
aF0.569907349337595
aF0.5314401157159302
aF0.5603680538348168
aF0.5805546559129969
aF0.6124473207559175
aF0.5423256570149214
aF0.562268643049339
aF0.5144640262726563
aF0.6305843890480726
aF0.5533162879420176
aa(lp31
S'NSGAIISC-2500_100'
p32
aF0.5915523473070334
aF0.6110249292178678
aF0.6077234223194805
aF0.644654178071807
aF0.6126371739221151
aF0.6536949139339545
aF0.6184308327157843
aF0.604515552757018
aF0.5991676981148469
aF0.6859348914389416
aF0.5921935610653339
aF0.6571085488639733
aF0.5908466600563971
aF0.5671886163527189
aF0.6252719130011234
aF0.5994384529453782
aF0.6343388592307957
aF0.6827061313466025
aF0.6564612102331433
aF0.6516150056481499
aasS'HV'
p33
(lp34
(lp35
S'SPEA2_100'
p36
aF674245.6966
aF670871.103
aF669180.0518
aF651582.538
aF689710.5384
aF660159.0751
aF654929.8101
aF675426.5419
aF674004.7708
aF642667.1029
aF648241.6988
aF675715.3543
aF687614.1137
aF676051.2309
aF669019.1816
aF653132.3643
aF689025.939
aF693236.5719
aF708710.9657
aF680695.6889
aa(lp37
S'SPEA2SC-1225_100'
p38
aF587961.5341
aF613803.7958
aF582251.2611
aF608730.8334
aF597973.8529
aF599041.9811
aF589033.871
aF591936.8705
aF602423.3046
aF600110.6463
aF598778.5478
aF599933.1709
aF583806.7628
aF602962.4389
aF589524.5446
aF608506.8005
aF614091.3266
aF623397.1195
aF592867.7281
aF607664.7188
aa(lp39
S'SWAY5_1225'
p40
aF154487.7417
aF171514.5197
aF168872.5582
aF154756.0672
aF161807.2275
aF167698.2079
aF154780.353
aF183188.6452
aF152740.1208
aF161975.5926
aF147828.5073
aF170524.4744
aF157186.4423
aF161264.9038
aF158859.0231
aF165029.0971
aF147180.4324
aF155799.299
aF165493.6559
aF167936.6198
aa(lp41
S'SWAY5_5000'
p42
aF229630.9114
aF235461.3251
aF211884.9879
aF234778.8103
aF232678.2439
aF218719.3863
aF241692.6109
aF216028.6852
aF240261.6203
aF214348.576
aF254183.8245
aF214965.8493
aF217730.13
aF242576.8427
aF234687.2055
aF240355.215
aF243158.5326
aF245689.992
aF254970.4207
aF227710.994
aa(lp43
S'NSGAIISC-5000_100'
p44
aF201408.9987
aF195850.9872
aF192358.8872
aF202420.7364
aF190927.9017
aF203896.4995
aF203339.8514
aF199369.7696
aF204181.8157
aF201769.7902
aF211136.1026
aF202980.5201
aF203981.8629
aF196498.5437
aF195626.5184
aF198457.1779
aF199603.249
aF200615.5315
aF191823.1248
aF195522.1125
aa(lp45
S'SWAY5_2500'
p46
aF265519.4206
aF271924.6395
aF257876.6564
aF291286.2621
aF249655.0513
aF268920.7573
aF253364.7984
aF283520.2716
aF259916.6609
aF262489.8838
aF257893.8897
aF286376.7515
aF283124.685
aF264232.9027
aF269261.8739
aF251013.0944
aF265387.3965
aF266504.6001
aF287627.4629
aF264166.3698
aa(lp47
S'NSGAIISC-1225_100'
p48
aF596587.0899
aF601200.8011
aF617044.9951
aF606903.5785
aF599282.5776
aF610393.2277
aF593764.224
aF615829.8379
aF591603.7841
aF589270.8581
aF588525.3632
aF605263.2
aF598820.9105
aF593061.4931
aF583816.3304
aF596535.863
aF603319.0535
aF614569.9698
aF584727.545
aF581802.0739
aa(lp49
S'SPEA2SC-5000_100'
p50
aF197721.5481
aF196195.3994
aF202100.8918
aF196111.5059
aF199318.2698
aF202389.714
aF195977.4332
aF204138.3837
aF200464.57
aF201475.1488
aF192624.0266
aF198554.8504
aF205976.5429
aF201759.3803
aF201293.4123
aF202590.354
aF207419.7735
aF204659.0123
aF194303.7007
aF189197.528
aa(lp51
S'SWAY5_10000'
p52
aF275414.2812
aF215635.6533
aF243019.4074
aF266667.989
aF245357.7203
aF243517.9157
aF249349.9912
aF242261.9278
aF255668.6419
aF256592.1689
aF242142.1674
aF264377.5906
aF250006.1188
aF231187.079
aF256204.2153
aF241770.0361
aF251475.0602
aF253675.2522
aF259262.2831
aF250725.9244
aa(lp53
S'NSGAIISC-10000_100'
p54
aF281539.4898
aF302101.1691
aF287430.0888
aF284777.0217
aF287589.2703
aF281234.0438
aF281731.5957
aF289964.0017
aF295217.8625
aF291964.9122
aF292814.5707
aF283049.376
aF290470.6257
aF297806.4271
aF277525.7125
aF288050.3905
aF285471.3358
aF291250.8498
aF288760.7138
aF292679.0645
aa(lp55
S'NSGAII_100'
p56
aF668184.7847
aF678373.9263
aF667554.8562
aF680529.2765
aF676418.6362
aF668959.1247
aF677015.7204
aF703374.8087
aF675123.8765
aF681178.3659
aF696278.9774
aF712460.2801
aF667327.3354
aF672093.3173
aF701577.6
aF678420.8803
aF673381.5582
aF656008.5795
aF692821.1782
aF680686.009
aa(lp57
S'SPEA2SC-2500_100'
p58
aF577591.2418
aF564434.6438
aF577147.3215
aF559999.3171
aF593161.6153
aF568309.9219
aF568698.9901
aF574642.8966
aF564891.5946
aF562837.4546
aF580466.9023
aF575648.7014
aF578524.2694
aF568468.2193
aF562640.1494
aF570335.4837
aF605994.9585
aF571585.6414
aF549454.7438
aF555284.8186
aa(lp59
S'SPEA2SC-10000_100'
p60
aF291107.7859
aF285013.2258
aF291606.8662
aF289572.5458
aF288596.8769
aF298341.4276
aF293581.8156
aF285615.5612
aF293857.8339
aF298282.6783
aF288005.1796
aF293507.0964
aF278837.4791
aF285879.0037
aF291175.0327
aF278008.4773
aF292046.1022
aF291932.7546
aF293310.3574
aF290958.3525
aa(lp61
S'NSGAIISC-2500_100'
p62
aF588032.3466
aF557603.8292
aF549144.765
aF570118.133
aF568921.9932
aF563507.9991
aF584224.6635
aF583718.5334
aF570696.0095
aF566090.5553
aF558453.9065
aF581364.5066
aF581019.2607
aF576476.7393
aF588238.6089
aF570082.9732
aF584223.3828
aF576204.1388
aF585207.391
aF562380.6001
aass.