(dp0
S'MONRP_50_4_5_0_90'
p1
(dp2
S'Spread'
p3
(lp4
(lp5
S'SWAY5_100'
p6
aF0.4173886212455002
aF0.5124467683682832
aF0.5285054423497413
aF0.5099241640555714
aF0.4231492590812749
aF0.5023822268429136
aF0.5072778812096167
aF0.5344619372755197
aF0.5406973799595497
aF0.5427766259344456
aF0.4964043959246513
aF0.4869371599049821
aF0.5278603769837399
aF0.45562076172107735
aF0.5085680835352452
aF0.4659394818021271
aF0.5113815480691871
aF0.5207302228325695
aF0.5156422426548016
aF0.493001836061071
aa(lp7
S'New-SWAY5_100'
p8
aF0.5136845303244543
aF0.44121584816042364
aF0.5226682696390437
aF0.4769230022472572
aF0.4890462474010562
aF0.4569580533632706
aF0.476076898054994
aF0.501308381858538
aF0.5542650085725108
aF0.5197730852164192
aF0.48021200381499846
aF0.4238499260092757
aF0.4741308338836121
aF0.5041402702114031
aF0.5493891875994986
aF0.5065372389292371
aF0.5588114127621744
aF0.4859197914112755
aF0.4921973994628737
aF0.5292876823056506
aa(lp9
S'SPEA2_100'
p10
aF0.5796717024211677
aF0.5988915734224199
aF0.5095764432716259
aF0.6223116739063298
aF0.9539322328042572
aF0.9170412896884401
aF0.5543384069982864
aF0.9367113588166042
aF0.8299078143018491
aF0.8240221710851652
aF0.7255495966390082
aF0.6966750680241396
aF0.698321965632687
aF0.8099258738057308
aF0.5841551858194135
aF0.748333453244334
aF0.5715849482186807
aF0.6043662502027511
aF0.8389666268235356
aF0.5990234910199864
aa(lp11
S'NSGAII_100'
p12
aF1.2226508881776172
aF0.6556190163968778
aF0.9644890526409047
aF0.7907721753817041
aF0.7667742717358303
aF0.8828001025765183
aF0.7941755827584401
aF0.8639838280196847
aF0.688896910476401
aF0.5197413913329949
aF0.7947279038348206
aF1.0
aF0.923473315456113
aF0.8525730835497477
aF0.8210703026886521
aF1.2437470810346412
aF0.8882053878167748
aF0.8272427255113965
aF1.0
aF0.7238051558563764
aasS'HV'
p13
(lp14
(lp15
S'SWAY5_100'
p16
aF482470.0459
aF493031.1548
aF374328.8073
aF499681.0371
aF517625.7788
aF428261.6054
aF467475.2455
aF396736.7766
aF439652.034
aF445665.2541
aF469110.125
aF460838.0798
aF471190.8581
aF468137.8428
aF406853.0702
aF480663.241
aF455806.8511
aF459008.2
aF400853.6942
aF439081.9193
aa(lp17
S'New-SWAY5_100'
p18
aF461804.8639
aF450379.8918
aF486139.6306
aF521239.1618
aF450942.4702
aF476704.1429
aF496995.7075
aF475571.4809
aF507144.4175
aF484546.0858
aF515928.6793
aF448640.5747
aF498643.9434
aF445236.4362
aF470626.3199
aF454504.1496
aF471546.6063
aF500717.0031
aF471993.8213
aF542922.1993
aa(lp19
S'SPEA2_100'
p20
aF431538.4797
aF523641.7206
aF548813.1953
aF589981.9232
aF378481.3118
aF486684.8804
aF420691.3621
aF497525.6565
aF530323.4991
aF401725.9153
aF537021.7683
aF476678.075
aF480005.7023
aF510480.9892
aF437464.6202
aF484991.651
aF583600.2119
aF533727.8642
aF244819.8362
aF449467.8869
aa(lp21
S'NSGAII_100'
p22
aF584230.5349
aF546371.9812
aF426265.1871
aF475786.4683
aF476887.137
aF483870.2183
aF480513.9873
aF542722.1476
aF511079.4242
aF503742.2322
aF576250.686
aF428525.8804
aF474070.453
aF454594.0804
aF455103.6044
aF465568.899
aF516182.0723
aF381443.139
aF345121.9939
aF599305.0461
aass.