(dp0
S'SWAY5_2500'
p1
(iGraphics.simplified_new
SolutionHolder
p2
(dp3
S'problem'
p4
S'MONRP_50_4_5_4_90'
p5
sS'repeats'
p6
(lp7
(iGraphics.simplified_new
Scores
p8
(dp9
S'pfs'
p10
I29
sS'spread'
p11
F0.5041264771881536
sS'hv'
p12
F312249.8721
sS'igd'
p13
Nsba(iGraphics.simplified_new
Scores
p14
(dp15
g10
I39
sg11
F0.509097031021939
sg12
F328407.382
sg13
Nsba(iGraphics.simplified_new
Scores
p16
(dp17
g10
I39
sg11
F0.5012496095760408
sg12
F307468.74
sg13
Nsba(iGraphics.simplified_new
Scores
p18
(dp19
g10
I29
sg11
F0.5917749387459785
sg12
F340344.8629
sg13
Nsba(iGraphics.simplified_new
Scores
p20
(dp21
g10
I39
sg11
F0.6285364074672946
sg12
F329897.0887
sg13
Nsba(iGraphics.simplified_new
Scores
p22
(dp23
g10
I45
sg11
F0.5442232698906668
sg12
F338221.6339
sg13
Nsba(iGraphics.simplified_new
Scores
p24
(dp25
g10
I64
sg11
F0.5067876549569542
sg12
F329921.0777
sg13
Nsba(iGraphics.simplified_new
Scores
p26
(dp27
g10
I19
sg11
F0.5827704815704361
sg12
F325329.1819
sg13
Nsba(iGraphics.simplified_new
Scores
p28
(dp29
g10
I16
sg11
F0.602139010611489
sg12
F321508.8195
sg13
Nsba(iGraphics.simplified_new
Scores
p30
(dp31
g10
I29
sg11
F0.5527825517351109
sg12
F365966.3701
sg13
Nsba(iGraphics.simplified_new
Scores
p32
(dp33
g10
I34
sg11
F0.6283667355487071
sg12
F305279.0404
sg13
Nsba(iGraphics.simplified_new
Scores
p34
(dp35
g10
I29
sg11
F0.6085142133011504
sg12
F342860.3321
sg13
Nsba(iGraphics.simplified_new
Scores
p36
(dp37
g10
I30
sg11
F0.570736968151338
sg12
F342580.9369
sg13
Nsba(iGraphics.simplified_new
Scores
p38
(dp39
g10
I39
sg11
F0.5284143302876292
sg12
F315503.2642
sg13
Nsba(iGraphics.simplified_new
Scores
p40
(dp41
g10
I29
sg11
F0.6119895121895678
sg12
F329797.0762
sg13
Nsba(iGraphics.simplified_new
Scores
p42
(dp43
g10
I39
sg11
F0.6291849859432501
sg12
F364568.7914
sg13
Nsba(iGraphics.simplified_new
Scores
p44
(dp45
g10
I30
sg11
F0.5805017598813914
sg12
F318047.3587
sg13
Nsba(iGraphics.simplified_new
Scores
p46
(dp47
g10
I30
sg11
F0.5862128360135109
sg12
F346058.6693
sg13
Nsba(iGraphics.simplified_new
Scores
p48
(dp49
g10
I32
sg11
F0.6028278548690642
sg12
F307259.3137
sg13
Nsba(iGraphics.simplified_new
Scores
p50
(dp51
g10
I29
sg11
F0.5732842671292934
sg12
F312908.9273
sg13
NsbasS'algorithm'
p52
S'SWAY5'
p53
sbsS'SWAY5_10000'
p54
(iGraphics.simplified_new
SolutionHolder
p55
(dp56
g4
g5
sg6
(lp57
(iGraphics.simplified_new
Scores
p58
(dp59
g10
I77
sg11
F0.49565323425858393
sg12
F524911.8607
sg13
Nsba(iGraphics.simplified_new
Scores
p60
(dp61
g10
I51
sg11
F0.5184500530154489
sg12
F523598.0527
sg13
Nsba(iGraphics.simplified_new
Scores
p62
(dp63
g10
I39
sg11
F0.5215356653156895
sg12
F473950.425
sg13
Nsba(iGraphics.simplified_new
Scores
p64
(dp65
g10
I60
sg11
F0.587011975329649
sg12
F481289.6214
sg13
Nsba(iGraphics.simplified_new
Scores
p66
(dp67
g10
I87
sg11
F0.5075023877252024
sg12
F496991.7451
sg13
Nsba(iGraphics.simplified_new
Scores
p68
(dp69
g10
I75
sg11
F0.4897037128033289
sg12
F508227.0979
sg13
Nsba(iGraphics.simplified_new
Scores
p70
(dp71
g10
I59
sg11
F0.5161257089947585
sg12
F503522.6572
sg13
Nsba(iGraphics.simplified_new
Scores
p72
(dp73
g10
I58
sg11
F0.5361809757694896
sg12
F486018.6148
sg13
Nsba(iGraphics.simplified_new
Scores
p74
(dp75
g10
I78
sg11
F0.5196281328122818
sg12
F512319.1382
sg13
Nsba(iGraphics.simplified_new
Scores
p76
(dp77
g10
I68
sg11
F0.5328889489699029
sg12
F507367.9057
sg13
Nsba(iGraphics.simplified_new
Scores
p78
(dp79
g10
I73
sg11
F0.5611058938434023
sg12
F490553.3193
sg13
Nsba(iGraphics.simplified_new
Scores
p80
(dp81
g10
I59
sg11
F0.4503241716285978
sg12
F494272.2162
sg13
Nsba(iGraphics.simplified_new
Scores
p82
(dp83
g10
I32
sg11
F0.5497930197259173
sg12
F440285.4615
sg13
Nsba(iGraphics.simplified_new
Scores
p84
(dp85
g10
I78
sg11
F0.5655281729454575
sg12
F538340.8333
sg13
Nsba(iGraphics.simplified_new
Scores
p86
(dp87
g10
I96
sg11
F0.5153714886714225
sg12
F542363.4246
sg13
Nsba(iGraphics.simplified_new
Scores
p88
(dp89
g10
I93
sg11
F0.48820020598893815
sg12
F496509.7501
sg13
Nsba(iGraphics.simplified_new
Scores
p90
(dp91
g10
I34
sg11
F0.46837288093326246
sg12
F455849.0474
sg13
Nsba(iGraphics.simplified_new
Scores
p92
(dp93
g10
I29
sg11
F0.5937560751727058
sg12
F449522.023
sg13
Nsba(iGraphics.simplified_new
Scores
p94
(dp95
g10
I55
sg11
F0.48557749668686123
sg12
F466715.3905
sg13
Nsba(iGraphics.simplified_new
Scores
p96
(dp97
g10
I78
sg11
F0.5081997362561955
sg12
F506605.0896
sg13
Nsbasg52
S'SWAY5'
p98
sbsS'SWAY5_1225'
p99
(iGraphics.simplified_new
SolutionHolder
p100
(dp101
g4
g5
sg6
(lp102
(iGraphics.simplified_new
Scores
p103
(dp104
g10
I19
sg11
F0.5824431680644317
sg12
F245103.4696
sg13
Nsba(iGraphics.simplified_new
Scores
p105
(dp106
g10
I19
sg11
F0.662451661243921
sg12
F269284.0821
sg13
Nsba(iGraphics.simplified_new
Scores
p107
(dp108
g10
I19
sg11
F0.5732796810146303
sg12
F259478.6479
sg13
Nsba(iGraphics.simplified_new
Scores
p109
(dp110
g10
I31
sg11
F0.4556928138991082
sg12
F253483.3788
sg13
Nsba(iGraphics.simplified_new
Scores
p111
(dp112
g10
I29
sg11
F0.5262092131870209
sg12
F269304.6302
sg13
Nsba(iGraphics.simplified_new
Scores
p113
(dp114
g10
I19
sg11
F0.6228281522217751
sg12
F220163.1558
sg13
Nsba(iGraphics.simplified_new
Scores
p115
(dp116
g10
I19
sg11
F0.4939815744402955
sg12
F256845.3121
sg13
Nsba(iGraphics.simplified_new
Scores
p117
(dp118
g10
I28
sg11
F0.6045157521171579
sg12
F267310.4937
sg13
Nsba(iGraphics.simplified_new
Scores
p119
(dp120
g10
I29
sg11
F0.6023204846555834
sg12
F250944.8332
sg13
Nsba(iGraphics.simplified_new
Scores
p121
(dp122
g10
I19
sg11
F0.5674262852699857
sg12
F191566.2036
sg13
Nsba(iGraphics.simplified_new
Scores
p123
(dp124
g10
I25
sg11
F0.6005288216071357
sg12
F288125.3849
sg13
Nsba(iGraphics.simplified_new
Scores
p125
(dp126
g10
I33
sg11
F0.5373144587005059
sg12
F244379.2721
sg13
Nsba(iGraphics.simplified_new
Scores
p127
(dp128
g10
I28
sg11
F0.5780185316342229
sg12
F282661.5058
sg13
Nsba(iGraphics.simplified_new
Scores
p129
(dp130
g10
I19
sg11
F0.7919851555086979
sg12
F264843.9656
sg13
Nsba(iGraphics.simplified_new
Scores
p131
(dp132
g10
I28
sg11
F0.5432984085026459
sg12
F246061.6449
sg13
Nsba(iGraphics.simplified_new
Scores
p133
(dp134
g10
I29
sg11
F0.5682528101532591
sg12
F284350.0048
sg13
Nsba(iGraphics.simplified_new
Scores
p135
(dp136
g10
I29
sg11
F0.5259022333235658
sg12
F271321.9086
sg13
Nsba(iGraphics.simplified_new
Scores
p137
(dp138
g10
I28
sg11
F0.49396806360314394
sg12
F260972.2255
sg13
Nsba(iGraphics.simplified_new
Scores
p139
(dp140
g10
I19
sg11
F0.49826738084995204
sg12
F264835.9299
sg13
Nsba(iGraphics.simplified_new
Scores
p141
(dp142
g10
I33
sg11
F0.6214076410207926
sg12
F243962.9578
sg13
Nsbasg52
S'SWAY5'
p143
sbsS'SWAY5_5000'
p144
(iGraphics.simplified_new
SolutionHolder
p145
(dp146
g4
g5
sg6
(lp147
(iGraphics.simplified_new
Scores
p148
(dp149
g10
I56
sg11
F0.4856833207669306
sg12
F189559.0731
sg13
Nsba(iGraphics.simplified_new
Scores
p150
(dp151
g10
I68
sg11
F0.5693301652878126
sg12
F203037.4299
sg13
Nsba(iGraphics.simplified_new
Scores
p152
(dp153
g10
I19
sg11
F0.5588482175724839
sg12
F157453.1701
sg13
Nsba(iGraphics.simplified_new
Scores
p154
(dp155
g10
I68
sg11
F0.4851874009999732
sg12
F188500.8467
sg13
Nsba(iGraphics.simplified_new
Scores
p156
(dp157
g10
I55
sg11
F0.6088032291021128
sg12
F183681.3255
sg13
Nsba(iGraphics.simplified_new
Scores
p158
(dp159
g10
I19
sg11
F0.5907418001014968
sg12
F173926.3808
sg13
Nsba(iGraphics.simplified_new
Scores
p160
(dp161
g10
I58
sg11
F0.549328019178245
sg12
F172642.693
sg13
Nsba(iGraphics.simplified_new
Scores
p162
(dp163
g10
I29
sg11
F0.530709847514914
sg12
F167372.3252
sg13
Nsba(iGraphics.simplified_new
Scores
p164
(dp165
g10
I32
sg11
F0.44635198860673614
sg12
F157964.8063
sg13
Nsba(iGraphics.simplified_new
Scores
p166
(dp167
g10
I67
sg11
F0.5060388522207213
sg12
F182166.0805
sg13
Nsba(iGraphics.simplified_new
Scores
p168
(dp169
g10
I64
sg11
F0.5915193162218986
sg12
F188540.4637
sg13
Nsba(iGraphics.simplified_new
Scores
p170
(dp171
g10
I66
sg11
F0.48008763841404245
sg12
F188403.5948
sg13
Nsba(iGraphics.simplified_new
Scores
p172
(dp173
g10
I69
sg11
F0.5274302735645802
sg12
F197888.8272
sg13
Nsba(iGraphics.simplified_new
Scores
p174
(dp175
g10
I51
sg11
F0.514326572362418
sg12
F185701.01
sg13
Nsba(iGraphics.simplified_new
Scores
p176
(dp177
g10
I58
sg11
F0.5340403209559217
sg12
F170618.1041
sg13
Nsba(iGraphics.simplified_new
Scores
p178
(dp179
g10
I58
sg11
F0.5290390623747353
sg12
F175365.9671
sg13
Nsba(iGraphics.simplified_new
Scores
p180
(dp181
g10
I68
sg11
F0.4940519553109499
sg12
F200129.2013
sg13
Nsba(iGraphics.simplified_new
Scores
p182
(dp183
g10
I39
sg11
F0.5239761510758068
sg12
F156186.3227
sg13
Nsba(iGraphics.simplified_new
Scores
p184
(dp185
g10
I34
sg11
F0.5992254997908824
sg12
F176719.4004
sg13
Nsba(iGraphics.simplified_new
Scores
p186
(dp187
g10
I51
sg11
F0.48342730591219535
sg12
F199839.4127
sg13
Nsbasg52
S'SWAY5'
p188
sbs.