(dp0
S'SPEA2_100'
p1
(iGraphics.simplified_new
SolutionHolder
p2
(dp3
S'problem'
p4
S'MONRP_50_4_5_4_90'
p5
sS'repeats'
p6
(lp7
(iGraphics.simplified_new
Scores
p8
(dp9
S'pfs'
p10
I100
sS'spread'
p11
F0.596748911872413
sS'hv'
p12
F254454.6692
sS'igd'
p13
Nsba(iGraphics.simplified_new
Scores
p14
(dp15
g10
I100
sg11
F0.5564922341142604
sg12
F252757.3529
sg13
Nsba(iGraphics.simplified_new
Scores
p16
(dp17
g10
I100
sg11
F0.5468393523685778
sg12
F270419.3958
sg13
Nsba(iGraphics.simplified_new
Scores
p18
(dp19
g10
I100
sg11
F0.5290032131417386
sg12
F257758.3875
sg13
Nsba(iGraphics.simplified_new
Scores
p20
(dp21
g10
I100
sg11
F0.5977304833270407
sg12
F262149.3706
sg13
Nsba(iGraphics.simplified_new
Scores
p22
(dp23
g10
I100
sg11
F0.6098676502410022
sg12
F257017.6274
sg13
Nsba(iGraphics.simplified_new
Scores
p24
(dp25
g10
I100
sg11
F0.5719728498141681
sg12
F270885.7232
sg13
Nsba(iGraphics.simplified_new
Scores
p26
(dp27
g10
I100
sg11
F0.6500426310458566
sg12
F262250.9662
sg13
Nsba(iGraphics.simplified_new
Scores
p28
(dp29
g10
I100
sg11
F0.504031338888326
sg12
F258687.8361
sg13
Nsba(iGraphics.simplified_new
Scores
p30
(dp31
g10
I100
sg11
F0.5015522273709746
sg12
F255749.931
sg13
Nsba(iGraphics.simplified_new
Scores
p32
(dp33
g10
I100
sg11
F0.501798587765552
sg12
F247346.4733
sg13
Nsba(iGraphics.simplified_new
Scores
p34
(dp35
g10
I100
sg11
F0.5285779491487462
sg12
F254119.4778
sg13
Nsba(iGraphics.simplified_new
Scores
p36
(dp37
g10
I100
sg11
F0.49567462294537395
sg12
F259865.7648
sg13
Nsba(iGraphics.simplified_new
Scores
p38
(dp39
g10
I100
sg11
F0.5633454017355355
sg12
F253565.5592
sg13
Nsba(iGraphics.simplified_new
Scores
p40
(dp41
g10
I100
sg11
F0.5430367558237734
sg12
F260366.2482
sg13
Nsba(iGraphics.simplified_new
Scores
p42
(dp43
g10
I100
sg11
F0.5480090368506028
sg12
F266655.462
sg13
Nsba(iGraphics.simplified_new
Scores
p44
(dp45
g10
I100
sg11
F0.5341793354603928
sg12
F260436.4957
sg13
Nsba(iGraphics.simplified_new
Scores
p46
(dp47
g10
I100
sg11
F0.5602560295680921
sg12
F251940.3606
sg13
Nsba(iGraphics.simplified_new
Scores
p48
(dp49
g10
I100
sg11
F0.5458902682226484
sg12
F258610.5163
sg13
Nsba(iGraphics.simplified_new
Scores
p50
(dp51
g10
I100
sg11
F0.511003553204691
sg12
F265552.6604
sg13
NsbasS'algorithm'
p52
S'SPEA2'
p53
sbsS'SWAY5_1225'
p54
(iGraphics.simplified_new
SolutionHolder
p55
(dp56
g4
g5
sg6
(lp57
(iGraphics.simplified_new
Scores
p58
(dp59
g10
I19
sg11
F0.6573365771604143
sg12
F290017.9651
sg13
Nsba(iGraphics.simplified_new
Scores
p60
(dp61
g10
I19
sg11
F0.7163328987517732
sg12
F322810.7586
sg13
Nsba(iGraphics.simplified_new
Scores
p62
(dp63
g10
I19
sg11
F0.6355360666315034
sg12
F308749.469
sg13
Nsba(iGraphics.simplified_new
Scores
p64
(dp65
g10
I31
sg11
F0.5234995444952546
sg12
F302415.7348
sg13
Nsba(iGraphics.simplified_new
Scores
p66
(dp67
g10
I29
sg11
F0.5846806027917892
sg12
F314754.8918
sg13
Nsba(iGraphics.simplified_new
Scores
p68
(dp69
g10
I19
sg11
F0.6824592054263398
sg12
F272931.488
sg13
Nsba(iGraphics.simplified_new
Scores
p70
(dp71
g10
I19
sg11
F0.5828348223383161
sg12
F299147.5974
sg13
Nsba(iGraphics.simplified_new
Scores
p72
(dp73
g10
I28
sg11
F0.6572561930794281
sg12
F314442.3032
sg13
Nsba(iGraphics.simplified_new
Scores
p74
(dp75
g10
I29
sg11
F0.6566762862588902
sg12
F297615.9649
sg13
Nsba(iGraphics.simplified_new
Scores
p76
(dp77
g10
I19
sg11
F0.657508755148546
sg12
F238839.1628
sg13
Nsba(iGraphics.simplified_new
Scores
p78
(dp79
g10
I25
sg11
F0.6414943503646892
sg12
F346878.6054
sg13
Nsba(iGraphics.simplified_new
Scores
p80
(dp81
g10
I33
sg11
F0.5770469404916996
sg12
F304894.197
sg13
Nsba(iGraphics.simplified_new
Scores
p82
(dp83
g10
I28
sg11
F0.6268415039380241
sg12
F330319.3842
sg13
Nsba(iGraphics.simplified_new
Scores
p84
(dp85
g10
I19
sg11
F0.8188147970934418
sg12
F313898.5132
sg13
Nsba(iGraphics.simplified_new
Scores
p86
(dp87
g10
I28
sg11
F0.6104281561538707
sg12
F285919.4329
sg13
Nsba(iGraphics.simplified_new
Scores
p88
(dp89
g10
I29
sg11
F0.6139913436029161
sg12
F326754.1353
sg13
Nsba(iGraphics.simplified_new
Scores
p90
(dp91
g10
I29
sg11
F0.5819186146951577
sg12
F315710.9874
sg13
Nsba(iGraphics.simplified_new
Scores
p92
(dp93
g10
I28
sg11
F0.553085736850126
sg12
F306721.2335
sg13
Nsba(iGraphics.simplified_new
Scores
p94
(dp95
g10
I19
sg11
F0.5694181781512467
sg12
F306090.5828
sg13
Nsba(iGraphics.simplified_new
Scores
p96
(dp97
g10
I33
sg11
F0.6714558060680487
sg12
F294701.7514
sg13
Nsbasg52
S'SWAY5'
p98
sbsS'SWAY5_5000'
p99
(iGraphics.simplified_new
SolutionHolder
p100
(dp101
g4
g5
sg6
(lp102
(iGraphics.simplified_new
Scores
p103
(dp104
g10
I56
sg11
F0.5198991462164765
sg12
F253108.5673
sg13
Nsba(iGraphics.simplified_new
Scores
p105
(dp106
g10
I68
sg11
F0.5949731617425413
sg12
F265088.8009
sg13
Nsba(iGraphics.simplified_new
Scores
p107
(dp108
g10
I19
sg11
F0.6523131629508481
sg12
F211995.0441
sg13
Nsba(iGraphics.simplified_new
Scores
p109
(dp110
g10
I68
sg11
F0.5113360389025314
sg12
F240953.3591
sg13
Nsba(iGraphics.simplified_new
Scores
p111
(dp112
g10
I55
sg11
F0.6407745808299566
sg12
F243188.3237
sg13
Nsba(iGraphics.simplified_new
Scores
p113
(dp114
g10
I19
sg11
F0.644226394402647
sg12
F243667.0154
sg13
Nsba(iGraphics.simplified_new
Scores
p115
(dp116
g10
I58
sg11
F0.5807814721621336
sg12
F230681.2217
sg13
Nsba(iGraphics.simplified_new
Scores
p117
(dp118
g10
I29
sg11
F0.592948277816632
sg12
F220683.8535
sg13
Nsba(iGraphics.simplified_new
Scores
p119
(dp120
g10
I32
sg11
F0.5151179703898939
sg12
F216310.3245
sg13
Nsba(iGraphics.simplified_new
Scores
p121
(dp122
g10
I67
sg11
F0.536056544313229
sg12
F237047.6013
sg13
Nsba(iGraphics.simplified_new
Scores
p123
(dp124
g10
I64
sg11
F0.6179301832174796
sg12
F254858.2061
sg13
Nsba(iGraphics.simplified_new
Scores
p125
(dp126
g10
I66
sg11
F0.5150546044743353
sg12
F246289.8238
sg13
Nsba(iGraphics.simplified_new
Scores
p127
(dp128
g10
I69
sg11
F0.5521016666994882
sg12
F255402.2799
sg13
Nsba(iGraphics.simplified_new
Scores
p129
(dp130
g10
I51
sg11
F0.5516563125809613
sg12
F255803.2801
sg13
Nsba(iGraphics.simplified_new
Scores
p131
(dp132
g10
I58
sg11
F0.5657097684311506
sg12
F230976.3695
sg13
Nsba(iGraphics.simplified_new
Scores
p133
(dp134
g10
I58
sg11
F0.5622899853241915
sg12
F232776.074
sg13
Nsba(iGraphics.simplified_new
Scores
p135
(dp136
g10
I68
sg11
F0.5271214110352617
sg12
F253626.5724
sg13
Nsba(iGraphics.simplified_new
Scores
p137
(dp138
g10
I39
sg11
F0.5771072754595513
sg12
F212842.2957
sg13
Nsba(iGraphics.simplified_new
Scores
p139
(dp140
g10
I34
sg11
F0.6393021844540222
sg12
F235345.1178
sg13
Nsba(iGraphics.simplified_new
Scores
p141
(dp142
g10
I51
sg11
F0.5208698118340831
sg12
F265622.0574
sg13
Nsbasg52
S'SWAY5'
p143
sbsS'SWAY5_2500'
p144
(iGraphics.simplified_new
SolutionHolder
p145
(dp146
g4
g5
sg6
(lp147
(iGraphics.simplified_new
Scores
p148
(dp149
g10
I29
sg11
F0.5531009490261369
sg12
F347384.0697
sg13
Nsba(iGraphics.simplified_new
Scores
p150
(dp151
g10
I39
sg11
F0.5440190453585563
sg12
F358419.5817
sg13
Nsba(iGraphics.simplified_new
Scores
p152
(dp153
g10
I39
sg11
F0.5476192313816676
sg12
F336387.1825
sg13
Nsba(iGraphics.simplified_new
Scores
p154
(dp155
g10
I29
sg11
F0.6319134967301674
sg12
F363185.6951
sg13
Nsba(iGraphics.simplified_new
Scores
p156
(dp157
g10
I39
sg11
F0.6596046575362848
sg12
F368375.9077
sg13
Nsba(iGraphics.simplified_new
Scores
p158
(dp159
g10
I45
sg11
F0.5743852575610824
sg12
F368008.5904
sg13
Nsba(iGraphics.simplified_new
Scores
p160
(dp161
g10
I64
sg11
F0.5370993774218904
sg12
F351319.0963
sg13
Nsba(iGraphics.simplified_new
Scores
p162
(dp163
g10
I19
sg11
F0.6447841091091131
sg12
F348021.5475
sg13
Nsba(iGraphics.simplified_new
Scores
p164
(dp165
g10
I16
sg11
F0.671284311727289
sg12
F354122.2375
sg13
Nsba(iGraphics.simplified_new
Scores
p166
(dp167
g10
I29
sg11
F0.600491720484337
sg12
F378883.7934
sg13
Nsba(iGraphics.simplified_new
Scores
p168
(dp169
g10
I34
sg11
F0.6713207636189448
sg12
F335941.5288
sg13
Nsba(iGraphics.simplified_new
Scores
p170
(dp171
g10
I29
sg11
F0.6597635961575876
sg12
F370669.021
sg13
Nsba(iGraphics.simplified_new
Scores
p172
(dp173
g10
I30
sg11
F0.619252083302586
sg12
F367743.1864
sg13
Nsba(iGraphics.simplified_new
Scores
p174
(dp175
g10
I39
sg11
F0.5624006545428242
sg12
F349402.8298
sg13
Nsba(iGraphics.simplified_new
Scores
p176
(dp177
g10
I29
sg11
F0.6571902955192126
sg12
F361315.9628
sg13
Nsba(iGraphics.simplified_new
Scores
p178
(dp179
g10
I39
sg11
F0.6645666102708897
sg12
F391914.1864
sg13
Nsba(iGraphics.simplified_new
Scores
p180
(dp181
g10
I30
sg11
F0.6247417359742576
sg12
F360269.2881
sg13
Nsba(iGraphics.simplified_new
Scores
p182
(dp183
g10
I30
sg11
F0.6267813260826139
sg12
F366585.2124
sg13
Nsba(iGraphics.simplified_new
Scores
p184
(dp185
g10
I32
sg11
F0.6494056544542101
sg12
F338478.7311
sg13
Nsba(iGraphics.simplified_new
Scores
p186
(dp187
g10
I29
sg11
F0.6254204944234337
sg12
F341962.396
sg13
Nsbasg52
S'SWAY5'
p188
sbsS'SWAY5_10000'
p189
(iGraphics.simplified_new
SolutionHolder
p190
(dp191
g4
g5
sg6
(lp192
(iGraphics.simplified_new
Scores
p193
(dp194
g10
I77
sg11
F0.5223567319135195
sg12
F439315.8102
sg13
Nsba(iGraphics.simplified_new
Scores
p195
(dp196
g10
I51
sg11
F0.5438850115570585
sg12
F445952.0162
sg13
Nsba(iGraphics.simplified_new
Scores
p197
(dp198
g10
I39
sg11
F0.5641103958598885
sg12
F397162.176
sg13
Nsba(iGraphics.simplified_new
Scores
p199
(dp200
g10
I60
sg11
F0.6142286393647837
sg12
F419309.725
sg13
Nsba(iGraphics.simplified_new
Scores
p201
(dp202
g10
I87
sg11
F0.5254686644713364
sg12
F421509.8628
sg13
Nsba(iGraphics.simplified_new
Scores
p203
(dp204
g10
I75
sg11
F0.5154330800875963
sg12
F435417.6943
sg13
Nsba(iGraphics.simplified_new
Scores
p205
(dp206
g10
I59
sg11
F0.541354830583734
sg12
F430261.4915
sg13
Nsba(iGraphics.simplified_new
Scores
p207
(dp208
g10
I58
sg11
F0.5537662966114856
sg12
F438597.7424
sg13
Nsba(iGraphics.simplified_new
Scores
p209
(dp210
g10
I78
sg11
F0.5397804061173564
sg12
F433522.5266
sg13
Nsba(iGraphics.simplified_new
Scores
p211
(dp212
g10
I68
sg11
F0.5486964724695348
sg12
F437209.7732
sg13
Nsba(iGraphics.simplified_new
Scores
p213
(dp214
g10
I73
sg11
F0.5769238030119264
sg12
F418329.1554
sg13
Nsba(iGraphics.simplified_new
Scores
p215
(dp216
g10
I59
sg11
F0.4755789999445949
sg12
F436701.8081
sg13
Nsba(iGraphics.simplified_new
Scores
p217
(dp218
g10
I32
sg11
F0.6055447121526621
sg12
F377104.1621
sg13
Nsba(iGraphics.simplified_new
Scores
p219
(dp220
g10
I78
sg11
F0.5866165821426584
sg12
F451367.3494
sg13
Nsba(iGraphics.simplified_new
Scores
p221
(dp222
g10
I96
sg11
F0.5324459167913879
sg12
F455069.5042
sg13
Nsba(iGraphics.simplified_new
Scores
p223
(dp224
g10
I93
sg11
F0.5045532392954843
sg12
F422715.6663
sg13
Nsba(iGraphics.simplified_new
Scores
p225
(dp226
g10
I34
sg11
F0.5322150284043047
sg12
F390704.087
sg13
Nsba(iGraphics.simplified_new
Scores
p227
(dp228
g10
I29
sg11
F0.6390551796193659
sg12
F385287.9096
sg13
Nsba(iGraphics.simplified_new
Scores
p229
(dp230
g10
I55
sg11
F0.5298408334895688
sg12
F392314.2963
sg13
Nsba(iGraphics.simplified_new
Scores
p231
(dp232
g10
I78
sg11
F0.5288085671878674
sg12
F430557.9021
sg13
Nsbasg52
S'SWAY5'
p233
sbsS'NSGAII_100'
p234
(iGraphics.simplified_new
SolutionHolder
p235
(dp236
g4
g5
sg6
(lp237
(iGraphics.simplified_new
Scores
p238
(dp239
g10
I100
sg11
F0.672214901761006
sg12
F253894.2883
sg13
Nsba(iGraphics.simplified_new
Scores
p240
(dp241
g10
I100
sg11
F0.63607726492486
sg12
F251289.9486
sg13
Nsba(iGraphics.simplified_new
Scores
p242
(dp243
g10
I100
sg11
F0.7114971198061427
sg12
F262160.9174
sg13
Nsba(iGraphics.simplified_new
Scores
p244
(dp245
g10
I100
sg11
F0.6513480355718385
sg12
F258000.7227
sg13
Nsba(iGraphics.simplified_new
Scores
p246
(dp247
g10
I100
sg11
F0.6328693825309649
sg12
F263303.5392
sg13
Nsba(iGraphics.simplified_new
Scores
p248
(dp249
g10
I100
sg11
F0.6425931390188923
sg12
F258073.796
sg13
Nsba(iGraphics.simplified_new
Scores
p250
(dp251
g10
I100
sg11
F0.6563505280664248
sg12
F255529.319
sg13
Nsba(iGraphics.simplified_new
Scores
p252
(dp253
g10
I100
sg11
F0.5803262233307966
sg12
F261937.7101
sg13
Nsba(iGraphics.simplified_new
Scores
p254
(dp255
g10
I100
sg11
F0.6771088434083401
sg12
F257682.2703
sg13
Nsba(iGraphics.simplified_new
Scores
p256
(dp257
g10
I100
sg11
F0.6753827191613186
sg12
F254626.2341
sg13
Nsba(iGraphics.simplified_new
Scores
p258
(dp259
g10
I100
sg11
F0.5694154300000464
sg12
F256680.401
sg13
Nsba(iGraphics.simplified_new
Scores
p260
(dp261
g10
I100
sg11
F0.5829248883972649
sg12
F249381.4771
sg13
Nsba(iGraphics.simplified_new
Scores
p262
(dp263
g10
I100
sg11
F0.6135340328324698
sg12
F258799.1742
sg13
Nsba(iGraphics.simplified_new
Scores
p264
(dp265
g10
I100
sg11
F0.6369693482616293
sg12
F255105.9791
sg13
Nsba(iGraphics.simplified_new
Scores
p266
(dp267
g10
I100
sg11
F0.6807886551973972
sg12
F265452.5168
sg13
Nsba(iGraphics.simplified_new
Scores
p268
(dp269
g10
I100
sg11
F0.6413905088360216
sg12
F253452.3758
sg13
Nsba(iGraphics.simplified_new
Scores
p270
(dp271
g10
I100
sg11
F0.6566801308322945
sg12
F258753.0651
sg13
Nsba(iGraphics.simplified_new
Scores
p272
(dp273
g10
I100
sg11
F0.6530677596457974
sg12
F258456.8798
sg13
Nsba(iGraphics.simplified_new
Scores
p274
(dp275
g10
I100
sg11
F0.5882418242674623
sg12
F262283.939
sg13
Nsba(iGraphics.simplified_new
Scores
p276
(dp277
g10
I100
sg11
F0.6844677603821154
sg12
F261510.148
sg13
Nsbasg52
S'NSGAII'
p278
sbs.