(dp0
S'NSGAII_100'
p1
(iGraphics.simplified_new
SolutionHolder
p2
(dp3
S'problem'
p4
S'MONRP_50_4_5_0_110'
p5
sS'repeats'
p6
(lp7
(iGraphics.simplified_new
Scores
p8
(dp9
S'pfs'
p10
I53
sS'spread'
p11
F0.5821837012689233
sS'hv'
p12
F585572.3941
sS'igd'
p13
Nsba(iGraphics.simplified_new
Scores
p14
(dp15
g10
I58
sg11
F0.5523460248599994
sg12
F571511.953
sg13
Nsba(iGraphics.simplified_new
Scores
p16
(dp17
g10
I44
sg11
F0.806085914638985
sg12
F521636.6572
sg13
Nsba(iGraphics.simplified_new
Scores
p18
(dp19
g10
I44
sg11
F0.6508079695797281
sg12
F498891.8663
sg13
Nsba(iGraphics.simplified_new
Scores
p20
(dp21
g10
I36
sg11
F0.5677823806945063
sg12
F510393.3114
sg13
Nsba(iGraphics.simplified_new
Scores
p22
(dp23
g10
I51
sg11
F0.6551341421596444
sg12
F570261.3828
sg13
Nsba(iGraphics.simplified_new
Scores
p24
(dp25
g10
I53
sg11
F0.6053765387031382
sg12
F602857.5358
sg13
Nsba(iGraphics.simplified_new
Scores
p26
(dp27
g10
I54
sg11
F0.5415460255529311
sg12
F589255.522
sg13
Nsba(iGraphics.simplified_new
Scores
p28
(dp29
g10
I54
sg11
F0.6364811156005424
sg12
F577540.9583
sg13
Nsba(iGraphics.simplified_new
Scores
p30
(dp31
g10
I40
sg11
F0.6670391371191868
sg12
F484961.8342
sg13
Nsba(iGraphics.simplified_new
Scores
p32
(dp33
g10
I58
sg11
F0.5205490793575007
sg12
F525039.888
sg13
Nsba(iGraphics.simplified_new
Scores
p34
(dp35
g10
I58
sg11
F0.5149420611836308
sg12
F594740.1428
sg13
Nsba(iGraphics.simplified_new
Scores
p36
(dp37
g10
I46
sg11
F0.5626829700347759
sg12
F560313.9997
sg13
Nsba(iGraphics.simplified_new
Scores
p38
(dp39
g10
I23
sg11
F0.8880019539511971
sg12
F543704.1441
sg13
Nsba(iGraphics.simplified_new
Scores
p40
(dp41
g10
I48
sg11
F0.5226569165853278
sg12
F528506.7513
sg13
Nsba(iGraphics.simplified_new
Scores
p42
(dp43
g10
I43
sg11
F0.7146030646228485
sg12
F486518.0841
sg13
Nsba(iGraphics.simplified_new
Scores
p44
(dp45
g10
I40
sg11
F0.510601705158769
sg12
F594126.933
sg13
Nsba(iGraphics.simplified_new
Scores
p46
(dp47
g10
I62
sg11
F0.6037696870838857
sg12
F536554.243
sg13
Nsba(iGraphics.simplified_new
Scores
p48
(dp49
g10
I38
sg11
F0.5010723729592093
sg12
F520768.4536
sg13
Nsba(iGraphics.simplified_new
Scores
p50
(dp51
g10
I45
sg11
F0.6218357306597779
sg12
F427804.6494
sg13
NsbasS'algorithm'
p52
S'NSGAII'
p53
sbsS'SPEA2_100'
p54
(iGraphics.simplified_new
SolutionHolder
p55
(dp56
g4
g5
sg6
(lp57
(iGraphics.simplified_new
Scores
p58
(dp59
g10
I19
sg11
F0.7021326527571063
sg12
F489869.1127
sg13
Nsba(iGraphics.simplified_new
Scores
p60
(dp61
g10
I52
sg11
F0.5050304135498517
sg12
F610916.6773
sg13
Nsba(iGraphics.simplified_new
Scores
p62
(dp63
g10
I45
sg11
F0.6523438584105952
sg12
F571521.7212
sg13
Nsba(iGraphics.simplified_new
Scores
p64
(dp65
g10
I39
sg11
F0.5521281287651777
sg12
F600907.9654
sg13
Nsba(iGraphics.simplified_new
Scores
p66
(dp67
g10
I41
sg11
F0.5555099476710614
sg12
F489303.0222
sg13
Nsba(iGraphics.simplified_new
Scores
p68
(dp69
g10
I51
sg11
F0.5654824677565103
sg12
F579743.7857
sg13
Nsba(iGraphics.simplified_new
Scores
p70
(dp71
g10
I48
sg11
F0.5835345512839649
sg12
F611034.82
sg13
Nsba(iGraphics.simplified_new
Scores
p72
(dp73
g10
I34
sg11
F0.48680376576426543
sg12
F576813.6102
sg13
Nsba(iGraphics.simplified_new
Scores
p74
(dp75
g10
I37
sg11
F0.5327323999870606
sg12
F570485.0811
sg13
Nsba(iGraphics.simplified_new
Scores
p76
(dp77
g10
I30
sg11
F0.5446488375155631
sg12
F479384.1367
sg13
Nsba(iGraphics.simplified_new
Scores
p78
(dp79
g10
I40
sg11
F0.6137963831086213
sg12
F517543.3678
sg13
Nsba(iGraphics.simplified_new
Scores
p80
(dp81
g10
I58
sg11
F0.5932919845902827
sg12
F574269.7188
sg13
Nsba(iGraphics.simplified_new
Scores
p82
(dp83
g10
I54
sg11
F0.5274858994040756
sg12
F593621.0824
sg13
Nsba(iGraphics.simplified_new
Scores
p84
(dp85
g10
I49
sg11
F0.47101907512393415
sg12
F545985.0693
sg13
Nsba(iGraphics.simplified_new
Scores
p86
(dp87
g10
I67
sg11
F0.4613197027160137
sg12
F617952.2146
sg13
Nsba(iGraphics.simplified_new
Scores
p88
(dp89
g10
I42
sg11
F0.5722599368549964
sg12
F548307.3919
sg13
Nsba(iGraphics.simplified_new
Scores
p90
(dp91
g10
I44
sg11
F0.5161607821743105
sg12
F588769.3418
sg13
Nsba(iGraphics.simplified_new
Scores
p92
(dp93
g10
I52
sg11
F0.4858308012077022
sg12
F531521.7657
sg13
Nsba(iGraphics.simplified_new
Scores
p94
(dp95
g10
I32
sg11
F0.5241361651494394
sg12
F477607.1111
sg13
Nsba(iGraphics.simplified_new
Scores
p96
(dp97
g10
I42
sg11
F0.6028604475917057
sg12
F562961.8421
sg13
Nsbasg52
S'SPEA2'
p98
sbsS'SPEA2SC_100'
p99
(iGraphics.simplified_new
SolutionHolder
p100
(dp101
g4
g5
sg6
(lp102
(iGraphics.simplified_new
Scores
p103
(dp104
g10
I16
sg11
F0.6995738608399131
sg12
F458328.6905
sg13
Nsba(iGraphics.simplified_new
Scores
p105
(dp106
g10
I15
sg11
F0.7706052834720013
sg12
F469923.2392
sg13
Nsba(iGraphics.simplified_new
Scores
p107
(dp108
g10
I15
sg11
F0.7425360627451174
sg12
F465931.7782
sg13
Nsba(iGraphics.simplified_new
Scores
p109
(dp110
g10
I28
sg11
F0.5598810408841945
sg12
F494290.5234
sg13
Nsba(iGraphics.simplified_new
Scores
p111
(dp112
g10
I29
sg11
F0.6008996712776578
sg12
F419233.5579
sg13
Nsba(iGraphics.simplified_new
Scores
p113
(dp114
g10
I19
sg11
F0.606920977781654
sg12
F498192.5495
sg13
Nsba(iGraphics.simplified_new
Scores
p115
(dp116
g10
I28
sg11
F0.5002106841225126
sg12
F583960.1568
sg13
Nsba(iGraphics.simplified_new
Scores
p117
(dp118
g10
I17
sg11
F0.551313500301806
sg12
F483188.3295
sg13
Nsba(iGraphics.simplified_new
Scores
p119
(dp120
g10
I18
sg11
F0.6001768238125245
sg12
F539236.3139
sg13
Nsba(iGraphics.simplified_new
Scores
p121
(dp122
g10
I17
sg11
F0.6392472309410753
sg12
F536154.29
sg13
Nsba(iGraphics.simplified_new
Scores
p123
(dp124
g10
I12
sg11
F0.5186816526907273
sg12
F414825.8041
sg13
Nsba(iGraphics.simplified_new
Scores
p125
(dp126
g10
I19
sg11
F0.7407254951106287
sg12
F485157.5994
sg13
Nsba(iGraphics.simplified_new
Scores
p127
(dp128
g10
I29
sg11
F0.6250731590685608
sg12
F523397.9417
sg13
Nsba(iGraphics.simplified_new
Scores
p129
(dp130
g10
I32
sg11
F0.5469946765494381
sg12
F527112.0013
sg13
Nsba(iGraphics.simplified_new
Scores
p131
(dp132
g10
I24
sg11
F0.7576521384577641
sg12
F523718.5259
sg13
Nsba(iGraphics.simplified_new
Scores
p133
(dp134
g10
I22
sg11
F0.6236897595642099
sg12
F541209.918
sg13
Nsba(iGraphics.simplified_new
Scores
p135
(dp136
g10
I8
sg11
F0.9331274952299466
sg12
F494766.8869
sg13
Nsba(iGraphics.simplified_new
Scores
p137
(dp138
g10
I7
sg11
F0.7897944443941686
sg12
F449943.9676
sg13
Nsba(iGraphics.simplified_new
Scores
p139
(dp140
g10
I31
sg11
F0.5271708873925701
sg12
F541245.3915
sg13
Nsba(iGraphics.simplified_new
Scores
p141
(dp142
g10
I33
sg11
F0.6529514142006057
sg12
F554633.3554
sg13
Nsbasg52
S'SPEA2SC'
p143
sbsS'NSGAIISC_100'
p144
(iGraphics.simplified_new
SolutionHolder
p145
(dp146
g4
g5
sg6
(lp147
(iGraphics.simplified_new
Scores
p148
(dp149
g10
I14
sg11
F0.961016593636756
sg12
F447298.3956
sg13
Nsba(iGraphics.simplified_new
Scores
p150
(dp151
g10
I21
sg11
F0.8269575383584153
sg12
F470988.8781
sg13
Nsba(iGraphics.simplified_new
Scores
p152
(dp153
g10
I34
sg11
F0.8399774713434821
sg12
F573838.1905
sg13
Nsba(iGraphics.simplified_new
Scores
p154
(dp155
g10
I13
sg11
F0.7805029753458236
sg12
F308607.7647
sg13
Nsba(iGraphics.simplified_new
Scores
p156
(dp157
g10
I24
sg11
F0.7409101489343414
sg12
F570868.0508
sg13
Nsba(iGraphics.simplified_new
Scores
p158
(dp159
g10
I24
sg11
F1.1595795757370448
sg12
F496227.3439
sg13
Nsba(iGraphics.simplified_new
Scores
p160
(dp161
g10
I9
sg11
F0.9542421590741541
sg12
F474800.1125
sg13
Nsba(iGraphics.simplified_new
Scores
p162
(dp163
g10
I27
sg11
F0.6169339610299865
sg12
F516192.2766
sg13
Nsba(iGraphics.simplified_new
Scores
p164
(dp165
g10
I16
sg11
F0.7721035677148623
sg12
F485199.0032
sg13
Nsba(iGraphics.simplified_new
Scores
p166
(dp167
g10
I14
sg11
F0.684068341753441
sg12
F374285.4941
sg13
Nsba(iGraphics.simplified_new
Scores
p168
(dp169
g10
I26
sg11
F0.6736731599296991
sg12
F506669.7043
sg13
Nsba(iGraphics.simplified_new
Scores
p170
(dp171
g10
I24
sg11
F0.6567329466747985
sg12
F543645.6316
sg13
Nsba(iGraphics.simplified_new
Scores
p172
(dp173
g10
I25
sg11
F0.7385855372018377
sg12
F506959.405
sg13
Nsba(iGraphics.simplified_new
Scores
p174
(dp175
g10
I18
sg11
F1.1672371003103041
sg12
F461324.0108
sg13
Nsba(iGraphics.simplified_new
Scores
p176
(dp177
g10
I16
sg11
F0.7237564572558056
sg12
F470432.7917
sg13
Nsba(iGraphics.simplified_new
Scores
p178
(dp179
g10
I14
sg11
F0.7331188933668074
sg12
F479789.3396
sg13
Nsba(iGraphics.simplified_new
Scores
p180
(dp181
g10
I29
sg11
F0.5694829983728265
sg12
F562072.7038
sg13
Nsba(iGraphics.simplified_new
Scores
p182
(dp183
g10
I27
sg11
F0.8318195680136221
sg12
F511967.378
sg13
Nsba(iGraphics.simplified_new
Scores
p184
(dp185
g10
I10
sg11
F0.9422168551589862
sg12
F479487.635
sg13
Nsba(iGraphics.simplified_new
Scores
p186
(dp187
g10
I34
sg11
F0.7009596280445173
sg12
F490077.6683
sg13
Nsbasg52
S'NSGAIISC'
p188
sbsS'SWAY5_10000'
p189
(iGraphics.simplified_new
SolutionHolder
p190
(dp191
g4
g5
sg6
(lp192
(iGraphics.simplified_new
Scores
p193
(dp194
g10
I75
sg11
F0.4947199136496243
sg12
F381143.3839
sg13
Nsba(iGraphics.simplified_new
Scores
p195
(dp196
g10
I77
sg11
F0.46490249271906076
sg12
F335511.021
sg13
Nsba(iGraphics.simplified_new
Scores
p197
(dp198
g10
I77
sg11
F0.4248185454302197
sg12
F352830.6115
sg13
Nsba(iGraphics.simplified_new
Scores
p199
(dp200
g10
I78
sg11
F0.5294309342244659
sg12
F366354.3964
sg13
Nsba(iGraphics.simplified_new
Scores
p201
(dp202
g10
I76
sg11
F0.546621648502904
sg12
F360133.6773
sg13
Nsba(iGraphics.simplified_new
Scores
p203
(dp204
g10
I78
sg11
F0.45579972475975467
sg12
F362540.5116
sg13
Nsba(iGraphics.simplified_new
Scores
p205
(dp206
g10
I79
sg11
F0.5168532443004203
sg12
F367660.637
sg13
Nsba(iGraphics.simplified_new
Scores
p207
(dp208
g10
I78
sg11
F0.4389819498152007
sg12
F330399.7452
sg13
Nsba(iGraphics.simplified_new
Scores
p209
(dp210
g10
I76
sg11
F0.5211711766083847
sg12
F368248.6317
sg13
Nsba(iGraphics.simplified_new
Scores
p211
(dp212
g10
I78
sg11
F0.530806848637014
sg12
F387503.8735
sg13
Nsba(iGraphics.simplified_new
Scores
p213
(dp214
g10
I78
sg11
F0.4759735588224854
sg12
F359823.332
sg13
Nsba(iGraphics.simplified_new
Scores
p215
(dp216
g10
I77
sg11
F0.5215001235076123
sg12
F373780.0498
sg13
Nsba(iGraphics.simplified_new
Scores
p217
(dp218
g10
I78
sg11
F0.5487159536251918
sg12
F358977.8952
sg13
Nsba(iGraphics.simplified_new
Scores
p219
(dp220
g10
I79
sg11
F0.4789931953327814
sg12
F373155.756
sg13
Nsba(iGraphics.simplified_new
Scores
p221
(dp222
g10
I79
sg11
F0.4847076212806591
sg12
F351965.4676
sg13
Nsba(iGraphics.simplified_new
Scores
p223
(dp224
g10
I76
sg11
F0.4393717327481034
sg12
F386763.7391
sg13
Nsba(iGraphics.simplified_new
Scores
p225
(dp226
g10
I75
sg11
F0.47643315882970233
sg12
F336007.849
sg13
Nsba(iGraphics.simplified_new
Scores
p227
(dp228
g10
I78
sg11
F0.5417197657719778
sg12
F358323.9175
sg13
Nsba(iGraphics.simplified_new
Scores
p229
(dp230
g10
I77
sg11
F0.480755925670473
sg12
F376616.8239
sg13
Nsba(iGraphics.simplified_new
Scores
p231
(dp232
g10
I78
sg11
F0.5576822719342162
sg12
F341680.3169
sg13
Nsbasg52
S'SWAY5'
p233
sbs.