(dp0
S'SWAY5_2500'
p1
(iGraphics.simplified_new
SolutionHolder
p2
(dp3
S'problem'
p4
S'MONRP_50_4_5_4_110'
p5
sS'repeats'
p6
(lp7
(iGraphics.simplified_new
Scores
p8
(dp9
S'pfs'
p10
I29
sS'spread'
p11
F0.5905299510878672
sS'hv'
p12
F279511.0295
sS'igd'
p13
Nsba(iGraphics.simplified_new
Scores
p14
(dp15
g10
I27
sg11
F0.6168183137194585
sg12
F312266.2511
sg13
Nsba(iGraphics.simplified_new
Scores
p16
(dp17
g10
I29
sg11
F0.6033227486587839
sg12
F330489.5949
sg13
Nsba(iGraphics.simplified_new
Scores
p18
(dp19
g10
I30
sg11
F0.6785789070414429
sg12
F362133.0968
sg13
Nsba(iGraphics.simplified_new
Scores
p20
(dp21
g10
I36
sg11
F0.5699429953661718
sg12
F355995.7489
sg13
Nsba(iGraphics.simplified_new
Scores
p22
(dp23
g10
I32
sg11
F0.5305269488977757
sg12
F320460.8087
sg13
Nsba(iGraphics.simplified_new
Scores
p24
(dp25
g10
I22
sg11
F0.4693426585873028
sg12
F334249.9207
sg13
Nsba(iGraphics.simplified_new
Scores
p26
(dp27
g10
I29
sg11
F0.5897256112018843
sg12
F302832.9881
sg13
Nsba(iGraphics.simplified_new
Scores
p28
(dp29
g10
I19
sg11
F0.6331545024382844
sg12
F272929.6119
sg13
Nsba(iGraphics.simplified_new
Scores
p30
(dp31
g10
I44
sg11
F0.5654095050398495
sg12
F328540.5317
sg13
Nsba(iGraphics.simplified_new
Scores
p32
(dp33
g10
I28
sg11
F0.5372378715937512
sg12
F302756.8797
sg13
Nsba(iGraphics.simplified_new
Scores
p34
(dp35
g10
I39
sg11
F0.38286920573113525
sg12
F349450.9368
sg13
Nsba(iGraphics.simplified_new
Scores
p36
(dp37
g10
I19
sg11
F0.6142972042761479
sg12
F302129.233
sg13
Nsba(iGraphics.simplified_new
Scores
p38
(dp39
g10
I39
sg11
F0.5346458716227743
sg12
F338392.5697
sg13
Nsba(iGraphics.simplified_new
Scores
p40
(dp41
g10
I29
sg11
F0.7135212743629638
sg12
F309173.452
sg13
Nsba(iGraphics.simplified_new
Scores
p42
(dp43
g10
I26
sg11
F0.6285611108321703
sg12
F349029.9678
sg13
Nsba(iGraphics.simplified_new
Scores
p44
(dp45
g10
I29
sg11
F0.5936992593436272
sg12
F336752.9006
sg13
Nsba(iGraphics.simplified_new
Scores
p46
(dp47
g10
I48
sg11
F0.6243808493085655
sg12
F343428.6881
sg13
Nsba(iGraphics.simplified_new
Scores
p48
(dp49
g10
I37
sg11
F0.5295459268757563
sg12
F343159.8901
sg13
Nsba(iGraphics.simplified_new
Scores
p50
(dp51
g10
I25
sg11
F0.5898940315912875
sg12
F328230.844
sg13
NsbasS'algorithm'
p52
S'SWAY5'
p53
sbsS'SWAY5_10000'
p54
(iGraphics.simplified_new
SolutionHolder
p55
(dp56
g4
g5
sg6
(lp57
(iGraphics.simplified_new
Scores
p58
(dp59
g10
I94
sg11
F0.5419848839761329
sg12
F584285.0848
sg13
Nsba(iGraphics.simplified_new
Scores
p60
(dp61
g10
I68
sg11
F0.5738062299383798
sg12
F505063.9239
sg13
Nsba(iGraphics.simplified_new
Scores
p62
(dp63
g10
I96
sg11
F0.5084103406165518
sg12
F584597.7318
sg13
Nsba(iGraphics.simplified_new
Scores
p64
(dp65
g10
I58
sg11
F0.534409484861903
sg12
F518807.1091
sg13
Nsba(iGraphics.simplified_new
Scores
p66
(dp67
g10
I90
sg11
F0.5177250781674836
sg12
F540531.2752
sg13
Nsba(iGraphics.simplified_new
Scores
p68
(dp69
g10
I37
sg11
F0.624198530661077
sg12
F520461.0383
sg13
Nsba(iGraphics.simplified_new
Scores
p70
(dp71
g10
I39
sg11
F0.6079879976950787
sg12
F524218.4831
sg13
Nsba(iGraphics.simplified_new
Scores
p72
(dp73
g10
I39
sg11
F0.5970529738647337
sg12
F431020.6434
sg13
Nsba(iGraphics.simplified_new
Scores
p74
(dp75
g10
I33
sg11
F0.5293380789567007
sg12
F465558.4207
sg13
Nsba(iGraphics.simplified_new
Scores
p76
(dp77
g10
I68
sg11
F0.5204370541517963
sg12
F545607.9694
sg13
Nsba(iGraphics.simplified_new
Scores
p78
(dp79
g10
I29
sg11
F0.5786502688148729
sg12
F492457.8573
sg13
Nsba(iGraphics.simplified_new
Scores
p80
(dp81
g10
I55
sg11
F0.5461016809809828
sg12
F537874.4317
sg13
Nsba(iGraphics.simplified_new
Scores
p82
(dp83
g10
I68
sg11
F0.6288196746485869
sg12
F494969.2662
sg13
Nsba(iGraphics.simplified_new
Scores
p84
(dp85
g10
I83
sg11
F0.5155610467908748
sg12
F542850.4038
sg13
Nsba(iGraphics.simplified_new
Scores
p86
(dp87
g10
I54
sg11
F0.5239240718937751
sg12
F540629.1415
sg13
Nsba(iGraphics.simplified_new
Scores
p88
(dp89
g10
I68
sg11
F0.5145803200913031
sg12
F508589.3166
sg13
Nsba(iGraphics.simplified_new
Scores
p90
(dp91
g10
I85
sg11
F0.55608920885598
sg12
F542035.5909
sg13
Nsba(iGraphics.simplified_new
Scores
p92
(dp93
g10
I58
sg11
F0.5139611708092721
sg12
F519053.9866
sg13
Nsba(iGraphics.simplified_new
Scores
p94
(dp95
g10
I33
sg11
F0.49832054592416425
sg12
F520086.0272
sg13
Nsba(iGraphics.simplified_new
Scores
p96
(dp97
g10
I77
sg11
F0.6077342317811667
sg12
F500957.1227
sg13
Nsbasg52
S'SWAY5'
p98
sbsS'SWAY5_1225'
p99
(iGraphics.simplified_new
SolutionHolder
p100
(dp101
g4
g5
sg6
(lp102
(iGraphics.simplified_new
Scores
p103
(dp104
g10
I19
sg11
F0.6768104045795716
sg12
F122938.6075
sg13
Nsba(iGraphics.simplified_new
Scores
p105
(dp106
g10
I33
sg11
F0.539549612656852
sg12
F149732.9856
sg13
Nsba(iGraphics.simplified_new
Scores
p107
(dp108
g10
I20
sg11
F0.5060307631312995
sg12
F140826.6219
sg13
Nsba(iGraphics.simplified_new
Scores
p109
(dp110
g10
I29
sg11
F0.5287356373873875
sg12
F145249.329
sg13
Nsba(iGraphics.simplified_new
Scores
p111
(dp112
g10
I19
sg11
F0.6898828776136149
sg12
F131182.9296
sg13
Nsba(iGraphics.simplified_new
Scores
p113
(dp114
g10
I29
sg11
F0.5728456832138749
sg12
F154544.3482
sg13
Nsba(iGraphics.simplified_new
Scores
p115
(dp116
g10
I22
sg11
F0.562887523321363
sg12
F127550.0498
sg13
Nsba(iGraphics.simplified_new
Scores
p117
(dp118
g10
I22
sg11
F0.5250114974924196
sg12
F125146.5719
sg13
Nsba(iGraphics.simplified_new
Scores
p119
(dp120
g10
I33
sg11
F0.511970116646162
sg12
F151616.563
sg13
Nsba(iGraphics.simplified_new
Scores
p121
(dp122
g10
I29
sg11
F0.5779115430283699
sg12
F138736.2884
sg13
Nsba(iGraphics.simplified_new
Scores
p123
(dp124
g10
I19
sg11
F0.6371642497253297
sg12
F127007.305
sg13
Nsba(iGraphics.simplified_new
Scores
p125
(dp126
g10
I33
sg11
F0.6901295100127053
sg12
F142600.9406
sg13
Nsba(iGraphics.simplified_new
Scores
p127
(dp128
g10
I34
sg11
F0.7236062550927633
sg12
F146019.6714
sg13
Nsba(iGraphics.simplified_new
Scores
p129
(dp130
g10
I26
sg11
F0.5194463450164846
sg12
F146403.7594
sg13
Nsba(iGraphics.simplified_new
Scores
p131
(dp132
g10
I19
sg11
F0.5292448699006641
sg12
F150337.929
sg13
Nsba(iGraphics.simplified_new
Scores
p133
(dp134
g10
I19
sg11
F0.6402009974772028
sg12
F131823.338
sg13
Nsba(iGraphics.simplified_new
Scores
p135
(dp136
g10
I19
sg11
F0.6441742419289678
sg12
F126416.5271
sg13
Nsba(iGraphics.simplified_new
Scores
p137
(dp138
g10
I19
sg11
F0.6115086981522431
sg12
F157597.3498
sg13
Nsba(iGraphics.simplified_new
Scores
p139
(dp140
g10
I19
sg11
F0.6672734432297399
sg12
F126876.166
sg13
Nsba(iGraphics.simplified_new
Scores
p141
(dp142
g10
I19
sg11
F0.49418364082135907
sg12
F134887.0628
sg13
Nsbasg52
S'SWAY5'
p143
sbsS'SWAY5_5000'
p144
(iGraphics.simplified_new
SolutionHolder
p145
(dp146
g4
g5
sg6
(lp147
(iGraphics.simplified_new
Scores
p148
(dp149
g10
I34
sg11
F0.5326285839659359
sg12
F829861.6604
sg13
Nsba(iGraphics.simplified_new
Scores
p150
(dp151
g10
I58
sg11
F0.5479064420921788
sg12
F830081.2949
sg13
Nsba(iGraphics.simplified_new
Scores
p152
(dp153
g10
I36
sg11
F0.5529309793925155
sg12
F782868.8669
sg13
Nsba(iGraphics.simplified_new
Scores
p154
(dp155
g10
I39
sg11
F0.620012962009768
sg12
F791995.3292
sg13
Nsba(iGraphics.simplified_new
Scores
p156
(dp157
g10
I44
sg11
F0.6229013533487214
sg12
F861462.7485
sg13
Nsba(iGraphics.simplified_new
Scores
p158
(dp159
g10
I36
sg11
F0.5068937116226214
sg12
F800394.9941
sg13
Nsba(iGraphics.simplified_new
Scores
p160
(dp161
g10
I42
sg11
F0.5667451239689615
sg12
F815231.5531
sg13
Nsba(iGraphics.simplified_new
Scores
p162
(dp163
g10
I39
sg11
F0.5879845396585801
sg12
F822578.2486
sg13
Nsba(iGraphics.simplified_new
Scores
p164
(dp165
g10
I35
sg11
F0.5750036922978516
sg12
F799330.7126
sg13
Nsba(iGraphics.simplified_new
Scores
p166
(dp167
g10
I68
sg11
F0.5923751696278936
sg12
F838581.6179
sg13
Nsba(iGraphics.simplified_new
Scores
p168
(dp169
g10
I69
sg11
F0.5874852217356102
sg12
F886772.4301
sg13
Nsba(iGraphics.simplified_new
Scores
p170
(dp171
g10
I54
sg11
F0.6195062978993671
sg12
F803323.5288
sg13
Nsba(iGraphics.simplified_new
Scores
p172
(dp173
g10
I49
sg11
F0.5305238644324989
sg12
F896873.1193
sg13
Nsba(iGraphics.simplified_new
Scores
p174
(dp175
g10
I68
sg11
F0.6127387042075125
sg12
F845601.3788
sg13
Nsba(iGraphics.simplified_new
Scores
p176
(dp177
g10
I59
sg11
F0.5840670904784022
sg12
F805428.9795
sg13
Nsba(iGraphics.simplified_new
Scores
p178
(dp179
g10
I39
sg11
F0.5841130401613142
sg12
F838120.8771
sg13
Nsba(iGraphics.simplified_new
Scores
p180
(dp181
g10
I59
sg11
F0.586665964254037
sg12
F831415.7015
sg13
Nsba(iGraphics.simplified_new
Scores
p182
(dp183
g10
I67
sg11
F0.6031919590618003
sg12
F882775.3735
sg13
Nsba(iGraphics.simplified_new
Scores
p184
(dp185
g10
I38
sg11
F0.564036836777087
sg12
F847711.4568
sg13
Nsba(iGraphics.simplified_new
Scores
p186
(dp187
g10
I39
sg11
F0.5761440809753071
sg12
F709301.5121
sg13
Nsbasg52
S'SWAY5'
p188
sbs.