(dp0
S'MONRP_50_4_5_0_110'
p1
(dp2
S'Spread'
p3
(lp4
(lp5
S'SPEA2_100'
p6
aF0.6152884040120629
aF0.5150373188116439
aF0.5505483858320176
aF0.4748220772512929
aF0.5214836312970456
aF0.516804341459044
aF0.5422809805445807
aF0.4974153039432573
aF0.5187995254176314
aF0.5396506157515213
aF0.489172452261753
aF0.5095983950196911
aF0.5337482251056085
aF0.5436239600809598
aF0.5393163068103803
aF0.580790309998912
aF0.5721966918589646
aF0.5431615035830133
aF0.5111235595691389
aF0.5066160738270635
aa(lp7
S'SWAY5_1225'
p8
aF0.7166793022744933
aF0.7002892974921346
aF0.6229566835138066
aF0.7140792978048784
aF0.747897615328925
aF0.6227419670292252
aF0.6532386040345304
aF0.7091842001965121
aF0.6893221558571127
aF0.6587329604160005
aF0.7275951945073713
aF0.632170100404821
aF0.7298630558849771
aF0.6219406171207179
aF0.6954323005088539
aF0.6535056468400392
aF0.7366327975671529
aF0.6927795388237968
aF0.565294093572054
aF0.6977495249313143
aa(lp9
S'SWAY5_5000'
p10
aF0.6339182651534419
aF0.5402479460178012
aF0.645629035763965
aF0.5244906026720496
aF0.6054540241769165
aF0.5950584111504357
aF0.6776256887738846
aF0.596862742642622
aF0.5831141122546821
aF0.6439449429153111
aF0.6300391985288346
aF0.6570314038340103
aF0.5857878092034335
aF0.6922264415061858
aF0.5756742498749954
aF0.665797184491287
aF0.5668978695491654
aF0.6222324125527384
aF0.5706987742603623
aF0.6835755686818145
aa(lp11
S'SWAY5_2500'
p12
aF0.6677346446596564
aF0.6104541673940806
aF0.6918654068968475
aF0.6540933009543828
aF0.6760805307131385
aF0.6291606366023564
aF0.5048401519824037
aF0.6136825382533363
aF0.6649537919138085
aF0.5625274162196743
aF0.6276360891120016
aF0.5678516389443774
aF0.5724172016845014
aF0.6231792682953406
aF0.49599398108703396
aF0.6366741229861812
aF0.6059075998514373
aF0.6177799693511571
aF0.5902586104041803
aF0.5808411049128209
aa(lp13
S'SWAY5_10000'
p14
aF0.5464751834516101
aF0.5263108528960424
aF0.5679016325139652
aF0.5405109150029388
aF0.5928500340517259
aF0.6130279666492977
aF0.5196486176336231
aF0.5957153849303681
aF0.5502680852465311
aF0.5242873231592104
aF0.5644718888006196
aF0.5156593809283899
aF0.5257542155457551
aF0.5524472831677409
aF0.5240578700650916
aF0.6105525847830375
aF0.6712176762601887
aF0.5932059094472467
aF0.5196542532054028
aF0.5012224855015233
aa(lp15
S'NSGAII_100'
p16
aF0.6308783122151675
aF0.5883931975842283
aF0.6615099416087258
aF0.6615621149792072
aF0.7138443575505848
aF0.593369206933803
aF0.5644282549253917
aF0.6317742344879077
aF0.660013049541891
aF0.6307096343565461
aF0.6232337106594693
aF0.6131467433104172
aF0.5843247750800109
aF0.6279821414673872
aF0.6390316834513705
aF0.5587344210370856
aF0.5772920899998625
aF0.6506213656561619
aF0.6159491703252465
aF0.5764990058922952
aasS'HV'
p17
(lp18
(lp19
S'SPEA2_100'
p20
aF630866.8809
aF634136.9349
aF626279.5895
aF614573.1935
aF652356.5131
aF621318.1627
aF621153.5054
aF631505.8647
aF630550.6967
aF605168.4324
aF609638.2319
aF630965.6066
aF639390.0099
aF633017.7236
aF629620.2623
aF613148.2169
aF650380.3892
aF651974.4388
aF666888.9938
aF642971.2017
aa(lp21
S'SWAY5_1225'
p22
aF90842.0508
aF102271.3652
aF101788.7195
aF92517.3323
aF98454.0966
aF102571.5893
aF93344.3695
aF109618.1131
aF89080.2078
aF93406.1698
aF86794.33
aF104204.631
aF93132.1464
aF95310.809
aF92165.9694
aF100370.3598
aF84317.9542
aF93970.0736
aF100147.7498
aF103121.9032
aa(lp23
S'SWAY5_5000'
p24
aF167545.5053
aF172178.6041
aF152583.603
aF169533.4542
aF170820.7942
aF161896.1024
aF177863.6855
aF158975.0808
aF176381.0233
aF157187.5797
aF185257.6276
aF157026.1374
aF156439.4771
aF175177.8662
aF173252.3071
aF176388.068
aF179220.2669
aF181163.212
aF184841.9196
aF166198.9372
aa(lp25
S'SWAY5_2500'
p26
aF209284.8301
aF214395.3556
aF198638.9066
aF228183.3949
aF193297.516
aF210745.2001
aF199013.3828
aF221635.3886
aF204006.3959
aF204938.9922
aF204101.6596
aF226782.0234
aF223638.604
aF208807.7598
aF210001.0706
aF196584.6454
aF205351.6854
aF207995.8049
aF227397.1743
aF205459.4166
aa(lp27
S'SWAY5_10000'
p28
aF204469.9831
aF157454.077
aF182575.2546
aF204832.688
aF182253.475
aF184021.0928
aF189655.7802
aF183942.1578
aF191857.619
aF193882.8477
aF182704.9771
aF201367.4233
aF188153.1627
aF171429.6788
aF195043.0272
aF181763.8732
aF185503.1153
aF191774.4519
aF195578.8637
aF189934.0808
aa(lp29
S'NSGAII_100'
p30
aF622456.1423
aF630092.9695
aF624793.8495
aF639925.6325
aF637054.0384
aF627450.049
aF637216.9335
aF655451.6961
aF630177.6778
aF635399.8682
aF651567.8975
aF657014.0723
aF627294.1036
aF634599.7497
aF656743.8626
aF634086.8136
aF635390.7112
aF611933.8524
aF655217.9922
aF638131.1008
aass.