(dp0
S'SWAY5_2500'
p1
(iGraphics.simplified_new
SolutionHolder
p2
(dp3
S'problem'
p4
S'MONRP_50_4_5_0_110'
p5
sS'repeats'
p6
(lp7
(iGraphics.simplified_new
Scores
p8
(dp9
S'pfs'
p10
I30
sS'spread'
p11
F0.5898454582274206
sS'hv'
p12
F565058.3523
sS'igd'
p13
Nsba(iGraphics.simplified_new
Scores
p14
(dp15
g10
I39
sg11
F0.5306188193327609
sg12
F570421.4727
sg13
Nsba(iGraphics.simplified_new
Scores
p16
(dp17
g10
I19
sg11
F0.5818116313251096
sg12
F516276.2035
sg13
Nsba(iGraphics.simplified_new
Scores
p18
(dp19
g10
I39
sg11
F0.5867498883302209
sg12
F611403.145
sg13
Nsba(iGraphics.simplified_new
Scores
p20
(dp21
g10
I19
sg11
F0.5682643995267653
sg12
F515548.5697
sg13
Nsba(iGraphics.simplified_new
Scores
p22
(dp23
g10
I39
sg11
F0.5564183738072934
sg12
F565350.7472
sg13
Nsba(iGraphics.simplified_new
Scores
p24
(dp25
g10
I39
sg11
F0.4144157014564903
sg12
F542528.0563
sg13
Nsba(iGraphics.simplified_new
Scores
p26
(dp27
g10
I39
sg11
F0.556376847357754
sg12
F592174.7503
sg13
Nsba(iGraphics.simplified_new
Scores
p28
(dp29
g10
I27
sg11
F0.576509698783087
sg12
F545340.6198
sg13
Nsba(iGraphics.simplified_new
Scores
p30
(dp31
g10
I29
sg11
F0.4724756187301572
sg12
F545915.1742
sg13
Nsba(iGraphics.simplified_new
Scores
p32
(dp33
g10
I29
sg11
F0.5469746921851955
sg12
F555697.0315
sg13
Nsba(iGraphics.simplified_new
Scores
p34
(dp35
g10
I39
sg11
F0.4785971139031307
sg12
F607856.2056
sg13
Nsba(iGraphics.simplified_new
Scores
p36
(dp37
g10
I29
sg11
F0.4855905630439186
sg12
F599121.5144
sg13
Nsba(iGraphics.simplified_new
Scores
p38
(dp39
g10
I30
sg11
F0.5460627021294496
sg12
F573874.9128
sg13
Nsba(iGraphics.simplified_new
Scores
p40
(dp41
g10
I39
sg11
F0.4364545508223973
sg12
F561626.5185
sg13
Nsba(iGraphics.simplified_new
Scores
p42
(dp43
g10
I25
sg11
F0.5277453234059274
sg12
F531922.4838
sg13
Nsba(iGraphics.simplified_new
Scores
p44
(dp45
g10
I29
sg11
F0.5167044126815247
sg12
F540908.1922
sg13
Nsba(iGraphics.simplified_new
Scores
p46
(dp47
g10
I34
sg11
F0.5359613231262634
sg12
F558284.7341
sg13
Nsba(iGraphics.simplified_new
Scores
p48
(dp49
g10
I49
sg11
F0.5321059514796942
sg12
F620669.0819
sg13
Nsba(iGraphics.simplified_new
Scores
p50
(dp51
g10
I34
sg11
F0.4942094113391552
sg12
F545648.0652
sg13
NsbasS'algorithm'
p52
S'SWAY5'
p53
sbsS'SWAY5_10000'
p54
(iGraphics.simplified_new
SolutionHolder
p55
(dp56
g4
g5
sg6
(lp57
(iGraphics.simplified_new
Scores
p58
(dp59
g10
I58
sg11
F0.5069738189492623
sg12
F493781.0497
sg13
Nsba(iGraphics.simplified_new
Scores
p60
(dp61
g10
I39
sg11
F0.44085518578814603
sg12
F375958.8079
sg13
Nsba(iGraphics.simplified_new
Scores
p62
(dp63
g10
I62
sg11
F0.5130432935817442
sg12
F461183.3544
sg13
Nsba(iGraphics.simplified_new
Scores
p64
(dp65
g10
I218
sg11
F0.5184415571391577
sg12
F529248.2778
sg13
Nsba(iGraphics.simplified_new
Scores
p66
(dp67
g10
I52
sg11
F0.5276887844505489
sg12
F443564.41
sg13
Nsba(iGraphics.simplified_new
Scores
p68
(dp69
g10
I78
sg11
F0.5707921695161214
sg12
F461892.2749
sg13
Nsba(iGraphics.simplified_new
Scores
p70
(dp71
g10
I78
sg11
F0.4845759659973604
sg12
F483727.0735
sg13
Nsba(iGraphics.simplified_new
Scores
p72
(dp73
g10
I70
sg11
F0.556738304031477
sg12
F460803.4183
sg13
Nsba(iGraphics.simplified_new
Scores
p74
(dp75
g10
I78
sg11
F0.5005252234142569
sg12
F474474.1536
sg13
Nsba(iGraphics.simplified_new
Scores
p76
(dp77
g10
I87
sg11
F0.4881240842452327
sg12
F480751.4167
sg13
Nsba(iGraphics.simplified_new
Scores
p78
(dp79
g10
I41
sg11
F0.5047938691940462
sg12
F457955.4002
sg13
Nsba(iGraphics.simplified_new
Scores
p80
(dp81
g10
I87
sg11
F0.47483620528481263
sg12
F507800.8423
sg13
Nsba(iGraphics.simplified_new
Scores
p82
(dp83
g10
I68
sg11
F0.47868929924784365
sg12
F471556.5313
sg13
Nsba(iGraphics.simplified_new
Scores
p84
(dp85
g10
I78
sg11
F0.5073108341290274
sg12
F413662.2802
sg13
Nsba(iGraphics.simplified_new
Scores
p86
(dp87
g10
I166
sg11
F0.49502490765952356
sg12
F498922.9553
sg13
Nsba(iGraphics.simplified_new
Scores
p88
(dp89
g10
I29
sg11
F0.534348676473067
sg12
F446121.0389
sg13
Nsba(iGraphics.simplified_new
Scores
p90
(dp91
g10
I34
sg11
F0.6130537237436422
sg12
F438285.3689
sg13
Nsba(iGraphics.simplified_new
Scores
p92
(dp93
g10
I51
sg11
F0.5452922892697686
sg12
F478817.7605
sg13
Nsba(iGraphics.simplified_new
Scores
p94
(dp95
g10
I78
sg11
F0.46938806038220776
sg12
F481291.3004
sg13
Nsba(iGraphics.simplified_new
Scores
p96
(dp97
g10
I38
sg11
F0.4004558476002126
sg12
F474283.9077
sg13
Nsbasg52
S'SWAY5'
p98
sbsS'SWAY5_1225'
p99
(iGraphics.simplified_new
SolutionHolder
p100
(dp101
g4
g5
sg6
(lp102
(iGraphics.simplified_new
Scores
p103
(dp104
g10
I25
sg11
F0.6180736981649
sg12
F205901.1595
sg13
Nsba(iGraphics.simplified_new
Scores
p105
(dp106
g10
I20
sg11
F0.5993057281890286
sg12
F230674.9962
sg13
Nsba(iGraphics.simplified_new
Scores
p107
(dp108
g10
I29
sg11
F0.5218806433544062
sg12
F230653.2672
sg13
Nsba(iGraphics.simplified_new
Scores
p109
(dp110
g10
I19
sg11
F0.6158377591764771
sg12
F211931.7953
sg13
Nsba(iGraphics.simplified_new
Scores
p111
(dp112
g10
I19
sg11
F0.657508524956601
sg12
F226210.5487
sg13
Nsba(iGraphics.simplified_new
Scores
p113
(dp114
g10
I33
sg11
F0.533787472754805
sg12
F242359.0149
sg13
Nsba(iGraphics.simplified_new
Scores
p115
(dp116
g10
I19
sg11
F0.568310173705058
sg12
F211158.1113
sg13
Nsba(iGraphics.simplified_new
Scores
p117
(dp118
g10
I29
sg11
F0.6490484976235616
sg12
F250514.8224
sg13
Nsba(iGraphics.simplified_new
Scores
p119
(dp120
g10
I19
sg11
F0.5479809749274032
sg12
F199386.3344
sg13
Nsba(iGraphics.simplified_new
Scores
p121
(dp122
g10
I19
sg11
F0.5305492960032385
sg12
F205186.0225
sg13
Nsba(iGraphics.simplified_new
Scores
p123
(dp124
g10
I29
sg11
F0.627053762839698
sg12
F196594.1592
sg13
Nsba(iGraphics.simplified_new
Scores
p125
(dp126
g10
I25
sg11
F0.5415855650356507
sg12
F238697.0454
sg13
Nsba(iGraphics.simplified_new
Scores
p127
(dp128
g10
I19
sg11
F0.6199986061272056
sg12
F207356.0297
sg13
Nsba(iGraphics.simplified_new
Scores
p129
(dp130
g10
I28
sg11
F0.522702746622683
sg12
F216019.6534
sg13
Nsba(iGraphics.simplified_new
Scores
p131
(dp132
g10
I31
sg11
F0.5889163331412225
sg12
F205274.5554
sg13
Nsba(iGraphics.simplified_new
Scores
p133
(dp134
g10
I29
sg11
F0.5583496646057966
sg12
F231488.6042
sg13
Nsba(iGraphics.simplified_new
Scores
p135
(dp136
g10
I25
sg11
F0.6312592907560628
sg12
F185503.6236
sg13
Nsba(iGraphics.simplified_new
Scores
p137
(dp138
g10
I19
sg11
F0.5746914720030852
sg12
F218304.3066
sg13
Nsba(iGraphics.simplified_new
Scores
p139
(dp140
g10
I33
sg11
F0.49529479232574775
sg12
F232719.9805
sg13
Nsba(iGraphics.simplified_new
Scores
p141
(dp142
g10
I19
sg11
F0.5753748982282693
sg12
F236582.2737
sg13
Nsbasg52
S'SWAY5'
p143
sbsS'SWAY5_5000'
p144
(iGraphics.simplified_new
SolutionHolder
p145
(dp146
g4
g5
sg6
(lp147
(iGraphics.simplified_new
Scores
p148
(dp149
g10
I39
sg11
F0.5656983788456673
sg12
F421990.6284
sg13
Nsba(iGraphics.simplified_new
Scores
p150
(dp151
g10
I39
sg11
F0.45341782414035536
sg12
F433489.3364
sg13
Nsba(iGraphics.simplified_new
Scores
p152
(dp153
g10
I25
sg11
F0.5478387390767195
sg12
F374698.6086
sg13
Nsba(iGraphics.simplified_new
Scores
p154
(dp155
g10
I66
sg11
F0.4603616354516723
sg12
F420499.2637
sg13
Nsba(iGraphics.simplified_new
Scores
p156
(dp157
g10
I36
sg11
F0.5292916103934309
sg12
F426429.9389
sg13
Nsba(iGraphics.simplified_new
Scores
p158
(dp159
g10
I58
sg11
F0.5264025712418401
sg12
F414422.8826
sg13
Nsba(iGraphics.simplified_new
Scores
p160
(dp161
g10
I48
sg11
F0.6083293767691998
sg12
F449389.5435
sg13
Nsba(iGraphics.simplified_new
Scores
p162
(dp163
g10
I39
sg11
F0.5017193676669904
sg12
F404483.5772
sg13
Nsba(iGraphics.simplified_new
Scores
p164
(dp165
g10
I59
sg11
F0.5231764822160972
sg12
F438658.5663
sg13
Nsba(iGraphics.simplified_new
Scores
p166
(dp167
g10
I55
sg11
F0.5765694861222023
sg12
F402430.2647
sg13
Nsba(iGraphics.simplified_new
Scores
p168
(dp169
g10
I59
sg11
F0.5852584062068837
sg12
F455311.8732
sg13
Nsba(iGraphics.simplified_new
Scores
p170
(dp171
g10
I39
sg11
F0.5741382253194223
sg12
F395118.6268
sg13
Nsba(iGraphics.simplified_new
Scores
p172
(dp173
g10
I25
sg11
F0.4473813512187799
sg12
F380167.0608
sg13
Nsba(iGraphics.simplified_new
Scores
p174
(dp175
g10
I22
sg11
F0.6061433075863836
sg12
F419279.4444
sg13
Nsba(iGraphics.simplified_new
Scores
p176
(dp177
g10
I36
sg11
F0.5028379854106558
sg12
F434228.0383
sg13
Nsba(iGraphics.simplified_new
Scores
p178
(dp179
g10
I39
sg11
F0.612790635371843
sg12
F441991.0082
sg13
Nsba(iGraphics.simplified_new
Scores
p180
(dp181
g10
I66
sg11
F0.5216579842352269
sg12
F458041.2124
sg13
Nsba(iGraphics.simplified_new
Scores
p182
(dp183
g10
I58
sg11
F0.5748667324663801
sg12
F455502.3651
sg13
Nsba(iGraphics.simplified_new
Scores
p184
(dp185
g10
I67
sg11
F0.5252049344844317
sg12
F449213.843
sg13
Nsba(iGraphics.simplified_new
Scores
p186
(dp187
g10
I37
sg11
F0.620510408060647
sg12
F419087.4953
sg13
Nsbasg52
S'SWAY5'
p188
sbs.