(dp0
S'MONRP_50_4_5_4_90'
p1
(dp2
S'Spread'
p3
(lp4
(lp5
S'SPEA2_100'
p6
aF0.5985875481790544
aF0.559036590390705
aF0.5516552370212594
aF0.5295980338080507
aF0.6012560371633278
aF0.6106426402727735
aF0.5732284125277785
aF0.6500675513139871
aF0.5071303169279493
aF0.5061017695580701
aF0.5071177835139355
aF0.5313346601217288
aF0.4967385768823091
aF0.5650946354702352
aF0.5467532795093657
aF0.5512044940859814
aF0.5360426025644482
aF0.5642193184282334
aF0.5485726077391253
aF0.5133949590259469
aa(lp7
S'SPEA2SC-1225_100'
p8
aF0.5757993949612316
aF0.587196721402995
aF0.5580763618093388
aF0.5731355356282662
aF0.5098953290165796
aF0.5415985306537563
aF0.5617010897159747
aF0.5415223508867925
aF0.5304030620363569
aF0.5468609763324124
aF0.5530467385546081
aF0.5537762424403458
aF0.5265139423244376
aF0.6235162045839128
aF0.6511307743115866
aF0.5596489954406301
aF0.6005691910088528
aF0.5798921162775295
aF0.5177955149459641
aF0.5668638567445248
aa(lp9
S'SWAY5_1225'
p10
aF0.6841673913065901
aF0.7334127528074994
aF0.6667980788754677
aF0.5477475547524064
aF0.6045145054488987
aF0.7159271540644347
aF0.6079085025540614
aF0.6769793192087011
aF0.6740297076021006
aF0.6962251585781316
aF0.6612313401036006
aF0.6058663404344724
aF0.6494631678491141
aF0.8388882467891711
aF0.634056176849747
aF0.6287951040722023
aF0.6124571701973197
aF0.5812927564453787
aF0.6002363556988877
aF0.6894258451369741
aa(lp11
S'SWAY5_5000'
p12
aF0.5390946681226471
aF0.6072404156256834
aF0.6814826042705042
aF0.5329535592214396
aF0.6494653895737622
aF0.668489394187516
aF0.6010056971977156
aF0.6211801578129944
aF0.5453450717204666
aF0.5513996147040325
aF0.6329871047567047
aF0.5299707571963527
aF0.5653528606781054
aF0.5648960856103591
aF0.5838758900363951
aF0.5753249287097424
aF0.547035987763385
aF0.6047621317842197
aF0.662415058182588
aF0.5447483730415511
aa(lp13
S'NSGAIISC-5000_100'
p14
aF0.6027161162827956
aF0.6184417205828256
aF0.6668637132231227
aF0.6570883378132147
aF0.5804171211974343
aF0.6318207235499346
aF0.6720467148803249
aF0.6655559156244364
aF0.6259305740093537
aF0.6298414711056255
aF0.6611276469900785
aF0.6098668545631403
aF0.624702489594823
aF0.6057499268640428
aF0.61469112343773
aF0.5773211780620293
aF0.5837614803768043
aF0.6624204091272459
aF0.5956434556432545
aF0.6197751231599657
aa(lp15
S'SWAY5_2500'
p16
aF0.573460130388181
aF0.5569894472844924
aF0.5648006511389041
aF0.6582994393768615
aF0.6752602582121177
aF0.5911178075076707
aF0.5482402322340431
aF0.663530331266943
aF0.6879779162044707
aF0.6161633834063102
aF0.6886272930543733
aF0.6721520906485045
aF0.6341925892999972
aF0.5890421027518908
aF0.6708285985733254
aF0.6670051319836593
aF0.6436311520802297
aF0.6398758205856935
aF0.6732245141092835
aF0.6447883549234501
aa(lp17
S'NSGAIISC-1225_100'
p18
aF0.5933608035464281
aF0.6992212217022897
aF0.6100717734381029
aF0.6754112185731604
aF0.573490607054062
aF0.6279737886120857
aF0.7554893913284467
aF0.6542180007001079
aF0.6534203210626841
aF0.7213896615791937
aF0.7447072529760257
aF0.7239821753040964
aF0.7481461477829427
aF0.6790494482229019
aF0.7186436419014353
aF0.7438581861327478
aF0.5479872378067122
aF0.718564355562061
aF0.6316472141535876
aF0.6261261366081466
aa(lp19
S'SPEA2SC-5000_100'
p20
aF0.5645506756258389
aF0.5241128911507319
aF0.5591658165958633
aF0.5417933856465412
aF0.5221551147796754
aF0.5391267001491834
aF0.5392528393096815
aF0.5269904179154232
aF0.60482932902515
aF0.5069634678861099
aF0.457908834561365
aF0.6212853736401756
aF0.5494140628131985
aF0.5507496866558645
aF0.519922863697419
aF0.488333109217705
aF0.45955734899529727
aF0.48556613499873774
aF0.5496627126212916
aF0.5868798300890633
aa(lp21
S'SWAY5_10000'
p22
aF0.5367318929061331
aF0.5627873656669397
aF0.5961803761337061
aF0.6346758804664887
aF0.5380684154058472
aF0.5314920427314053
aF0.5607962296011856
aF0.5730730194363258
aF0.5578883112992147
aF0.5659284104368391
aF0.5946565440417126
aF0.49399752592004953
aF0.6411170086349666
aF0.6004029268843479
aF0.5430724919683352
aF0.5194589200617873
aF0.5619364476004143
aF0.6694820808336911
aF0.5551154205531386
aF0.5402868338696457
aa(lp23
S'NSGAIISC-10000_100'
p24
aF0.6080584989738829
aF0.6096447341521152
aF0.7025230944435917
aF0.6839634537276789
aF0.5920251101623243
aF0.6131510898421554
aF0.6143257882959041
aF0.6338329270667176
aF0.6330185992205732
aF0.6206934336944784
aF0.5702973898747286
aF0.6730057277968395
aF0.6231375214951836
aF0.5936886740290996
aF0.7162398088623237
aF0.638511234406254
aF0.6369886633182011
aF0.6221332953637957
aF0.6086087421302064
aF0.6610360735152635
aa(lp25
S'NSGAII_100'
p26
aF0.6758166533028952
aF0.6412747100339067
aF0.7126475813841694
aF0.6550750731649296
aF0.637044194981076
aF0.6459425868326347
aF0.6588614316974669
aF0.583355885137905
aF0.6786772828288841
aF0.6773097213311114
aF0.572916662979688
aF0.5872718835090255
aF0.6187311411131821
aF0.6409225883697022
aF0.6839942079004856
aF0.6446633778158518
aF0.658338898465549
aF0.6563228076265191
aF0.5913346089025614
aF0.686160932077684
aa(lp27
S'SPEA2SC-2500_100'
p28
aF0.6156667159369419
aF0.5622360244293679
aF0.5470836111139599
aF0.5418466891926509
aF0.48345675277014055
aF0.5394959804787818
aF0.564372000378047
aF0.6002455548906752
aF0.5180829032878481
aF0.5134026693472737
aF0.5195920425746352
aF0.5546900614398872
aF0.5154717098176391
aF0.5248215834639307
aF0.5464398266161569
aF0.581205231917723
aF0.5724767203291731
aF0.5569619800651577
aF0.4899016227169026
aF0.6118957367461749
aa(lp29
S'SPEA2SC-10000_100'
p30
aF0.5545525706842557
aF0.5798213675632284
aF0.6041333297868327
aF0.5084500007287815
aF0.4879279527577343
aF0.5704369902282114
aF0.5743426659502167
aF0.5319017580413746
aF0.5400841428263705
aF0.6065228525468193
aF0.5368039956870316
aF0.5284302394458007
aF0.49459536531940423
aF0.5257878443670799
aF0.6115079391632269
aF0.529676185484136
aF0.5558588418625536
aF0.6285955877597007
aF0.606136146158582
aF0.5906625031073963
aa(lp31
S'NSGAIISC-2500_100'
p32
aF0.6557270702662602
aF0.6447045436654114
aF0.5949883983474255
aF0.7347248213302165
aF0.6641889002153024
aF0.6100205094992882
aF0.667711401391663
aF0.6799380224615501
aF0.7091099328182726
aF0.608583455944646
aF0.6138871216507176
aF0.6337042763686915
aF0.6754704648535405
aF0.6842115327987467
aF0.6064544236645047
aF0.6269098940552752
aF0.6326830705121375
aF0.6291250117910336
aF0.6809451515440037
aF0.7392206395952006
aasS'HV'
p33
(lp34
(lp35
S'SPEA2_100'
p36
aF231063.806
aF228735.6349
aF246517.0107
aF235040.3336
aF238578.4792
aF233193.9158
aF246958.7446
aF239272.9156
aF235897.4248
aF231526.3357
aF222614.3068
aF231697.2571
aF237252.9394
aF230798.5627
aF236811.7758
aF240793.8046
aF237724.2799
aF229322.5845
aF237386.4235
aF242049.1017
aa(lp37
S'SPEA2SC-1225_100'
p38
aF181736.702
aF172831.4103
aF179954.6332
aF178614.5083
aF180386.6207
aF178177.6019
aF173736.4519
aF182790.0712
aF170871.8671
aF181997.1422
aF175371.2787
aF176103.0106
aF175311.9565
aF176424.8942
aF172539.782
aF176757.2521
aF183490.2698
aF183007.0668
aF173025.2764
aF175889.0339
aa(lp39
S'SWAY5_1225'
p40
aF258219.9153
aF284295.7078
aF274025.8347
aF267734.9195
aF277712.1063
aF243992.1904
aF264911.9487
aF277723.6697
aF263795.2591
aF217375.2942
aF306176.5282
aF271306.5089
aF290967.3469
aF277600.6546
aF254121.5714
aF287657.2326
aF278166.6652
aF269564.6823
aF270925.3968
aF262096.5898
aa(lp41
S'SWAY5_5000'
p42
aF235527.5084
aF244035.4635
aF200404.977
aF223116.0471
aF227208.0919
aF228315.2792
aF215408.5337
aF206704.3053
aF204114.5067
aF221651.1231
aF236579.8265
aF227958.1018
aF234710.4326
aF238507.3797
aF216717.054
aF217123.5093
aF234883.2967
aF200230.5597
aF221544.6794
aF246560.624
aa(lp43
S'NSGAIISC-5000_100'
p44
aF711398.6969
aF710707.2482
aF688504.972
aF698226.1067
aF695165.9763
aF714986.5094
aF687498.2147
aF711000.8872
aF664540.013
aF695878.9701
aF717252.5654
aF711569.7673
aF697510.3964
aF688319.3584
aF684754.7452
aF688623.436
aF677471.1088
aF706156.6806
aF709887.3989
aF717261.3442
aa(lp45
S'SWAY5_2500'
p46
aF299798.9405
aF308980.0051
aF291904.9417
aF312197.6708
aF317234.3058
aF315612.8852
aF303292.1696
aF300544.2769
aF306923.1729
aF325553.6902
aF291367.4869
aF317682.0725
aF315691.7931
aF302087.3378
aF312498.5982
aF335006.838
aF313211.2824
aF315691.6786
aF292790.8224
aF296635.1161
aa(lp47
S'NSGAIISC-1225_100'
p48
aF182963.5084
aF176031.4821
aF186720.8197
aF183285.0631
aF177829.3407
aF179166.5941
aF178486.6849
aF183830.2044
aF175349.4761
aF173036.7502
aF180262.9811
aF180858.288
aF176684.3479
aF183351.1944
aF188114.4087
aF174520.0558
aF172179.7021
aF175748.0763
aF171019.7498
aF173330.1137
aa(lp49
S'SPEA2SC-5000_100'
p50
aF663005.2905
aF702805.2733
aF700539.0524
aF659145.0153
aF689319.1784
aF691301.724
aF680878.8586
aF669501.4056
aF687413.2769
aF697990.3205
aF689507.2694
aF709048.6227
aF683511.473
aF711547.9156
aF713975.9103
aF704435.8933
aF683155.1228
aF700088.121
aF706831.1834
aF704634.9361
aa(lp51
S'SWAY5_10000'
p52
aF391023.4061
aF399020.8969
aF356893.7173
aF378517.3449
aF377747.1391
aF391095.5568
aF385823.143
aF400194.6129
aF385976.3363
aF394254.9071
aF376316.5681
aF396147.5024
aF339916.3724
aF401735.8961
aF406362.6947
aF379607.4307
aF352279.5051
aF348266.7913
aF352391.7471
aF386818.448
aa(lp53
S'NSGAIISC-10000_100'
p54
aF414389.8739
aF415950.77
aF406495.9136
aF405967.6608
aF403741.047
aF400843.2632
aF400140.9837
aF413161.5359
aF411384.1691
aF432327.6307
aF395927.1104
aF426620.4273
aF415381.6673
aF411794.955
aF397998.9979
aF397240.3769
aF390107.2928
aF406286.1707
aF418713.3822
aF425597.9449
aa(lp55
S'NSGAII_100'
p56
aF231443.389
aF227864.3683
aF238416.0279
aF234528.4038
aF238730.0285
aF234501.8176
aF232695.8817
aF238382.8462
aF235402.9574
aF230766.7079
aF233047.1986
aF227821.1036
aF236105.9419
aF233493.615
aF241124.8768
aF232896.506
aF236532.9151
aF234971.0084
aF238757.9992
aF236287.6773
aa(lp57
S'SPEA2SC-2500_100'
p58
aF385885.0991
aF382269.0022
aF406206.6797
aF401593.8591
aF406634.8225
aF409166.8516
aF391498.7153
aF397820.0763
aF400588.3316
aF379653.5036
aF408499.2155
aF398439.6727
aF385036.772
aF395719.4945
aF406131.3785
aF399417.6748
aF396424.1408
aF397058.361
aF407361.6968
aF403197.879
aa(lp59
S'SPEA2SC-10000_100'
p60
aF411925.089
aF399887.0697
aF400521.4975
aF404353.1654
aF419117.7169
aF418617.6388
aF432639.2838
aF418026.2939
aF428621.4126
aF420362.2484
aF422459.8642
aF394315.5291
aF416625.6256
aF407403.9553
aF406392.9689
aF415162.5264
aF411808.7456
aF401854.1413
aF408262.0599
aF433922.3912
aa(lp61
S'NSGAIISC-2500_100'
p62
aF396630.7704
aF392070.8932
aF374186.2057
aF408286.0898
aF398378.625
aF403063.5705
aF392094.5496
aF405933.691
aF413859.0529
aF396418.3832
aF403069.9781
aF373589.9222
aF385825.022
aF394267.4934
aF405805.9861
aF405958.2226
aF405674.8473
aF384041.8057
aF400199.8476
aF391539.9603
aass.