(dp0
S'MONRP_50_4_5_0_110'
p1
(dp2
S'Spread'
p3
(lp4
(lp5
S'SWAY5_100'
p6
aF0.5131245125769597
aF0.4315056485181184
aF0.4862099416455607
aF0.5061009432973991
aF0.5017424413685891
aF0.5434137491687046
aF0.4848333234675443
aF0.5397769084731093
aF0.4726619324869893
aF0.4815048180492516
aF0.4859400014341094
aF0.46329845413061826
aF0.47082350398106454
aF0.4936257572019667
aF0.47479025033512634
aF0.5248060656544132
aF0.6051390285793603
aF0.5448958106903992
aF0.4573870168182973
aF0.3978204566311619
aa(lp7
S'New-SWAY5_100'
p8
aF0.44566259339523173
aF0.5388901695744821
aF0.5134355963228137
aF0.508070468873637
aF0.4692051258783878
aF0.4282844180287511
aF0.5129025040367453
aF0.5148496481881952
aF0.5270758484586298
aF0.47821375100426755
aF0.5531552090417079
aF0.4513879261987032
aF0.5634948977081323
aF0.49835367829327837
aF0.5024054802532036
aF0.5706761958229696
aF0.5399849595997903
aF0.4674498083055904
aF0.5325922047623891
aF0.46482301326982295
aa(lp9
S'SPEA2_100'
p10
aF0.5278843776414684
aF0.5192026646035414
aF0.7154899407332307
aF0.6254424113655623
aF0.4251693229475812
aF0.5464708862571025
aF0.4858431668152857
aF0.48151852697022257
aF0.43731570200464065
aF0.6187978061942292
aF0.5606771983835179
aF0.5332951602528442
aF0.5070469937584962
aF0.5814037511526949
aF0.5504415806618422
aF0.4716148149723985
aF0.5792750170828525
aF0.5134011886880809
aF0.6282627994704002
aF0.6836751826976669
aa(lp11
S'NSGAII_100'
p12
aF0.6629235626779012
aF0.6987929881295449
aF0.7172489960295964
aF0.6128315068929131
aF0.692811640489161
aF0.6261041798146161
aF0.6047564005721072
aF0.6352847236189815
aF0.5893240465077918
aF0.661135319571515
aF0.6972053091951033
aF0.8226747286262285
aF0.6305319119931306
aF0.5836032994270874
aF0.5974288854812577
aF0.768143338039191
aF0.6145702953910817
aF0.6329917535493897
aF0.5824946440345815
aF0.44165871105897525
aasS'HV'
p13
(lp14
(lp15
S'SWAY5_100'
p16
aF407219.3695
aF302402.3951
aF371328.6142
aF451596.041
aF361252.233
aF393732.5394
aF403288.6387
aF397437.9383
aF394548.8723
aF401090.5977
aF386345.3579
aF431566.4493
aF393796.6361
aF329156.5183
aF415011.9088
aF372175.0327
aF366403.6334
aF403683.4345
aF420437.1898
aF400350.1604
aa(lp17
S'New-SWAY5_100'
p18
aF429286.4321
aF459502.4259
aF433954.6853
aF441986.1891
aF436234.495
aF396518.9556
aF442737.9677
aF456263.3493
aF415543.9183
aF475465.6613
aF432661.6045
aF428398.4918
aF443323.8018
aF441525.7443
aF481091.2705
aF446043.428
aF450153.7771
aF404152.5459
aF471792.0249
aF461425.9597
aa(lp19
S'SPEA2_100'
p20
aF611535.398
aF612794.1615
aF534899.7212
aF599896.0682
aF677844.8069
aF636093.1032
aF596467.5654
aF635458.8202
aF674910.6395
aF616975.0842
aF606895.9168
aF629403.7945
aF663316.4677
aF569970.4375
aF578006.5402
aF663648.3671
aF641768.2069
aF625313.735
aF678652.8529
aF528348.4284
aa(lp21
S'NSGAII_100'
p22
aF612214.676
aF646561.4317
aF572630.3761
aF566719.5599
aF591937.4462
aF603841.2088
aF625089.8718
aF625974.8959
aF631862.0514
aF616131.5339
aF527864.3627
aF577886.8519
aF616198.081
aF611636.929
aF677671.0136
aF542342.4573
aF519601.6838
aF638318.9718
aF534680.0657
aF619092.5194
aass.