(dp0
S'NSGAII_100'
p1
(iGraphics.simplified_new
SolutionHolder
p2
(dp3
S'problem'
p4
S'MONRP_50_4_5_0_90'
p5
sS'repeats'
p6
(lp7
(iGraphics.simplified_new
Scores
p8
(dp9
S'pfs'
p10
I20
sS'spread'
p11
F0.6689705193472216
sS'hv'
p12
F617954.744
sS'igd'
p13
Nsba(iGraphics.simplified_new
Scores
p14
(dp15
g10
I16
sg11
F1.0460429545904337
sg12
F650182.79
sg13
Nsba(iGraphics.simplified_new
Scores
p16
(dp17
g10
I11
sg11
F1.0305621905522435
sg12
F654881.8892
sg13
Nsba(iGraphics.simplified_new
Scores
p18
(dp19
g10
I20
sg11
F0.7162377654719495
sg12
F651841.6841
sg13
Nsba(iGraphics.simplified_new
Scores
p20
(dp21
g10
I20
sg11
F0.809285771729822
sg12
F497472.4376
sg13
Nsba(iGraphics.simplified_new
Scores
p22
(dp23
g10
I23
sg11
F0.6781053254554912
sg12
F658764.7256
sg13
Nsba(iGraphics.simplified_new
Scores
p24
(dp25
g10
I21
sg11
F0.6313476895682512
sg12
F605889.5218
sg13
Nsba(iGraphics.simplified_new
Scores
p26
(dp27
g10
I17
sg11
F0.7601855632101859
sg12
F618051.2169
sg13
Nsba(iGraphics.simplified_new
Scores
p28
(dp29
g10
I22
sg11
F0.6855132461481535
sg12
F657244.2826
sg13
Nsba(iGraphics.simplified_new
Scores
p30
(dp31
g10
I16
sg11
F0.630514274523376
sg12
F634875.4717
sg13
Nsba(iGraphics.simplified_new
Scores
p32
(dp33
g10
I23
sg11
F0.7050345373948214
sg12
F626805.0868
sg13
Nsba(iGraphics.simplified_new
Scores
p34
(dp35
g10
I24
sg11
F0.789081495602616
sg12
F622273.7191
sg13
Nsba(iGraphics.simplified_new
Scores
p36
(dp37
g10
I24
sg11
F0.6930068214755671
sg12
F633845.8219
sg13
Nsba(iGraphics.simplified_new
Scores
p38
(dp39
g10
I23
sg11
F0.6364660563503222
sg12
F532243.0593
sg13
Nsba(iGraphics.simplified_new
Scores
p40
(dp41
g10
I12
sg11
F0.8531083320026536
sg12
F614955.0333
sg13
Nsba(iGraphics.simplified_new
Scores
p42
(dp43
g10
I24
sg11
F0.6451656866707419
sg12
F627109.5039
sg13
Nsba(iGraphics.simplified_new
Scores
p44
(dp45
g10
I10
sg11
F0.8273580748023696
sg12
F430662.1201
sg13
Nsba(iGraphics.simplified_new
Scores
p46
(dp47
g10
I22
sg11
F0.6426424945321684
sg12
F693524.6586
sg13
Nsba(iGraphics.simplified_new
Scores
p48
(dp49
g10
I18
sg11
F0.746237766213169
sg12
F663506.7139
sg13
Nsba(iGraphics.simplified_new
Scores
p50
(dp51
g10
I32
sg11
F0.6571784298649063
sg12
F658985.711
sg13
NsbasS'algorithm'
p52
S'NSGAII'
p53
sbsS'SPEA2_100'
p54
(iGraphics.simplified_new
SolutionHolder
p55
(dp56
g4
g5
sg6
(lp57
(iGraphics.simplified_new
Scores
p58
(dp59
g10
I12
sg11
F0.5270691634679214
sg12
F669736.0893
sg13
Nsba(iGraphics.simplified_new
Scores
p60
(dp61
g10
I27
sg11
F0.6360103815629318
sg12
F711455.4413
sg13
Nsba(iGraphics.simplified_new
Scores
p62
(dp63
g10
I32
sg11
F0.44521499791091657
sg12
F754395.3582
sg13
Nsba(iGraphics.simplified_new
Scores
p64
(dp65
g10
I26
sg11
F0.6274754027691176
sg12
F758737.8986
sg13
Nsba(iGraphics.simplified_new
Scores
p66
(dp67
g10
I27
sg11
F0.558412691478593
sg12
F725878.1787
sg13
Nsba(iGraphics.simplified_new
Scores
p68
(dp69
g10
I13
sg11
F0.6751151682679938
sg12
F513597.8662
sg13
Nsba(iGraphics.simplified_new
Scores
p70
(dp71
g10
I9
sg11
F0.5914355339310055
sg12
F588073.6717
sg13
Nsba(iGraphics.simplified_new
Scores
p72
(dp73
g10
I16
sg11
F0.45847278680819836
sg12
F688626.517
sg13
Nsba(iGraphics.simplified_new
Scores
p74
(dp75
g10
I18
sg11
F0.6115745397312522
sg12
F695600.8028
sg13
Nsba(iGraphics.simplified_new
Scores
p76
(dp77
g10
I30
sg11
F0.4390137043438958
sg12
F756931.3838
sg13
Nsba(iGraphics.simplified_new
Scores
p78
(dp79
g10
I32
sg11
F0.4872668241113915
sg12
F727256.0732
sg13
Nsba(iGraphics.simplified_new
Scores
p80
(dp81
g10
I19
sg11
F0.5065857966682835
sg12
F703018.5663
sg13
Nsba(iGraphics.simplified_new
Scores
p82
(dp83
g10
I20
sg11
F0.5613898847204005
sg12
F717803.2912
sg13
Nsba(iGraphics.simplified_new
Scores
p84
(dp85
g10
I16
sg11
F0.6857967261233474
sg12
F688740.1229
sg13
Nsba(iGraphics.simplified_new
Scores
p86
(dp87
g10
I26
sg11
F0.5344332272261709
sg12
F533064.0125
sg13
Nsba(iGraphics.simplified_new
Scores
p88
(dp89
g10
I18
sg11
F0.5213484651763691
sg12
F687026.9282
sg13
Nsba(iGraphics.simplified_new
Scores
p90
(dp91
g10
I14
sg11
F0.7754105196012195
sg12
F638177.6535
sg13
Nsba(iGraphics.simplified_new
Scores
p92
(dp93
g10
I11
sg11
F0.6104960969965029
sg12
F689656.4323
sg13
Nsba(iGraphics.simplified_new
Scores
p94
(dp95
g10
I14
sg11
F0.7310881441403313
sg12
F691544.2411
sg13
Nsba(iGraphics.simplified_new
Scores
p96
(dp97
g10
I13
sg11
F0.5980171880948142
sg12
F565423.0436
sg13
Nsbasg52
S'SPEA2'
p98
sbsS'SPEA2SC_100'
p99
(iGraphics.simplified_new
SolutionHolder
p100
(dp101
g4
g5
sg6
(lp102
(iGraphics.simplified_new
Scores
p103
(dp104
g10
I4
sg11
F0.7821611626388338
sg12
F475697.2021
sg13
Nsba(iGraphics.simplified_new
Scores
p105
(dp106
g10
I9
sg11
F0.9344337461085294
sg12
F566769.8018
sg13
Nsba(iGraphics.simplified_new
Scores
p107
(dp108
g10
I18
sg11
F0.5946724654829747
sg12
F539375.8638
sg13
Nsba(iGraphics.simplified_new
Scores
p109
(dp110
g10
I30
sg11
F0.6250264110675513
sg12
F640106.6102
sg13
Nsba(iGraphics.simplified_new
Scores
p111
(dp112
g10
I13
sg11
F0.6640887663139743
sg12
F540035.4184
sg13
Nsba(iGraphics.simplified_new
Scores
p113
(dp114
g10
I3
sg11
F0.931894985005102
sg12
F414839.958
sg13
Nsba(iGraphics.simplified_new
Scores
p115
(dp116
g10
I23
sg11
F0.5527598080759599
sg12
F687444.1708
sg13
Nsba(iGraphics.simplified_new
Scores
p117
(dp118
g10
I8
sg11
F0.566433901383499
sg12
F518557.544
sg13
Nsba(iGraphics.simplified_new
Scores
p119
(dp120
g10
I16
sg11
F0.5745107669344269
sg12
F576205.9618
sg13
Nsba(iGraphics.simplified_new
Scores
p121
(dp122
g10
I29
sg11
F0.6651052796581339
sg12
F668577.5472
sg13
Nsba(iGraphics.simplified_new
Scores
p123
(dp124
g10
I17
sg11
F0.6716726026042323
sg12
F509046.3882
sg13
Nsba(iGraphics.simplified_new
Scores
p125
(dp126
g10
I6
sg11
F0.7478132887548654
sg12
F493009.2439
sg13
Nsba(iGraphics.simplified_new
Scores
p127
(dp128
g10
I17
sg11
F0.5284273199333256
sg12
F584792.7642
sg13
Nsba(iGraphics.simplified_new
Scores
p129
(dp130
g10
I9
sg11
F0.7155469601095894
sg12
F522277.8517
sg13
Nsba(iGraphics.simplified_new
Scores
p131
(dp132
g10
I19
sg11
F0.718688528217181
sg12
F502637.3629
sg13
Nsba(iGraphics.simplified_new
Scores
p133
(dp134
g10
I10
sg11
F0.5580427111828206
sg12
F459176.2816
sg13
Nsba(iGraphics.simplified_new
Scores
p135
(dp136
g10
I16
sg11
F0.6749345014473987
sg12
F678027.4307
sg13
Nsba(iGraphics.simplified_new
Scores
p137
(dp138
g10
I12
sg11
F0.6979214863867176
sg12
F623211.0692
sg13
Nsba(iGraphics.simplified_new
Scores
p139
(dp140
g10
I18
sg11
F0.5247200164663431
sg12
F525602.7236
sg13
Nsba(iGraphics.simplified_new
Scores
p141
(dp142
g10
I12
sg11
F0.560687753787588
sg12
F494902.8727
sg13
Nsbasg52
S'SPEA2SC'
p143
sbsS'NSGAIISC_100'
p144
(iGraphics.simplified_new
SolutionHolder
p145
(dp146
g4
g5
sg6
(lp147
(iGraphics.simplified_new
Scores
p148
(dp149
g10
I18
sg11
F0.899034995251973
sg12
F621186.7739
sg13
Nsba(iGraphics.simplified_new
Scores
p150
(dp151
g10
I7
sg11
F0.8916038969037217
sg12
F342079.2624
sg13
Nsba(iGraphics.simplified_new
Scores
p152
(dp153
g10
I6
sg11
F1.078143135621102
sg12
F601081.1301
sg13
Nsba(iGraphics.simplified_new
Scores
p154
(dp155
g10
I22
sg11
F0.7724077484999162
sg12
F560520.2757
sg13
Nsba(iGraphics.simplified_new
Scores
p156
(dp157
g10
I6
sg11
F0.6039998452494053
sg12
F535438.1831
sg13
Nsba(iGraphics.simplified_new
Scores
p158
(dp159
g10
I12
sg11
F0.7665691269221084
sg12
F581109.4298
sg13
Nsba(iGraphics.simplified_new
Scores
p160
(dp161
g10
I15
sg11
F0.6475258771608446
sg12
F479905.8253
sg13
Nsba(iGraphics.simplified_new
Scores
p162
(dp163
g10
I12
sg11
F0.673383889653995
sg12
F451313.3821
sg13
Nsba(iGraphics.simplified_new
Scores
p164
(dp165
g10
I23
sg11
F0.6246504532269347
sg12
F550214.3852
sg13
Nsba(iGraphics.simplified_new
Scores
p166
(dp167
g10
I10
sg11
F0.8611247322239572
sg12
F588357.0141
sg13
Nsba(iGraphics.simplified_new
Scores
p168
(dp169
g10
I10
sg11
F0.8353596325441298
sg12
F516622.4786
sg13
Nsba(iGraphics.simplified_new
Scores
p170
(dp171
g10
I22
sg11
F0.6918366617875448
sg12
F605545.9336
sg13
Nsba(iGraphics.simplified_new
Scores
p172
(dp173
g10
I18
sg11
F0.7069385637035559
sg12
F568964.992
sg13
Nsba(iGraphics.simplified_new
Scores
p174
(dp175
g10
I8
sg11
F0.921942313990122
sg12
F417053.1886
sg13
Nsba(iGraphics.simplified_new
Scores
p176
(dp177
g10
I16
sg11
F0.6312792133946409
sg12
F489216.5853
sg13
Nsba(iGraphics.simplified_new
Scores
p178
(dp179
g10
I19
sg11
F0.8344562318843067
sg12
F475671.2462
sg13
Nsba(iGraphics.simplified_new
Scores
p180
(dp181
g10
I12
sg11
F0.8478848075542611
sg12
F526764.288
sg13
Nsba(iGraphics.simplified_new
Scores
p182
(dp183
g10
I17
sg11
F0.799238894790075
sg12
F606881.8552
sg13
Nsba(iGraphics.simplified_new
Scores
p184
(dp185
g10
I13
sg11
F0.6213524556658165
sg12
F462624.9401
sg13
Nsba(iGraphics.simplified_new
Scores
p186
(dp187
g10
I20
sg11
F0.692785910122976
sg12
F520702.4964
sg13
Nsbasg52
S'NSGAIISC'
p188
sbsS'SWAY5_10000'
p189
(iGraphics.simplified_new
SolutionHolder
p190
(dp191
g4
g5
sg6
(lp192
(iGraphics.simplified_new
Scores
p193
(dp194
g10
I76
sg11
F0.512380547296353
sg12
F257156.5079
sg13
Nsba(iGraphics.simplified_new
Scores
p195
(dp196
g10
I76
sg11
F0.5257698774067847
sg12
F256912.7659
sg13
Nsba(iGraphics.simplified_new
Scores
p197
(dp198
g10
I77
sg11
F0.520899395141752
sg12
F224370.1483
sg13
Nsba(iGraphics.simplified_new
Scores
p199
(dp200
g10
I78
sg11
F0.471712087080053
sg12
F260929.5161
sg13
Nsba(iGraphics.simplified_new
Scores
p201
(dp202
g10
I78
sg11
F0.48224323982877265
sg12
F252921.0003
sg13
Nsba(iGraphics.simplified_new
Scores
p203
(dp204
g10
I78
sg11
F0.47015491835267126
sg12
F240140.6628
sg13
Nsba(iGraphics.simplified_new
Scores
p205
(dp206
g10
I79
sg11
F0.4903646047204188
sg12
F238536.2023
sg13
Nsba(iGraphics.simplified_new
Scores
p207
(dp208
g10
I78
sg11
F0.4984860398321102
sg12
F252183.3013
sg13
Nsba(iGraphics.simplified_new
Scores
p209
(dp210
g10
I77
sg11
F0.48425104825321114
sg12
F248217.5126
sg13
Nsba(iGraphics.simplified_new
Scores
p211
(dp212
g10
I78
sg11
F0.48406346536985206
sg12
F266529.6334
sg13
Nsba(iGraphics.simplified_new
Scores
p213
(dp214
g10
I78
sg11
F0.4973822425526191
sg12
F248536.5196
sg13
Nsba(iGraphics.simplified_new
Scores
p215
(dp216
g10
I79
sg11
F0.47504839167643576
sg12
F220709.4807
sg13
Nsba(iGraphics.simplified_new
Scores
p217
(dp218
g10
I79
sg11
F0.5159544243032247
sg12
F243227.6193
sg13
Nsba(iGraphics.simplified_new
Scores
p219
(dp220
g10
I76
sg11
F0.5121204859018065
sg12
F268686.2618
sg13
Nsba(iGraphics.simplified_new
Scores
p221
(dp222
g10
I79
sg11
F0.46099847164650803
sg12
F254297.6678
sg13
Nsba(iGraphics.simplified_new
Scores
p223
(dp224
g10
I79
sg11
F0.5062735625484829
sg12
F245415.7113
sg13
Nsba(iGraphics.simplified_new
Scores
p225
(dp226
g10
I77
sg11
F0.4946718118719237
sg12
F222383.3885
sg13
Nsba(iGraphics.simplified_new
Scores
p227
(dp228
g10
I79
sg11
F0.4948440654240371
sg12
F254703.4731
sg13
Nsba(iGraphics.simplified_new
Scores
p229
(dp230
g10
I77
sg11
F0.49144949756585155
sg12
F249001.9979
sg13
Nsba(iGraphics.simplified_new
Scores
p231
(dp232
g10
I78
sg11
F0.578340663662971
sg12
F256245.032
sg13
Nsbasg52
S'SWAY5'
p233
sbs.