(dp0
S'MONRP_50_4_5_4_110'
p1
(dp2
S'Spread'
p3
(lp4
(lp5
S'SPEA2_100'
p6
aF0.5194578626215739
aF0.47321952470194145
aF0.5545899157026433
aF0.5700916777295267
aF0.6261767955664972
aF0.6000871099104673
aF0.6288432370503412
aF0.5459425300385904
aF0.5884643854314345
aF0.5803485043272973
aF0.647836328358156
aF0.5740865758955884
aF0.5522395451445661
aF0.5830188926476365
aF0.5686266349333959
aF0.587012963563652
aF0.574820585701895
aF0.5898006719690292
aF0.5684881887318484
aF0.535057268939047
aa(lp7
S'SWAY5_1225'
p8
aF0.7628190122165294
aF0.6200642638406217
aF0.6142680420086092
aF0.6140771862607528
aF0.7726385717554638
aF0.660156932177321
aF0.6853424641002532
aF0.6423977606853051
aF0.579248227441252
aF0.669425364098979
aF0.7532642656676689
aF0.7433810438156763
aF0.7676038601895662
aF0.6212611425743664
aF0.6458425222048536
aF0.7424107321053971
aF0.7395989319542295
aF0.6980845551781681
aF0.7618097493788796
aF0.6223017600980002
aa(lp9
S'SWAY5_5000'
p10
aF0.5142615089780961
aF0.5421893533150672
aF0.5496471724937365
aF0.6055075544863154
aF0.6117467202287574
aF0.5058569471772775
aF0.5392282436798835
aF0.5740095609762529
aF0.5729990013562946
aF0.5780874537246216
aF0.5701341504153299
aF0.6248634389451955
aF0.5174532790590762
aF0.5979973122883261
aF0.5822758849844558
aF0.5786710352238846
aF0.5702156190283526
aF0.5839511094194106
aF0.5561490712053752
aF0.5611136320249727
aa(lp11
S'SWAY5_2500'
p12
aF0.6308306474648613
aF0.6531003530116192
aF0.6141962039305338
aF0.7018691147301841
aF0.6028079557654962
aF0.559169021154552
aF0.5033026530002931
aF0.6332186588966798
aF0.6892119201412642
aF0.586099059462152
aF0.5691133990540173
aF0.4219551466216517
aF0.6679091902721105
aF0.5547327056441969
aF0.7431174652511593
aF0.6626128990795679
aF0.626527918996341
aF0.6385539286863093
aF0.5623916052799761
aF0.6249955236671096
aa(lp13
S'SWAY5_10000'
p14
aF0.536813547947097
aF0.5764678866177166
aF0.507291514728893
aF0.5471743014261387
aF0.5230843049255082
aF0.6291927081316591
aF0.6128335587245263
aF0.6207913886057129
aF0.5568009671194865
aF0.5204167207152911
aF0.6136123765239753
aF0.5516290991174492
aF0.6288383472096956
aF0.5142617387254111
aF0.53994661633081
aF0.5251024721344918
aF0.5529027134230916
aF0.5301123757157871
aF0.5212530671552028
aF0.6098301671135754
aa(lp15
S'NSGAII_100'
p16
aF0.6211456570236104
aF0.6466702035568737
aF0.6045934749600967
aF0.6806878342486611
aF0.677235705292105
aF0.6470987867912209
aF0.6473232571982885
aF0.6032131443428618
aF0.6216989798094352
aF0.628288397141694
aF0.6307487989214082
aF0.6761128775529207
aF0.6342783562913963
aF0.600614264338461
aF0.6320177320376257
aF0.6860655272309343
aF0.5619523568370646
aF0.6774263910612404
aF0.6901939214663743
aF0.6044161816065439
aasS'HV'
p17
(lp18
(lp19
S'SPEA2_100'
p20
aF352894.5271
aF353747.9391
aF349976.7747
aF346428.2019
aF354623.7896
aF353777.2843
aF354661.1265
aF353009.1367
aF363835.0206
aF348487.9553
aF363407.9862
aF357645.0503
aF337714.5323
aF350601.5424
aF349057.9867
aF352470.5015
aF351806.3413
aF354621.3165
aF355067.8579
aF364245.9677
aa(lp21
S'SWAY5_1225'
p22
aF93941.8001
aF113977.2357
aF108492.5427
aF111385.8487
aF100505.941
aF118170.2948
aF98149.7101
aF95051.2474
aF117351.8814
aF106299.229
aF97426.0837
aF108615.4009
aF111275.0894
aF111919.4402
aF115285.9439
aF101952.7504
aF97162.5136
aF121584.8651
aF96818.6037
aF103929.3025
aa(lp23
S'SWAY5_5000'
p24
aF637344.8535
aF642461.9399
aF590350.5292
aF604524.1502
aF661220.473
aF610915.5644
aF622937.279
aF631871.0407
aF603180.9538
aF633713.1215
aF672691.9103
aF618346.0026
aF687136.665
aF642697.1637
aF605832.2071
aF638316.4832
aF635266.7802
aF678259.271
aF649600.4546
aF542223.0625
aa(lp25
S'SWAY5_2500'
p26
aF227582.7317
aF255117.8748
aF267669.2587
aF301056.9479
aF302861.8953
aF258418.8698
aF272208.0306
aF247874.4201
aF222185.4002
aF267535.3644
aF248049.4398
aF280437.8367
aF250368.8669
aF273643.694
aF253821.5131
aF291165.5062
aF277562.6174
aF277708.8156
aF280983.6155
aF266454.2606
aa(lp27
S'SWAY5_10000'
p28
aF447955.3174
aF392215.8751
aF455837.1209
aF401765.7322
aF418627.3596
aF406610.6687
aF404351.3249
aF338230.714
aF359646.6738
aF422942.3967
aF381678.197
aF418080.1427
aF383723.2384
aF417913.5481
aF416984.2487
aF394217.2501
aF419089.3589
aF409181.0083
aF413997.8723
aF392967.2668
aa(lp29
S'NSGAII_100'
p30
aF353821.2133
aF357850.2249
aF357369.0193
aF347322.7149
aF356125.0095
aF344615.0153
aF361398.3721
aF353975.2427
aF352094.1751
aF351496.4137
aF361233.156
aF354209.3692
aF339861.2112
aF353888.0746
aF360769.0827
aF358055.0953
aF343907.3233
aF349835.6232
aF350635.0358
aF329761.586
aass.