(dp0
S'SPEA2_100'
p1
(iGraphics.simplified_new
SolutionHolder
p2
(dp3
S'problem'
p4
S'MONRP_50_4_5_0_90'
p5
sS'repeats'
p6
(lp7
(iGraphics.simplified_new
Scores
p8
(dp9
S'pfs'
p10
I100
sS'spread'
p11
F0.5820957074236964
sS'hv'
p12
F678685.2758
sS'igd'
p13
Nsba(iGraphics.simplified_new
Scores
p14
(dp15
g10
I100
sg11
F0.5115207377001956
sg12
F662766.3177
sg13
Nsba(iGraphics.simplified_new
Scores
p16
(dp17
g10
I100
sg11
F0.5453574168799944
sg12
F655585.6211
sg13
Nsba(iGraphics.simplified_new
Scores
p18
(dp19
g10
I100
sg11
F0.5930188706627594
sg12
F670346.4473
sg13
Nsba(iGraphics.simplified_new
Scores
p20
(dp21
g10
I100
sg11
F0.5306207157847401
sg12
F663578.0777
sg13
Nsba(iGraphics.simplified_new
Scores
p22
(dp23
g10
I100
sg11
F0.5637506708196712
sg12
F660676.0844
sg13
Nsba(iGraphics.simplified_new
Scores
p24
(dp25
g10
I100
sg11
F0.5307840556383818
sg12
F655518.9449
sg13
Nsba(iGraphics.simplified_new
Scores
p26
(dp27
g10
I100
sg11
F0.560092565503556
sg12
F671789.4646
sg13
Nsba(iGraphics.simplified_new
Scores
p28
(dp29
g10
I100
sg11
F0.5573522081033296
sg12
F650036.252
sg13
Nsba(iGraphics.simplified_new
Scores
p30
(dp31
g10
I100
sg11
F0.5911318507947604
sg12
F684398.6955
sg13
Nsba(iGraphics.simplified_new
Scores
p32
(dp33
g10
I100
sg11
F0.5725134648148102
sg12
F667052.7954
sg13
Nsba(iGraphics.simplified_new
Scores
p34
(dp35
g10
I100
sg11
F0.5144597823430318
sg12
F655144.8453
sg13
Nsba(iGraphics.simplified_new
Scores
p36
(dp37
g10
I100
sg11
F0.5817663306531606
sg12
F664782.5472
sg13
Nsba(iGraphics.simplified_new
Scores
p38
(dp39
g10
I100
sg11
F0.5395250001900513
sg12
F657099.8273
sg13
Nsba(iGraphics.simplified_new
Scores
p40
(dp41
g10
I100
sg11
F0.5893159149898644
sg12
F661528.7391
sg13
Nsba(iGraphics.simplified_new
Scores
p42
(dp43
g10
I100
sg11
F0.4803602773374942
sg12
F647840.0005
sg13
Nsba(iGraphics.simplified_new
Scores
p44
(dp45
g10
I100
sg11
F0.5664009592679162
sg12
F680826.8
sg13
Nsba(iGraphics.simplified_new
Scores
p46
(dp47
g10
I100
sg11
F0.5320227443029629
sg12
F680666.5106
sg13
Nsba(iGraphics.simplified_new
Scores
p48
(dp49
g10
I100
sg11
F0.5292620688033874
sg12
F659082.1568
sg13
Nsba(iGraphics.simplified_new
Scores
p50
(dp51
g10
I100
sg11
F0.6155746811811739
sg12
F664739.7835
sg13
NsbasS'algorithm'
p52
S'SPEA2'
p53
sbsS'SWAY5_1225'
p54
(iGraphics.simplified_new
SolutionHolder
p55
(dp56
g4
g5
sg6
(lp57
(iGraphics.simplified_new
Scores
p58
(dp59
g10
I21
sg11
F0.8059779583872158
sg12
F252086.2591
sg13
Nsba(iGraphics.simplified_new
Scores
p60
(dp61
g10
I29
sg11
F0.659717380935204
sg12
F266748.5094
sg13
Nsba(iGraphics.simplified_new
Scores
p62
(dp63
g10
I28
sg11
F0.6340853941650607
sg12
F259331.2323
sg13
Nsba(iGraphics.simplified_new
Scores
p64
(dp65
g10
I22
sg11
F0.6437520454466962
sg12
F251276.9637
sg13
Nsba(iGraphics.simplified_new
Scores
p66
(dp67
g10
I29
sg11
F0.5330138038320896
sg12
F275772.3481
sg13
Nsba(iGraphics.simplified_new
Scores
p68
(dp69
g10
I33
sg11
F0.6799063990084434
sg12
F265325.9038
sg13
Nsba(iGraphics.simplified_new
Scores
p70
(dp71
g10
I19
sg11
F0.670133862187444
sg12
F266703.2742
sg13
Nsba(iGraphics.simplified_new
Scores
p72
(dp73
g10
I29
sg11
F0.5780649691381446
sg12
F280540.8247
sg13
Nsba(iGraphics.simplified_new
Scores
p74
(dp75
g10
I19
sg11
F0.5987786677096297
sg12
F251843.4789
sg13
Nsba(iGraphics.simplified_new
Scores
p76
(dp77
g10
I22
sg11
F0.6304553195111229
sg12
F244256.3301
sg13
Nsba(iGraphics.simplified_new
Scores
p78
(dp79
g10
I34
sg11
F0.6156785693344926
sg12
F245241.0943
sg13
Nsba(iGraphics.simplified_new
Scores
p80
(dp81
g10
I21
sg11
F0.6666509678669263
sg12
F237128.0759
sg13
Nsba(iGraphics.simplified_new
Scores
p82
(dp83
g10
I29
sg11
F0.620633110985387
sg12
F262737.8229
sg13
Nsba(iGraphics.simplified_new
Scores
p84
(dp85
g10
I20
sg11
F0.6750159235373272
sg12
F252299.9074
sg13
Nsba(iGraphics.simplified_new
Scores
p86
(dp87
g10
I22
sg11
F0.7060928662939229
sg12
F293302.6478
sg13
Nsba(iGraphics.simplified_new
Scores
p88
(dp89
g10
I19
sg11
F0.776479256350315
sg12
F249285.7923
sg13
Nsba(iGraphics.simplified_new
Scores
p90
(dp91
g10
I28
sg11
F0.5715735875486284
sg12
F271677.9829
sg13
Nsba(iGraphics.simplified_new
Scores
p92
(dp93
g10
I25
sg11
F0.6518522364595907
sg12
F270450.3982
sg13
Nsba(iGraphics.simplified_new
Scores
p94
(dp95
g10
I29
sg11
F0.5643510035131825
sg12
F250571.0612
sg13
Nsba(iGraphics.simplified_new
Scores
p96
(dp97
g10
I29
sg11
F0.6461054099234954
sg12
F272897.0549
sg13
Nsbasg52
S'SWAY5'
p98
sbsS'SWAY5_5000'
p99
(iGraphics.simplified_new
SolutionHolder
p100
(dp101
g4
g5
sg6
(lp102
(iGraphics.simplified_new
Scores
p103
(dp104
g10
I65
sg11
F0.5474650242782092
sg12
F415794.9209
sg13
Nsba(iGraphics.simplified_new
Scores
p105
(dp106
g10
I59
sg11
F0.5813917294431304
sg12
F402356.6011
sg13
Nsba(iGraphics.simplified_new
Scores
p107
(dp108
g10
I36
sg11
F0.6140979758498682
sg12
F382159.3647
sg13
Nsba(iGraphics.simplified_new
Scores
p109
(dp110
g10
I53
sg11
F0.5361847964526432
sg12
F401508.684
sg13
Nsba(iGraphics.simplified_new
Scores
p111
(dp112
g10
I34
sg11
F0.5885202120535059
sg12
F369965.1489
sg13
Nsba(iGraphics.simplified_new
Scores
p113
(dp114
g10
I38
sg11
F0.6776464424312612
sg12
F368612.0832
sg13
Nsba(iGraphics.simplified_new
Scores
p115
(dp116
g10
I58
sg11
F0.5087118441921272
sg12
F415194.644
sg13
Nsba(iGraphics.simplified_new
Scores
p117
(dp118
g10
I39
sg11
F0.5390925913045399
sg12
F391846.1488
sg13
Nsba(iGraphics.simplified_new
Scores
p119
(dp120
g10
I29
sg11
F0.5840357481294858
sg12
F358379.6473
sg13
Nsba(iGraphics.simplified_new
Scores
p121
(dp122
g10
I39
sg11
F0.5622630196725454
sg12
F370593.7905
sg13
Nsba(iGraphics.simplified_new
Scores
p123
(dp124
g10
I67
sg11
F0.5440427878304515
sg12
F422276.1253
sg13
Nsba(iGraphics.simplified_new
Scores
p125
(dp126
g10
I59
sg11
F0.6101890379123525
sg12
F418424.2586
sg13
Nsba(iGraphics.simplified_new
Scores
p127
(dp128
g10
I39
sg11
F0.6846228237285602
sg12
F402221.9498
sg13
Nsba(iGraphics.simplified_new
Scores
p129
(dp130
g10
I39
sg11
F0.5493082075430186
sg12
F342618.1095
sg13
Nsba(iGraphics.simplified_new
Scores
p131
(dp132
g10
I39
sg11
F0.6212340548208574
sg12
F392480.486
sg13
Nsba(iGraphics.simplified_new
Scores
p133
(dp134
g10
I39
sg11
F0.5686938950393443
sg12
F380094.8836
sg13
Nsba(iGraphics.simplified_new
Scores
p135
(dp136
g10
I59
sg11
F0.5624673028662401
sg12
F405335.2098
sg13
Nsba(iGraphics.simplified_new
Scores
p137
(dp138
g10
I59
sg11
F0.5616982840481537
sg12
F424030.4803
sg13
Nsba(iGraphics.simplified_new
Scores
p139
(dp140
g10
I52
sg11
F0.6114713063589798
sg12
F391091.0999
sg13
Nsba(iGraphics.simplified_new
Scores
p141
(dp142
g10
I58
sg11
F0.6225960902853512
sg12
F415050.4973
sg13
Nsbasg52
S'SWAY5'
p143
sbsS'SWAY5_2500'
p144
(iGraphics.simplified_new
SolutionHolder
p145
(dp146
g4
g5
sg6
(lp147
(iGraphics.simplified_new
Scores
p148
(dp149
g10
I26
sg11
F0.5324997205046661
sg12
F411754.7836
sg13
Nsba(iGraphics.simplified_new
Scores
p150
(dp151
g10
I30
sg11
F0.6183401099355982
sg12
F375890.2787
sg13
Nsba(iGraphics.simplified_new
Scores
p152
(dp153
g10
I33
sg11
F0.5700335819709981
sg12
F383668.6636
sg13
Nsba(iGraphics.simplified_new
Scores
p154
(dp155
g10
I29
sg11
F0.5094359285535788
sg12
F330272.1344
sg13
Nsba(iGraphics.simplified_new
Scores
p156
(dp157
g10
I22
sg11
F0.6031271719096986
sg12
F353965.5052
sg13
Nsba(iGraphics.simplified_new
Scores
p158
(dp159
g10
I30
sg11
F0.6001182532991413
sg12
F388825.8525
sg13
Nsba(iGraphics.simplified_new
Scores
p160
(dp161
g10
I29
sg11
F0.5720186174748502
sg12
F366554.1826
sg13
Nsba(iGraphics.simplified_new
Scores
p162
(dp163
g10
I34
sg11
F0.62973629519165
sg12
F334252.4093
sg13
Nsba(iGraphics.simplified_new
Scores
p164
(dp165
g10
I39
sg11
F0.5388898870753984
sg12
F380913.9786
sg13
Nsba(iGraphics.simplified_new
Scores
p166
(dp167
g10
I17
sg11
F0.5937210194010544
sg12
F379734.5374
sg13
Nsba(iGraphics.simplified_new
Scores
p168
(dp169
g10
I39
sg11
F0.5948972269099697
sg12
F387074.2457
sg13
Nsba(iGraphics.simplified_new
Scores
p170
(dp171
g10
I39
sg11
F0.5366732901395181
sg12
F356174.5404
sg13
Nsba(iGraphics.simplified_new
Scores
p172
(dp173
g10
I25
sg11
F0.6379607697766643
sg12
F381036.2167
sg13
Nsba(iGraphics.simplified_new
Scores
p174
(dp175
g10
I34
sg11
F0.5774771159703969
sg12
F366790.6171
sg13
Nsba(iGraphics.simplified_new
Scores
p176
(dp177
g10
I34
sg11
F0.6400291255609794
sg12
F375828.7631
sg13
Nsba(iGraphics.simplified_new
Scores
p178
(dp179
g10
I29
sg11
F0.6144344003956419
sg12
F396755.4933
sg13
Nsba(iGraphics.simplified_new
Scores
p180
(dp181
g10
I29
sg11
F0.6196403333373744
sg12
F389712.4887
sg13
Nsba(iGraphics.simplified_new
Scores
p182
(dp183
g10
I33
sg11
F0.6276504523831274
sg12
F388656.2047
sg13
Nsba(iGraphics.simplified_new
Scores
p184
(dp185
g10
I44
sg11
F0.5032941031020604
sg12
F375386.6746
sg13
Nsba(iGraphics.simplified_new
Scores
p186
(dp187
g10
I45
sg11
F0.5851947882274362
sg12
F410701.2696
sg13
Nsbasg52
S'SWAY5'
p188
sbsS'SWAY5_10000'
p189
(iGraphics.simplified_new
SolutionHolder
p190
(dp191
g4
g5
sg6
(lp192
(iGraphics.simplified_new
Scores
p193
(dp194
g10
I60
sg11
F0.5035483092418498
sg12
F201353.213
sg13
Nsba(iGraphics.simplified_new
Scores
p195
(dp196
g10
I88
sg11
F0.5692154220852412
sg12
F204506.3953
sg13
Nsba(iGraphics.simplified_new
Scores
p197
(dp198
g10
I34
sg11
F0.5965565149209896
sg12
F163510.7693
sg13
Nsba(iGraphics.simplified_new
Scores
p199
(dp200
g10
I78
sg11
F0.5632740562405519
sg12
F210193.8818
sg13
Nsba(iGraphics.simplified_new
Scores
p201
(dp202
g10
I78
sg11
F0.500717814067641
sg12
F218492.1372
sg13
Nsba(iGraphics.simplified_new
Scores
p203
(dp204
g10
I59
sg11
F0.5600878149911486
sg12
F183072.5508
sg13
Nsba(iGraphics.simplified_new
Scores
p205
(dp206
g10
I90
sg11
F0.5362989988096655
sg12
F193953.8413
sg13
Nsba(iGraphics.simplified_new
Scores
p207
(dp208
g10
I78
sg11
F0.6073056645686598
sg12
F173032.3586
sg13
Nsba(iGraphics.simplified_new
Scores
p209
(dp210
g10
I90
sg11
F0.5784664856894985
sg12
F193269.7021
sg13
Nsba(iGraphics.simplified_new
Scores
p211
(dp212
g10
I73
sg11
F0.6102617492356303
sg12
F195312.2828
sg13
Nsba(iGraphics.simplified_new
Scores
p213
(dp214
g10
I95
sg11
F0.5369022503204148
sg12
F201988.1236
sg13
Nsba(iGraphics.simplified_new
Scores
p215
(dp216
g10
I78
sg11
F0.5800727577571344
sg12
F194016.9758
sg13
Nsba(iGraphics.simplified_new
Scores
p217
(dp218
g10
I77
sg11
F0.583981662843712
sg12
F207149.348
sg13
Nsba(iGraphics.simplified_new
Scores
p219
(dp220
g10
I87
sg11
F0.5329853611682475
sg12
F196145.9268
sg13
Nsba(iGraphics.simplified_new
Scores
p221
(dp222
g10
I39
sg11
F0.6048763455636808
sg12
F177642.712
sg13
Nsba(iGraphics.simplified_new
Scores
p223
(dp224
g10
I88
sg11
F0.5264339279991439
sg12
F205835.8395
sg13
Nsba(iGraphics.simplified_new
Scores
p225
(dp226
g10
I88
sg11
F0.6002806645218319
sg12
F192815.8008
sg13
Nsba(iGraphics.simplified_new
Scores
p227
(dp228
g10
I78
sg11
F0.6000536064233195
sg12
F200630.4757
sg13
Nsba(iGraphics.simplified_new
Scores
p229
(dp230
g10
I59
sg11
F0.5496650013124178
sg12
F173887.8928
sg13
Nsba(iGraphics.simplified_new
Scores
p231
(dp232
g10
I78
sg11
F0.546452742389757
sg12
F186762.0482
sg13
Nsbasg52
S'SWAY5'
p233
sbsS'NSGAII_100'
p234
(iGraphics.simplified_new
SolutionHolder
p235
(dp236
g4
g5
sg6
(lp237
(iGraphics.simplified_new
Scores
p238
(dp239
g10
I100
sg11
F0.632517382106937
sg12
F257635.4523
sg13
Nsba(iGraphics.simplified_new
Scores
p240
(dp241
g10
I100
sg11
F0.5829236996854311
sg12
F647606.2776
sg13
Nsba(iGraphics.simplified_new
Scores
p242
(dp243
g10
I100
sg11
F0.6318319294132585
sg12
F654815.877
sg13
Nsba(iGraphics.simplified_new
Scores
p244
(dp245
g10
I100
sg11
F0.5489648855898724
sg12
F666726.9847
sg13
Nsba(iGraphics.simplified_new
Scores
p246
(dp247
g10
I100
sg11
F0.6116155977512674
sg12
F671534.1806
sg13
Nsba(iGraphics.simplified_new
Scores
p248
(dp249
g10
I100
sg11
F0.6057275949424148
sg12
F648283.6239
sg13
Nsba(iGraphics.simplified_new
Scores
p250
(dp251
g10
I100
sg11
F0.6317334919815694
sg12
F666061.1772
sg13
Nsba(iGraphics.simplified_new
Scores
p252
(dp253
g10
I100
sg11
F0.6140352962522722
sg12
F651002.8507
sg13
Nsba(iGraphics.simplified_new
Scores
p254
(dp255
g10
I100
sg11
F0.5989976764071198
sg12
F652585.0745
sg13
Nsba(iGraphics.simplified_new
Scores
p256
(dp257
g10
I100
sg11
F0.5660126207306773
sg12
F677558.4154
sg13
Nsba(iGraphics.simplified_new
Scores
p258
(dp259
g10
I100
sg11
F0.5886005508983069
sg12
F673167.9524
sg13
Nsba(iGraphics.simplified_new
Scores
p260
(dp261
g10
I100
sg11
F0.6107056644427518
sg12
F672949.6708
sg13
Nsba(iGraphics.simplified_new
Scores
p262
(dp263
g10
I100
sg11
F0.5998632315441901
sg12
F656768.8023
sg13
Nsba(iGraphics.simplified_new
Scores
p264
(dp265
g10
I100
sg11
F0.6164217560137792
sg12
F673550.6244
sg13
Nsba(iGraphics.simplified_new
Scores
p266
(dp267
g10
I100
sg11
F0.6953287578733477
sg12
F652788.0774
sg13
Nsba(iGraphics.simplified_new
Scores
p268
(dp269
g10
I100
sg11
F0.6299549593825701
sg12
F659813.4424
sg13
Nsba(iGraphics.simplified_new
Scores
p270
(dp271
g10
I100
sg11
F0.5589262648282987
sg12
F664722.8161
sg13
Nsba(iGraphics.simplified_new
Scores
p272
(dp273
g10
I100
sg11
F0.5547500543378944
sg12
F650292.8295
sg13
Nsba(iGraphics.simplified_new
Scores
p274
(dp275
g10
I100
sg11
F0.7428960285546966
sg12
F661645.5669
sg13
Nsba(iGraphics.simplified_new
Scores
p276
(dp277
g10
I100
sg11
F0.6283204825756387
sg12
F656586.2086
sg13
Nsbasg52
S'NSGAII'
p278
sbs.