(dp0
S'MONRP_50_4_5_0_90'
p1
(dp2
S'Spread'
p3
(lp4
(lp5
S'NSGAII_100'
p6
aF0.9919340314023098
aF0.6900487960348958
aF0.6278012404271683
aF0.6549384405377419
aF0.9697938224923979
aF0.6489274097710763
aF0.6546781957993951
aF0.6254589639003444
aF0.836095944292196
aF0.8537247152127195
aa(lp7
S'SPEA2_100'
p8
aF0.8084587803686643
aF0.7589955870370099
aF0.6079318347332819
aF0.641063803290973
aF0.44307085756449766
aF0.665625907342435
aF0.7072228957354169
aF0.7718127999397163
aF0.9899820737870456
aF0.9239654731750783
aasS'HV'
p9
(lp10
(lp11
S'NSGAII_100'
p12
aF284092.997
aF244503.8147
aF240780.7304
aF210115.4626
aF175371.2371
aF240741.5532
aF265213.1663
aF214319.4143
aF226976.591
aF215056.6989
aa(lp13
S'SPEA2_100'
p14
aF289673.3201
aF213402.9547
aF195724.3676
aF313114.8454
aF300527.2273
aF258064.391
aF233402.5994
aF239668.3258
aF115895.6073
aF279062.5147
aass.