(dp0
S'NSGAII_100'
p1
(iGraphics.simplified_new
SolutionHolder
p2
(dp3
S'problem'
p4
S'MONRP_50_4_5_4_110'
p5
sS'repeats'
p6
(lp7
(iGraphics.simplified_new
Scores
p8
(dp9
S'pfs'
p10
I29
sS'spread'
p11
F0.703448589993958
sS'hv'
p12
F448792.1103
sS'igd'
p13
Nsba(iGraphics.simplified_new
Scores
p14
(dp15
g10
I24
sg11
F0.6673266833931464
sg12
F487028.5666
sg13
Nsba(iGraphics.simplified_new
Scores
p16
(dp17
g10
I30
sg11
F0.5592305053332666
sg12
F474477.6197
sg13
Nsba(iGraphics.simplified_new
Scores
p18
(dp19
g10
I44
sg11
F0.5888792199626096
sg12
F412289.1612
sg13
Nsba(iGraphics.simplified_new
Scores
p20
(dp21
g10
I27
sg11
F0.6742427109682368
sg12
F508272.3837
sg13
Nsba(iGraphics.simplified_new
Scores
p22
(dp23
g10
I31
sg11
F0.6271278081399639
sg12
F450930.1442
sg13
Nsba(iGraphics.simplified_new
Scores
p24
(dp25
g10
I42
sg11
F0.5634251912901856
sg12
F478204.8919
sg13
Nsba(iGraphics.simplified_new
Scores
p26
(dp27
g10
I46
sg11
F0.5674032578942806
sg12
F493569.8307
sg13
Nsba(iGraphics.simplified_new
Scores
p28
(dp29
g10
I28
sg11
F0.6177978932897101
sg12
F415874.632
sg13
Nsba(iGraphics.simplified_new
Scores
p30
(dp31
g10
I27
sg11
F0.7055674944627013
sg12
F426556.7497
sg13
Nsba(iGraphics.simplified_new
Scores
p32
(dp33
g10
I21
sg11
F0.7683002729822945
sg12
F403812.5252
sg13
Nsba(iGraphics.simplified_new
Scores
p34
(dp35
g10
I34
sg11
F0.6109089276631364
sg12
F464886.4342
sg13
Nsba(iGraphics.simplified_new
Scores
p36
(dp37
g10
I37
sg11
F0.6299573011650144
sg12
F440392.5355
sg13
Nsba(iGraphics.simplified_new
Scores
p38
(dp39
g10
I23
sg11
F0.7495111488496896
sg12
F493968.8279
sg13
Nsba(iGraphics.simplified_new
Scores
p40
(dp41
g10
I17
sg11
F0.710328740725518
sg12
F430099.7065
sg13
Nsba(iGraphics.simplified_new
Scores
p42
(dp43
g10
I36
sg11
F0.9068087813966236
sg12
F466614.257
sg13
Nsba(iGraphics.simplified_new
Scores
p44
(dp45
g10
I43
sg11
F0.7140333170937171
sg12
F429932.3311
sg13
Nsba(iGraphics.simplified_new
Scores
p46
(dp47
g10
I36
sg11
F0.5711153598485211
sg12
F462763.6181
sg13
Nsba(iGraphics.simplified_new
Scores
p48
(dp49
g10
I26
sg11
F0.6386126505105955
sg12
F504829.5015
sg13
Nsba(iGraphics.simplified_new
Scores
p50
(dp51
g10
I42
sg11
F0.5410034986809104
sg12
F486145.3543
sg13
NsbasS'algorithm'
p52
S'NSGAII'
p53
sbsS'SPEA2_100'
p54
(iGraphics.simplified_new
SolutionHolder
p55
(dp56
g4
g5
sg6
(lp57
(iGraphics.simplified_new
Scores
p58
(dp59
g10
I20
sg11
F0.5206809182693778
sg12
F499804.7098
sg13
Nsba(iGraphics.simplified_new
Scores
p60
(dp61
g10
I32
sg11
F0.5300535714865595
sg12
F517629.4852
sg13
Nsba(iGraphics.simplified_new
Scores
p62
(dp63
g10
I22
sg11
F0.6240134476307558
sg12
F492859.4148
sg13
Nsba(iGraphics.simplified_new
Scores
p64
(dp65
g10
I26
sg11
F0.5460539158836828
sg12
F462210.8137
sg13
Nsba(iGraphics.simplified_new
Scores
p66
(dp67
g10
I31
sg11
F0.4689124484382431
sg12
F541490.8259
sg13
Nsba(iGraphics.simplified_new
Scores
p68
(dp69
g10
I28
sg11
F0.4544992113557312
sg12
F493505.5029
sg13
Nsba(iGraphics.simplified_new
Scores
p70
(dp71
g10
I36
sg11
F0.5205809653894219
sg12
F484495.9337
sg13
Nsba(iGraphics.simplified_new
Scores
p72
(dp73
g10
I36
sg11
F0.5281794490187597
sg12
F521389.6564
sg13
Nsba(iGraphics.simplified_new
Scores
p74
(dp75
g10
I20
sg11
F0.5490380109610519
sg12
F440892.2565
sg13
Nsba(iGraphics.simplified_new
Scores
p76
(dp77
g10
I43
sg11
F0.5405545093738432
sg12
F499043.3038
sg13
Nsba(iGraphics.simplified_new
Scores
p78
(dp79
g10
I23
sg11
F0.5644226164068729
sg12
F502528.8055
sg13
Nsba(iGraphics.simplified_new
Scores
p80
(dp81
g10
I23
sg11
F0.4914239641101103
sg12
F469430.2231
sg13
Nsba(iGraphics.simplified_new
Scores
p82
(dp83
g10
I35
sg11
F0.6790637364230866
sg12
F536030.6016
sg13
Nsba(iGraphics.simplified_new
Scores
p84
(dp85
g10
I42
sg11
F0.5084535992876345
sg12
F486067.0955
sg13
Nsba(iGraphics.simplified_new
Scores
p86
(dp87
g10
I26
sg11
F0.47112085175805574
sg12
F471395.6271
sg13
Nsba(iGraphics.simplified_new
Scores
p88
(dp89
g10
I28
sg11
F0.4524341507392731
sg12
F536389.3276
sg13
Nsba(iGraphics.simplified_new
Scores
p90
(dp91
g10
I31
sg11
F0.4846260077026139
sg12
F490917.3935
sg13
Nsba(iGraphics.simplified_new
Scores
p92
(dp93
g10
I31
sg11
F0.6721905253799584
sg12
F503854.1977
sg13
Nsba(iGraphics.simplified_new
Scores
p94
(dp95
g10
I33
sg11
F0.5109447823312001
sg12
F504685.6436
sg13
Nsba(iGraphics.simplified_new
Scores
p96
(dp97
g10
I33
sg11
F0.5149931652822171
sg12
F540612.2361
sg13
Nsbasg52
S'SPEA2'
p98
sbsS'SPEA2SC_100'
p99
(iGraphics.simplified_new
SolutionHolder
p100
(dp101
g4
g5
sg6
(lp102
(iGraphics.simplified_new
Scores
p103
(dp104
g10
I25
sg11
F0.583472280892327
sg12
F436830.0023
sg13
Nsba(iGraphics.simplified_new
Scores
p105
(dp106
g10
I31
sg11
F0.7041499546017376
sg12
F487269.0431
sg13
Nsba(iGraphics.simplified_new
Scores
p107
(dp108
g10
I32
sg11
F0.6454743204705953
sg12
F492889.2349
sg13
Nsba(iGraphics.simplified_new
Scores
p109
(dp110
g10
I30
sg11
F0.47239615247152034
sg12
F432692.0404
sg13
Nsba(iGraphics.simplified_new
Scores
p111
(dp112
g10
I24
sg11
F0.5841807565334128
sg12
F393886.4544
sg13
Nsba(iGraphics.simplified_new
Scores
p113
(dp114
g10
I34
sg11
F0.508671880711236
sg12
F470355.3909
sg13
Nsba(iGraphics.simplified_new
Scores
p115
(dp116
g10
I10
sg11
F0.5679664931876822
sg12
F449723.9437
sg13
Nsba(iGraphics.simplified_new
Scores
p117
(dp118
g10
I22
sg11
F0.5408526407315154
sg12
F370882.4222
sg13
Nsba(iGraphics.simplified_new
Scores
p119
(dp120
g10
I27
sg11
F0.7253914685772447
sg12
F441555.5158
sg13
Nsba(iGraphics.simplified_new
Scores
p121
(dp122
g10
I15
sg11
F0.5383448186751635
sg12
F426482.7826
sg13
Nsba(iGraphics.simplified_new
Scores
p123
(dp124
g10
I27
sg11
F0.6161900136548402
sg12
F330899.6638
sg13
Nsba(iGraphics.simplified_new
Scores
p125
(dp126
g10
I27
sg11
F0.6280719737807416
sg12
F463483.7335
sg13
Nsba(iGraphics.simplified_new
Scores
p127
(dp128
g10
I9
sg11
F0.8356165564516377
sg12
F452569.7117
sg13
Nsba(iGraphics.simplified_new
Scores
p129
(dp130
g10
I33
sg11
F0.46853040069468044
sg12
F457062.4443
sg13
Nsba(iGraphics.simplified_new
Scores
p131
(dp132
g10
I27
sg11
F0.5523261147436175
sg12
F448326.6649
sg13
Nsba(iGraphics.simplified_new
Scores
p133
(dp134
g10
I18
sg11
F0.6306367383277236
sg12
F389784.4936
sg13
Nsba(iGraphics.simplified_new
Scores
p135
(dp136
g10
I30
sg11
F0.5169365834933567
sg12
F368996.167
sg13
Nsba(iGraphics.simplified_new
Scores
p137
(dp138
g10
I20
sg11
F0.6605339542506657
sg12
F434373.8268
sg13
Nsba(iGraphics.simplified_new
Scores
p139
(dp140
g10
I20
sg11
F0.4806804567808231
sg12
F459658.597
sg13
Nsba(iGraphics.simplified_new
Scores
p141
(dp142
g10
I36
sg11
F0.5378508700808703
sg12
F451489.5527
sg13
Nsbasg52
S'SPEA2SC'
p143
sbsS'NSGAIISC_100'
p144
(iGraphics.simplified_new
SolutionHolder
p145
(dp146
g4
g5
sg6
(lp147
(iGraphics.simplified_new
Scores
p148
(dp149
g10
I26
sg11
F0.5761747016714747
sg12
F446866.631
sg13
Nsba(iGraphics.simplified_new
Scores
p150
(dp151
g10
I15
sg11
F0.7398584801536423
sg12
F363908.5086
sg13
Nsba(iGraphics.simplified_new
Scores
p152
(dp153
g10
I20
sg11
F0.6074767389084954
sg12
F368352.2832
sg13
Nsba(iGraphics.simplified_new
Scores
p154
(dp155
g10
I9
sg11
F1.0000000000000002
sg12
F218781.5527
sg13
Nsba(iGraphics.simplified_new
Scores
p156
(dp157
g10
I11
sg11
F0.8666514944464204
sg12
F388408.3815
sg13
Nsba(iGraphics.simplified_new
Scores
p158
(dp159
g10
I23
sg11
F0.7011385277330942
sg12
F462730.1866
sg13
Nsba(iGraphics.simplified_new
Scores
p160
(dp161
g10
I12
sg11
F1.1408742195420702
sg12
F385631.2792
sg13
Nsba(iGraphics.simplified_new
Scores
p162
(dp163
g10
I25
sg11
F0.5161832765377257
sg12
F450166.6594
sg13
Nsba(iGraphics.simplified_new
Scores
p164
(dp165
g10
I32
sg11
F0.6462383364491585
sg12
F479595.7349
sg13
Nsba(iGraphics.simplified_new
Scores
p166
(dp167
g10
I22
sg11
F0.5280179565148894
sg12
F472879.7381
sg13
Nsba(iGraphics.simplified_new
Scores
p168
(dp169
g10
I18
sg11
F0.7459283059917438
sg12
F451439.3648
sg13
Nsba(iGraphics.simplified_new
Scores
p170
(dp171
g10
I31
sg11
F0.6817924911620874
sg12
F435942.6379
sg13
Nsba(iGraphics.simplified_new
Scores
p172
(dp173
g10
I15
sg11
F1.234939727341339
sg12
F384521.5628
sg13
Nsba(iGraphics.simplified_new
Scores
p174
(dp175
g10
I17
sg11
F0.6708131022405688
sg12
F328056.6219
sg13
Nsba(iGraphics.simplified_new
Scores
p176
(dp177
g10
I18
sg11
F0.4838044453387517
sg12
F413095.3123
sg13
Nsba(iGraphics.simplified_new
Scores
p178
(dp179
g10
I25
sg11
F0.7597747849212673
sg12
F456026.0214
sg13
Nsba(iGraphics.simplified_new
Scores
p180
(dp181
g10
I30
sg11
F0.9949878950709673
sg12
F345202.8781
sg13
Nsba(iGraphics.simplified_new
Scores
p182
(dp183
g10
I16
sg11
F0.7501222017710096
sg12
F318885.9059
sg13
Nsba(iGraphics.simplified_new
Scores
p184
(dp185
g10
I10
sg11
F0.6500980540573659
sg12
F363116.1697
sg13
Nsba(iGraphics.simplified_new
Scores
p186
(dp187
g10
I10
sg11
F0.7928962386299323
sg12
F365342.7324
sg13
Nsbasg52
S'NSGAIISC'
p188
sbsS'SWAY5_10000'
p189
(iGraphics.simplified_new
SolutionHolder
p190
(dp191
g4
g5
sg6
(lp192
(iGraphics.simplified_new
Scores
p193
(dp194
g10
I76
sg11
F0.4936460123901647
sg12
F567707.5561
sg13
Nsba(iGraphics.simplified_new
Scores
p195
(dp196
g10
I77
sg11
F0.5515461059082634
sg12
F572634.8865
sg13
Nsba(iGraphics.simplified_new
Scores
p197
(dp198
g10
I78
sg11
F0.4436374789206577
sg12
F596314.532
sg13
Nsba(iGraphics.simplified_new
Scores
p199
(dp200
g10
I79
sg11
F0.5231986224274691
sg12
F567212.8933
sg13
Nsba(iGraphics.simplified_new
Scores
p201
(dp202
g10
I77
sg11
F0.4553465374642281
sg12
F554015.9568
sg13
Nsba(iGraphics.simplified_new
Scores
p203
(dp204
g10
I77
sg11
F0.49349179814118577
sg12
F557009.3063
sg13
Nsba(iGraphics.simplified_new
Scores
p205
(dp206
g10
I79
sg11
F0.47356201500851014
sg12
F506067.2826
sg13
Nsba(iGraphics.simplified_new
Scores
p207
(dp208
g10
I77
sg11
F0.48019066679847533
sg12
F528995.7368
sg13
Nsba(iGraphics.simplified_new
Scores
p209
(dp210
g10
I79
sg11
F0.5048324266702481
sg12
F540456.5009
sg13
Nsba(iGraphics.simplified_new
Scores
p211
(dp212
g10
I75
sg11
F0.45512954242993275
sg12
F549138.2769
sg13
Nsba(iGraphics.simplified_new
Scores
p213
(dp214
g10
I77
sg11
F0.5406584672537934
sg12
F526009.8057
sg13
Nsba(iGraphics.simplified_new
Scores
p215
(dp216
g10
I77
sg11
F0.4611659099428282
sg12
F586019.5232
sg13
Nsba(iGraphics.simplified_new
Scores
p217
(dp218
g10
I78
sg11
F0.5070764302946263
sg12
F550819.5074
sg13
Nsba(iGraphics.simplified_new
Scores
p219
(dp220
g10
I77
sg11
F0.48207591606216954
sg12
F562799.985
sg13
Nsba(iGraphics.simplified_new
Scores
p221
(dp222
g10
I78
sg11
F0.5047297178183444
sg12
F605880.0656
sg13
Nsba(iGraphics.simplified_new
Scores
p223
(dp224
g10
I78
sg11
F0.5355884278290389
sg12
F576056.7021
sg13
Nsba(iGraphics.simplified_new
Scores
p225
(dp226
g10
I77
sg11
F0.517449459874736
sg12
F562422.5882
sg13
Nsba(iGraphics.simplified_new
Scores
p227
(dp228
g10
I78
sg11
F0.46928355019050677
sg12
F532654.3111
sg13
Nsba(iGraphics.simplified_new
Scores
p229
(dp230
g10
I77
sg11
F0.48319169576913173
sg12
F588002.3392
sg13
Nsba(iGraphics.simplified_new
Scores
p231
(dp232
g10
I76
sg11
F0.4502720533865074
sg12
F563018.6954
sg13
Nsbasg52
S'SWAY5'
p233
sbs.