(dp0
S'SPEA2_100'
p1
(iGraphics.simplified_new
SolutionHolder
p2
(dp3
S'problem'
p4
S'MONRP_50_4_5_4_110'
p5
sS'repeats'
p6
(lp7
(iGraphics.simplified_new
Scores
p8
(dp9
S'pfs'
p10
I100
sS'spread'
p11
F0.5194578626215739
sS'hv'
p12
F352894.5271
sS'igd'
p13
Nsba(iGraphics.simplified_new
Scores
p14
(dp15
g10
I100
sg11
F0.47321952470194145
sg12
F353747.9391
sg13
Nsba(iGraphics.simplified_new
Scores
p16
(dp17
g10
I100
sg11
F0.5545899157026433
sg12
F349976.7747
sg13
Nsba(iGraphics.simplified_new
Scores
p18
(dp19
g10
I100
sg11
F0.5700916777295267
sg12
F346428.2019
sg13
Nsba(iGraphics.simplified_new
Scores
p20
(dp21
g10
I100
sg11
F0.6261767955664972
sg12
F354623.7896
sg13
Nsba(iGraphics.simplified_new
Scores
p22
(dp23
g10
I100
sg11
F0.6000871099104673
sg12
F353777.2843
sg13
Nsba(iGraphics.simplified_new
Scores
p24
(dp25
g10
I100
sg11
F0.6288432370503412
sg12
F354661.1265
sg13
Nsba(iGraphics.simplified_new
Scores
p26
(dp27
g10
I100
sg11
F0.5459425300385904
sg12
F353009.1367
sg13
Nsba(iGraphics.simplified_new
Scores
p28
(dp29
g10
I100
sg11
F0.5884643854314345
sg12
F363835.0206
sg13
Nsba(iGraphics.simplified_new
Scores
p30
(dp31
g10
I100
sg11
F0.5803485043272973
sg12
F348487.9553
sg13
Nsba(iGraphics.simplified_new
Scores
p32
(dp33
g10
I100
sg11
F0.647836328358156
sg12
F363407.9862
sg13
Nsba(iGraphics.simplified_new
Scores
p34
(dp35
g10
I100
sg11
F0.5740865758955884
sg12
F357645.0503
sg13
Nsba(iGraphics.simplified_new
Scores
p36
(dp37
g10
I100
sg11
F0.5522395451445661
sg12
F337714.5323
sg13
Nsba(iGraphics.simplified_new
Scores
p38
(dp39
g10
I100
sg11
F0.5830188926476365
sg12
F350601.5424
sg13
Nsba(iGraphics.simplified_new
Scores
p40
(dp41
g10
I100
sg11
F0.5686266349333959
sg12
F349057.9867
sg13
Nsba(iGraphics.simplified_new
Scores
p42
(dp43
g10
I100
sg11
F0.587012963563652
sg12
F352470.5015
sg13
Nsba(iGraphics.simplified_new
Scores
p44
(dp45
g10
I100
sg11
F0.574820585701895
sg12
F351806.3413
sg13
Nsba(iGraphics.simplified_new
Scores
p46
(dp47
g10
I100
sg11
F0.5898006719690292
sg12
F354621.3165
sg13
Nsba(iGraphics.simplified_new
Scores
p48
(dp49
g10
I100
sg11
F0.5684881887318484
sg12
F355067.8579
sg13
Nsba(iGraphics.simplified_new
Scores
p50
(dp51
g10
I100
sg11
F0.535057268939047
sg12
F364245.9677
sg13
NsbasS'algorithm'
p52
S'SPEA2'
p53
sbsS'SWAY5_1225'
p54
(iGraphics.simplified_new
SolutionHolder
p55
(dp56
g4
g5
sg6
(lp57
(iGraphics.simplified_new
Scores
p58
(dp59
g10
I19
sg11
F0.7628190122165294
sg12
F93941.8001
sg13
Nsba(iGraphics.simplified_new
Scores
p60
(dp61
g10
I33
sg11
F0.6200642638406217
sg12
F113977.2357
sg13
Nsba(iGraphics.simplified_new
Scores
p62
(dp63
g10
I20
sg11
F0.6142680420086092
sg12
F108492.5427
sg13
Nsba(iGraphics.simplified_new
Scores
p64
(dp65
g10
I29
sg11
F0.6140771862607528
sg12
F111385.8487
sg13
Nsba(iGraphics.simplified_new
Scores
p66
(dp67
g10
I19
sg11
F0.7726385717554638
sg12
F100505.941
sg13
Nsba(iGraphics.simplified_new
Scores
p68
(dp69
g10
I29
sg11
F0.660156932177321
sg12
F118170.2948
sg13
Nsba(iGraphics.simplified_new
Scores
p70
(dp71
g10
I22
sg11
F0.6853424641002532
sg12
F98149.7101
sg13
Nsba(iGraphics.simplified_new
Scores
p72
(dp73
g10
I22
sg11
F0.6423977606853051
sg12
F95051.2474
sg13
Nsba(iGraphics.simplified_new
Scores
p74
(dp75
g10
I33
sg11
F0.579248227441252
sg12
F117351.8814
sg13
Nsba(iGraphics.simplified_new
Scores
p76
(dp77
g10
I29
sg11
F0.669425364098979
sg12
F106299.229
sg13
Nsba(iGraphics.simplified_new
Scores
p78
(dp79
g10
I19
sg11
F0.7532642656676689
sg12
F97426.0837
sg13
Nsba(iGraphics.simplified_new
Scores
p80
(dp81
g10
I33
sg11
F0.7433810438156763
sg12
F108615.4009
sg13
Nsba(iGraphics.simplified_new
Scores
p82
(dp83
g10
I34
sg11
F0.7676038601895662
sg12
F111275.0894
sg13
Nsba(iGraphics.simplified_new
Scores
p84
(dp85
g10
I26
sg11
F0.6212611425743664
sg12
F111919.4402
sg13
Nsba(iGraphics.simplified_new
Scores
p86
(dp87
g10
I19
sg11
F0.6458425222048536
sg12
F115285.9439
sg13
Nsba(iGraphics.simplified_new
Scores
p88
(dp89
g10
I19
sg11
F0.7424107321053971
sg12
F101952.7504
sg13
Nsba(iGraphics.simplified_new
Scores
p90
(dp91
g10
I19
sg11
F0.7395989319542295
sg12
F97162.5136
sg13
Nsba(iGraphics.simplified_new
Scores
p92
(dp93
g10
I19
sg11
F0.6980845551781681
sg12
F121584.8651
sg13
Nsba(iGraphics.simplified_new
Scores
p94
(dp95
g10
I19
sg11
F0.7618097493788796
sg12
F96818.6037
sg13
Nsba(iGraphics.simplified_new
Scores
p96
(dp97
g10
I19
sg11
F0.6223017600980002
sg12
F103929.3025
sg13
Nsbasg52
S'SWAY5'
p98
sbsS'SWAY5_5000'
p99
(iGraphics.simplified_new
SolutionHolder
p100
(dp101
g4
g5
sg6
(lp102
(iGraphics.simplified_new
Scores
p103
(dp104
g10
I34
sg11
F0.5142615089780961
sg12
F637344.8535
sg13
Nsba(iGraphics.simplified_new
Scores
p105
(dp106
g10
I58
sg11
F0.5421893533150672
sg12
F642461.9399
sg13
Nsba(iGraphics.simplified_new
Scores
p107
(dp108
g10
I36
sg11
F0.5496471724937365
sg12
F590350.5292
sg13
Nsba(iGraphics.simplified_new
Scores
p109
(dp110
g10
I39
sg11
F0.6055075544863154
sg12
F604524.1502
sg13
Nsba(iGraphics.simplified_new
Scores
p111
(dp112
g10
I44
sg11
F0.6117467202287574
sg12
F661220.473
sg13
Nsba(iGraphics.simplified_new
Scores
p113
(dp114
g10
I36
sg11
F0.5058569471772775
sg12
F610915.5644
sg13
Nsba(iGraphics.simplified_new
Scores
p115
(dp116
g10
I42
sg11
F0.5392282436798835
sg12
F622937.279
sg13
Nsba(iGraphics.simplified_new
Scores
p117
(dp118
g10
I39
sg11
F0.5740095609762529
sg12
F631871.0407
sg13
Nsba(iGraphics.simplified_new
Scores
p119
(dp120
g10
I35
sg11
F0.5729990013562946
sg12
F603180.9538
sg13
Nsba(iGraphics.simplified_new
Scores
p121
(dp122
g10
I68
sg11
F0.5780874537246216
sg12
F633713.1215
sg13
Nsba(iGraphics.simplified_new
Scores
p123
(dp124
g10
I69
sg11
F0.5701341504153299
sg12
F672691.9103
sg13
Nsba(iGraphics.simplified_new
Scores
p125
(dp126
g10
I54
sg11
F0.6248634389451955
sg12
F618346.0026
sg13
Nsba(iGraphics.simplified_new
Scores
p127
(dp128
g10
I49
sg11
F0.5174532790590762
sg12
F687136.665
sg13
Nsba(iGraphics.simplified_new
Scores
p129
(dp130
g10
I68
sg11
F0.5979973122883261
sg12
F642697.1637
sg13
Nsba(iGraphics.simplified_new
Scores
p131
(dp132
g10
I59
sg11
F0.5822758849844558
sg12
F605832.2071
sg13
Nsba(iGraphics.simplified_new
Scores
p133
(dp134
g10
I39
sg11
F0.5786710352238846
sg12
F638316.4832
sg13
Nsba(iGraphics.simplified_new
Scores
p135
(dp136
g10
I59
sg11
F0.5702156190283526
sg12
F635266.7802
sg13
Nsba(iGraphics.simplified_new
Scores
p137
(dp138
g10
I67
sg11
F0.5839511094194106
sg12
F678259.271
sg13
Nsba(iGraphics.simplified_new
Scores
p139
(dp140
g10
I38
sg11
F0.5561490712053752
sg12
F649600.4546
sg13
Nsba(iGraphics.simplified_new
Scores
p141
(dp142
g10
I39
sg11
F0.5611136320249727
sg12
F542223.0625
sg13
Nsbasg52
S'SWAY5'
p143
sbsS'SWAY5_2500'
p144
(iGraphics.simplified_new
SolutionHolder
p145
(dp146
g4
g5
sg6
(lp147
(iGraphics.simplified_new
Scores
p148
(dp149
g10
I29
sg11
F0.6308306474648613
sg12
F227582.7317
sg13
Nsba(iGraphics.simplified_new
Scores
p150
(dp151
g10
I27
sg11
F0.6531003530116192
sg12
F255117.8748
sg13
Nsba(iGraphics.simplified_new
Scores
p152
(dp153
g10
I29
sg11
F0.6141962039305338
sg12
F267669.2587
sg13
Nsba(iGraphics.simplified_new
Scores
p154
(dp155
g10
I30
sg11
F0.7018691147301841
sg12
F301056.9479
sg13
Nsba(iGraphics.simplified_new
Scores
p156
(dp157
g10
I36
sg11
F0.6028079557654962
sg12
F302861.8953
sg13
Nsba(iGraphics.simplified_new
Scores
p158
(dp159
g10
I32
sg11
F0.559169021154552
sg12
F258418.8698
sg13
Nsba(iGraphics.simplified_new
Scores
p160
(dp161
g10
I22
sg11
F0.5033026530002931
sg12
F272208.0306
sg13
Nsba(iGraphics.simplified_new
Scores
p162
(dp163
g10
I29
sg11
F0.6332186588966798
sg12
F247874.4201
sg13
Nsba(iGraphics.simplified_new
Scores
p164
(dp165
g10
I19
sg11
F0.6892119201412642
sg12
F222185.4002
sg13
Nsba(iGraphics.simplified_new
Scores
p166
(dp167
g10
I44
sg11
F0.586099059462152
sg12
F267535.3644
sg13
Nsba(iGraphics.simplified_new
Scores
p168
(dp169
g10
I28
sg11
F0.5691133990540173
sg12
F248049.4398
sg13
Nsba(iGraphics.simplified_new
Scores
p170
(dp171
g10
I39
sg11
F0.4219551466216517
sg12
F280437.8367
sg13
Nsba(iGraphics.simplified_new
Scores
p172
(dp173
g10
I19
sg11
F0.6679091902721105
sg12
F250368.8669
sg13
Nsba(iGraphics.simplified_new
Scores
p174
(dp175
g10
I39
sg11
F0.5547327056441969
sg12
F273643.694
sg13
Nsba(iGraphics.simplified_new
Scores
p176
(dp177
g10
I29
sg11
F0.7431174652511593
sg12
F253821.5131
sg13
Nsba(iGraphics.simplified_new
Scores
p178
(dp179
g10
I26
sg11
F0.6626128990795679
sg12
F291165.5062
sg13
Nsba(iGraphics.simplified_new
Scores
p180
(dp181
g10
I29
sg11
F0.626527918996341
sg12
F277562.6174
sg13
Nsba(iGraphics.simplified_new
Scores
p182
(dp183
g10
I48
sg11
F0.6385539286863093
sg12
F277708.8156
sg13
Nsba(iGraphics.simplified_new
Scores
p184
(dp185
g10
I37
sg11
F0.5623916052799761
sg12
F280983.6155
sg13
Nsba(iGraphics.simplified_new
Scores
p186
(dp187
g10
I25
sg11
F0.6249955236671096
sg12
F266454.2606
sg13
Nsbasg52
S'SWAY5'
p188
sbsS'SWAY5_10000'
p189
(iGraphics.simplified_new
SolutionHolder
p190
(dp191
g4
g5
sg6
(lp192
(iGraphics.simplified_new
Scores
p193
(dp194
g10
I94
sg11
F0.536813547947097
sg12
F447955.3174
sg13
Nsba(iGraphics.simplified_new
Scores
p195
(dp196
g10
I68
sg11
F0.5764678866177166
sg12
F392215.8751
sg13
Nsba(iGraphics.simplified_new
Scores
p197
(dp198
g10
I96
sg11
F0.507291514728893
sg12
F455837.1209
sg13
Nsba(iGraphics.simplified_new
Scores
p199
(dp200
g10
I58
sg11
F0.5471743014261387
sg12
F401765.7322
sg13
Nsba(iGraphics.simplified_new
Scores
p201
(dp202
g10
I90
sg11
F0.5230843049255082
sg12
F418627.3596
sg13
Nsba(iGraphics.simplified_new
Scores
p203
(dp204
g10
I37
sg11
F0.6291927081316591
sg12
F406610.6687
sg13
Nsba(iGraphics.simplified_new
Scores
p205
(dp206
g10
I39
sg11
F0.6128335587245263
sg12
F404351.3249
sg13
Nsba(iGraphics.simplified_new
Scores
p207
(dp208
g10
I39
sg11
F0.6207913886057129
sg12
F338230.714
sg13
Nsba(iGraphics.simplified_new
Scores
p209
(dp210
g10
I33
sg11
F0.5568009671194865
sg12
F359646.6738
sg13
Nsba(iGraphics.simplified_new
Scores
p211
(dp212
g10
I68
sg11
F0.5204167207152911
sg12
F422942.3967
sg13
Nsba(iGraphics.simplified_new
Scores
p213
(dp214
g10
I29
sg11
F0.6136123765239753
sg12
F381678.197
sg13
Nsba(iGraphics.simplified_new
Scores
p215
(dp216
g10
I55
sg11
F0.5516290991174492
sg12
F418080.1427
sg13
Nsba(iGraphics.simplified_new
Scores
p217
(dp218
g10
I68
sg11
F0.6288383472096956
sg12
F383723.2384
sg13
Nsba(iGraphics.simplified_new
Scores
p219
(dp220
g10
I83
sg11
F0.5142617387254111
sg12
F417913.5481
sg13
Nsba(iGraphics.simplified_new
Scores
p221
(dp222
g10
I54
sg11
F0.53994661633081
sg12
F416984.2487
sg13
Nsba(iGraphics.simplified_new
Scores
p223
(dp224
g10
I68
sg11
F0.5251024721344918
sg12
F394217.2501
sg13
Nsba(iGraphics.simplified_new
Scores
p225
(dp226
g10
I85
sg11
F0.5529027134230916
sg12
F419089.3589
sg13
Nsba(iGraphics.simplified_new
Scores
p227
(dp228
g10
I58
sg11
F0.5301123757157871
sg12
F409181.0083
sg13
Nsba(iGraphics.simplified_new
Scores
p229
(dp230
g10
I33
sg11
F0.5212530671552028
sg12
F413997.8723
sg13
Nsba(iGraphics.simplified_new
Scores
p231
(dp232
g10
I77
sg11
F0.6098301671135754
sg12
F392967.2668
sg13
Nsbasg52
S'SWAY5'
p233
sbsS'NSGAII_100'
p234
(iGraphics.simplified_new
SolutionHolder
p235
(dp236
g4
g5
sg6
(lp237
(iGraphics.simplified_new
Scores
p238
(dp239
g10
I100
sg11
F0.6211456570236104
sg12
F353821.2133
sg13
Nsba(iGraphics.simplified_new
Scores
p240
(dp241
g10
I100
sg11
F0.6466702035568737
sg12
F357850.2249
sg13
Nsba(iGraphics.simplified_new
Scores
p242
(dp243
g10
I100
sg11
F0.6045934749600967
sg12
F357369.0193
sg13
Nsba(iGraphics.simplified_new
Scores
p244
(dp245
g10
I100
sg11
F0.6806878342486611
sg12
F347322.7149
sg13
Nsba(iGraphics.simplified_new
Scores
p246
(dp247
g10
I100
sg11
F0.677235705292105
sg12
F356125.0095
sg13
Nsba(iGraphics.simplified_new
Scores
p248
(dp249
g10
I100
sg11
F0.6470987867912209
sg12
F344615.0153
sg13
Nsba(iGraphics.simplified_new
Scores
p250
(dp251
g10
I100
sg11
F0.6473232571982885
sg12
F361398.3721
sg13
Nsba(iGraphics.simplified_new
Scores
p252
(dp253
g10
I100
sg11
F0.6032131443428618
sg12
F353975.2427
sg13
Nsba(iGraphics.simplified_new
Scores
p254
(dp255
g10
I100
sg11
F0.6216989798094352
sg12
F352094.1751
sg13
Nsba(iGraphics.simplified_new
Scores
p256
(dp257
g10
I100
sg11
F0.628288397141694
sg12
F351496.4137
sg13
Nsba(iGraphics.simplified_new
Scores
p258
(dp259
g10
I100
sg11
F0.6307487989214082
sg12
F361233.156
sg13
Nsba(iGraphics.simplified_new
Scores
p260
(dp261
g10
I100
sg11
F0.6761128775529207
sg12
F354209.3692
sg13
Nsba(iGraphics.simplified_new
Scores
p262
(dp263
g10
I100
sg11
F0.6342783562913963
sg12
F339861.2112
sg13
Nsba(iGraphics.simplified_new
Scores
p264
(dp265
g10
I100
sg11
F0.600614264338461
sg12
F353888.0746
sg13
Nsba(iGraphics.simplified_new
Scores
p266
(dp267
g10
I100
sg11
F0.6320177320376257
sg12
F360769.0827
sg13
Nsba(iGraphics.simplified_new
Scores
p268
(dp269
g10
I100
sg11
F0.6860655272309343
sg12
F358055.0953
sg13
Nsba(iGraphics.simplified_new
Scores
p270
(dp271
g10
I100
sg11
F0.5619523568370646
sg12
F343907.3233
sg13
Nsba(iGraphics.simplified_new
Scores
p272
(dp273
g10
I100
sg11
F0.6774263910612404
sg12
F349835.6232
sg13
Nsba(iGraphics.simplified_new
Scores
p274
(dp275
g10
I100
sg11
F0.6901939214663743
sg12
F350635.0358
sg13
Nsba(iGraphics.simplified_new
Scores
p276
(dp277
g10
I100
sg11
F0.6044161816065439
sg12
F329761.586
sg13
Nsbasg52
S'NSGAII'
p278
sbs.