(dp0
S'NSGAII_100'
p1
(iGraphics.simplified_new
SolutionHolder
p2
(dp3
S'problem'
p4
S'MONRP_50_4_5_4_90'
p5
sS'repeats'
p6
(lp7
(iGraphics.simplified_new
Scores
p8
(dp9
S'pfs'
p10
I10
sS'spread'
p11
F0.7760661823591599
sS'hv'
p12
F359661.8458
sS'igd'
p13
Nsba(iGraphics.simplified_new
Scores
p14
(dp15
g10
I20
sg11
F0.6372360483632613
sg12
F342382.9405
sg13
Nsba(iGraphics.simplified_new
Scores
p16
(dp17
g10
I15
sg11
F0.7337798855047764
sg12
F397702.9491
sg13
Nsba(iGraphics.simplified_new
Scores
p18
(dp19
g10
I6
sg11
F1.0164414604077547
sg12
F281094.7506
sg13
Nsba(iGraphics.simplified_new
Scores
p20
(dp21
g10
I14
sg11
F0.6972391687085447
sg12
F344828.2106
sg13
Nsba(iGraphics.simplified_new
Scores
p22
(dp23
g10
I14
sg11
F0.8483151097497883
sg12
F380905.201
sg13
Nsba(iGraphics.simplified_new
Scores
p24
(dp25
g10
I18
sg11
F0.8307942488403873
sg12
F326891.0731
sg13
Nsba(iGraphics.simplified_new
Scores
p26
(dp27
g10
I34
sg11
F0.6726511760416531
sg12
F389724.3141
sg13
Nsba(iGraphics.simplified_new
Scores
p28
(dp29
g10
I22
sg11
F0.7988361018832357
sg12
F397846.6345
sg13
Nsba(iGraphics.simplified_new
Scores
p30
(dp31
g10
I9
sg11
F0.8859655684376746
sg12
F254423.4538
sg13
Nsba(iGraphics.simplified_new
Scores
p32
(dp33
g10
I13
sg11
F0.7044098252956613
sg12
F297835.3307
sg13
Nsba(iGraphics.simplified_new
Scores
p34
(dp35
g10
I14
sg11
F0.6803214670538489
sg12
F371842.2736
sg13
Nsba(iGraphics.simplified_new
Scores
p36
(dp37
g10
I29
sg11
F0.6097290567596264
sg12
F409090.3559
sg13
Nsba(iGraphics.simplified_new
Scores
p38
(dp39
g10
I31
sg11
F0.7105090707357622
sg12
F366945.8526
sg13
Nsba(iGraphics.simplified_new
Scores
p40
(dp41
g10
I16
sg11
F0.749457301651749
sg12
F192092.3305
sg13
Nsba(iGraphics.simplified_new
Scores
p42
(dp43
g10
I17
sg11
F0.6985476873715581
sg12
F344070.4559
sg13
Nsba(iGraphics.simplified_new
Scores
p44
(dp45
g10
I29
sg11
F0.6375347224383917
sg12
F396884.1403
sg13
Nsba(iGraphics.simplified_new
Scores
p46
(dp47
g10
I24
sg11
F0.6441103445994572
sg12
F282048.0784
sg13
Nsba(iGraphics.simplified_new
Scores
p48
(dp49
g10
I9
sg11
F0.8991459431295612
sg12
F304982.5077
sg13
Nsba(iGraphics.simplified_new
Scores
p50
(dp51
g10
I18
sg11
F0.9625495830981633
sg12
F360400.624
sg13
NsbasS'algorithm'
p52
S'NSGAII'
p53
sbsS'SPEA2_100'
p54
(iGraphics.simplified_new
SolutionHolder
p55
(dp56
g4
g5
sg6
(lp57
(iGraphics.simplified_new
Scores
p58
(dp59
g10
I22
sg11
F0.44964232373239704
sg12
F358231.048
sg13
Nsba(iGraphics.simplified_new
Scores
p60
(dp61
g10
I11
sg11
F0.6552672587599562
sg12
F370851.7449
sg13
Nsba(iGraphics.simplified_new
Scores
p62
(dp63
g10
I25
sg11
F0.6625445599109425
sg12
F402525.7764
sg13
Nsba(iGraphics.simplified_new
Scores
p64
(dp65
g10
I13
sg11
F0.5610400481142449
sg12
F249341.5331
sg13
Nsba(iGraphics.simplified_new
Scores
p66
(dp67
g10
I22
sg11
F0.6231292953437949
sg12
F397437.8169
sg13
Nsba(iGraphics.simplified_new
Scores
p68
(dp69
g10
I17
sg11
F0.5551699338355677
sg12
F316543.2956
sg13
Nsba(iGraphics.simplified_new
Scores
p70
(dp71
g10
I22
sg11
F0.4618633083124234
sg12
F371137.4068
sg13
Nsba(iGraphics.simplified_new
Scores
p72
(dp73
g10
I2
sg11
F1.0
sg12
F117423.051
sg13
Nsba(iGraphics.simplified_new
Scores
p74
(dp75
g10
I15
sg11
F0.7091806120894399
sg12
F362632.6161
sg13
Nsba(iGraphics.simplified_new
Scores
p76
(dp77
g10
I19
sg11
F0.4931499461437134
sg12
F409302.9996
sg13
Nsba(iGraphics.simplified_new
Scores
p78
(dp79
g10
I24
sg11
F0.7117242530118553
sg12
F365277.8544
sg13
Nsba(iGraphics.simplified_new
Scores
p80
(dp81
g10
I16
sg11
F0.638694098475853
sg12
F389651.9381
sg13
Nsba(iGraphics.simplified_new
Scores
p82
(dp83
g10
I14
sg11
F0.4701782871677893
sg12
F401223.7781
sg13
Nsba(iGraphics.simplified_new
Scores
p84
(dp85
g10
I23
sg11
F0.5648615693707059
sg12
F399251.1909
sg13
Nsba(iGraphics.simplified_new
Scores
p86
(dp87
g10
I10
sg11
F0.7638673661916
sg12
F207229.3075
sg13
Nsba(iGraphics.simplified_new
Scores
p88
(dp89
g10
I14
sg11
F0.6825772798102241
sg12
F401639.7454
sg13
Nsba(iGraphics.simplified_new
Scores
p90
(dp91
g10
I15
sg11
F0.7270504263511325
sg12
F266993.3508
sg13
Nsba(iGraphics.simplified_new
Scores
p92
(dp93
g10
I30
sg11
F0.6453008709809988
sg12
F326295.2376
sg13
Nsba(iGraphics.simplified_new
Scores
p94
(dp95
g10
I13
sg11
F0.7911968348322693
sg12
F372121.9533
sg13
Nsba(iGraphics.simplified_new
Scores
p96
(dp97
g10
I21
sg11
F0.5684895159780564
sg12
F362521.6969
sg13
Nsbasg52
S'SPEA2'
p98
sbsS'SPEA2SC_100'
p99
(iGraphics.simplified_new
SolutionHolder
p100
(dp101
g4
g5
sg6
(lp102
(iGraphics.simplified_new
Scores
p103
(dp104
g10
I12
sg11
F0.8511229560448695
sg12
F378199.2677
sg13
Nsba(iGraphics.simplified_new
Scores
p105
(dp106
g10
I25
sg11
F0.48678875122737847
sg12
F402173.5432
sg13
Nsba(iGraphics.simplified_new
Scores
p107
(dp108
g10
I22
sg11
F0.6346208535818191
sg12
F358531.8644
sg13
Nsba(iGraphics.simplified_new
Scores
p109
(dp110
g10
I13
sg11
F0.6140281528648222
sg12
F415144.5385
sg13
Nsba(iGraphics.simplified_new
Scores
p111
(dp112
g10
I13
sg11
F0.6757483023559905
sg12
F430084.704
sg13
Nsba(iGraphics.simplified_new
Scores
p113
(dp114
g10
I11
sg11
F0.6648394980234862
sg12
F403956.2487
sg13
Nsba(iGraphics.simplified_new
Scores
p115
(dp116
g10
I10
sg11
F0.7485653013579976
sg12
F385909.4058
sg13
Nsba(iGraphics.simplified_new
Scores
p117
(dp118
g10
I16
sg11
F0.6912963238041332
sg12
F427663.04
sg13
Nsba(iGraphics.simplified_new
Scores
p119
(dp120
g10
I11
sg11
F0.6345271087761644
sg12
F365030.2357
sg13
Nsba(iGraphics.simplified_new
Scores
p121
(dp122
g10
I16
sg11
F0.711718775100375
sg12
F317384.3472
sg13
Nsba(iGraphics.simplified_new
Scores
p123
(dp124
g10
I17
sg11
F0.49577490106860833
sg12
F374545.0017
sg13
Nsba(iGraphics.simplified_new
Scores
p125
(dp126
g10
I18
sg11
F0.6347474627777898
sg12
F418302.3632
sg13
Nsba(iGraphics.simplified_new
Scores
p127
(dp128
g10
I23
sg11
F0.5815662302334884
sg12
F390295.3078
sg13
Nsba(iGraphics.simplified_new
Scores
p129
(dp130
g10
I29
sg11
F0.6727806180276791
sg12
F416162.1168
sg13
Nsba(iGraphics.simplified_new
Scores
p131
(dp132
g10
I4
sg11
F0.8182195603296487
sg12
F226160.7587
sg13
Nsba(iGraphics.simplified_new
Scores
p133
(dp134
g10
I20
sg11
F0.7220890427102189
sg12
F414328.6184
sg13
Nsba(iGraphics.simplified_new
Scores
p135
(dp136
g10
I11
sg11
F0.7980049743109656
sg12
F311964.3545
sg13
Nsba(iGraphics.simplified_new
Scores
p137
(dp138
g10
I3
sg11
F0.7139948340424284
sg12
F249372.9345
sg13
Nsba(iGraphics.simplified_new
Scores
p139
(dp140
g10
I10
sg11
F0.48483468080440273
sg12
F406639.4109
sg13
Nsba(iGraphics.simplified_new
Scores
p141
(dp142
g10
I10
sg11
F0.6054518309151193
sg12
F292918.5887
sg13
Nsbasg52
S'SPEA2SC'
p143
sbsS'NSGAIISC_100'
p144
(iGraphics.simplified_new
SolutionHolder
p145
(dp146
g4
g5
sg6
(lp147
(iGraphics.simplified_new
Scores
p148
(dp149
g10
I11
sg11
F0.9190744373468293
sg12
F222569.546
sg13
Nsba(iGraphics.simplified_new
Scores
p150
(dp151
g10
I15
sg11
F0.6602120856798741
sg12
F366884.1787
sg13
Nsba(iGraphics.simplified_new
Scores
p152
(dp153
g10
I10
sg11
F0.6815389702414769
sg12
F394941.6092
sg13
Nsba(iGraphics.simplified_new
Scores
p154
(dp155
g10
I12
sg11
F0.9038500769431927
sg12
F256016.1469
sg13
Nsba(iGraphics.simplified_new
Scores
p156
(dp157
g10
I7
sg11
F0.8577183086409675
sg12
F337245.708
sg13
Nsba(iGraphics.simplified_new
Scores
p158
(dp159
g10
I12
sg11
F0.8599543721806598
sg12
F338699.7453
sg13
Nsba(iGraphics.simplified_new
Scores
p160
(dp161
g10
I15
sg11
F1.0410000858870212
sg12
F236780.7845
sg13
Nsba(iGraphics.simplified_new
Scores
p162
(dp163
g10
I13
sg11
F0.8546915663821045
sg12
F377557.1128
sg13
Nsba(iGraphics.simplified_new
Scores
p164
(dp165
g10
I10
sg11
F0.7144809758999257
sg12
F266864.2499
sg13
Nsba(iGraphics.simplified_new
Scores
p166
(dp167
g10
I3
sg11
F1.0
sg12
F165195.7689
sg13
Nsba(iGraphics.simplified_new
Scores
p168
(dp169
g10
I18
sg11
F0.5960108270123291
sg12
F356914.1565
sg13
Nsba(iGraphics.simplified_new
Scores
p170
(dp171
g10
I8
sg11
F0.6250390397077465
sg12
F350617.4794
sg13
Nsba(iGraphics.simplified_new
Scores
p172
(dp173
g10
I13
sg11
F0.7504854759377481
sg12
F359346.1476
sg13
Nsba(iGraphics.simplified_new
Scores
p174
(dp175
g10
I15
sg11
F0.8232035462376908
sg12
F212113.6813
sg13
Nsba(iGraphics.simplified_new
Scores
p176
(dp177
g10
I22
sg11
F0.7495067210181787
sg12
F376989.7661
sg13
Nsba(iGraphics.simplified_new
Scores
p178
(dp179
g10
I11
sg11
F1.0497552632845653
sg12
F402741.9973
sg13
Nsba(iGraphics.simplified_new
Scores
p180
(dp181
g10
I12
sg11
F0.9468077682747031
sg12
F315856.9184
sg13
Nsba(iGraphics.simplified_new
Scores
p182
(dp183
g10
I10
sg11
F0.808901015560076
sg12
F364155.7881
sg13
Nsba(iGraphics.simplified_new
Scores
p184
(dp185
g10
I20
sg11
F0.6814456673460005
sg12
F398280.4923
sg13
Nsba(iGraphics.simplified_new
Scores
p186
(dp187
g10
I18
sg11
F0.8053371766727685
sg12
F394128.4715
sg13
Nsbasg52
S'NSGAIISC'
p188
sbsS'SWAY5_10000'
p189
(iGraphics.simplified_new
SolutionHolder
p190
(dp191
g4
g5
sg6
(lp192
(iGraphics.simplified_new
Scores
p193
(dp194
g10
I78
sg11
F0.5329070641514533
sg12
F610726.9053
sg13
Nsba(iGraphics.simplified_new
Scores
p195
(dp196
g10
I78
sg11
F0.5342002516302505
sg12
F574940.1575
sg13
Nsba(iGraphics.simplified_new
Scores
p197
(dp198
g10
I78
sg11
F0.49608952066628237
sg12
F598050.7264
sg13
Nsba(iGraphics.simplified_new
Scores
p199
(dp200
g10
I77
sg11
F0.5007758134829519
sg12
F574545.2223
sg13
Nsba(iGraphics.simplified_new
Scores
p201
(dp202
g10
I78
sg11
F0.5938426790935359
sg12
F581468.1311
sg13
Nsba(iGraphics.simplified_new
Scores
p203
(dp204
g10
I76
sg11
F0.41986681162924855
sg12
F599266.9981
sg13
Nsba(iGraphics.simplified_new
Scores
p205
(dp206
g10
I78
sg11
F0.5527946577429793
sg12
F612529.1546
sg13
Nsba(iGraphics.simplified_new
Scores
p207
(dp208
g10
I77
sg11
F0.5045455748188971
sg12
F556162.0396
sg13
Nsba(iGraphics.simplified_new
Scores
p209
(dp210
g10
I79
sg11
F0.5157471780594602
sg12
F572232.1763
sg13
Nsba(iGraphics.simplified_new
Scores
p211
(dp212
g10
I79
sg11
F0.6198672295528923
sg12
F566251.0381
sg13
Nsba(iGraphics.simplified_new
Scores
p213
(dp214
g10
I77
sg11
F0.49456678076162164
sg12
F571234.3085
sg13
Nsba(iGraphics.simplified_new
Scores
p215
(dp216
g10
I78
sg11
F0.5612725079258506
sg12
F613102.6042
sg13
Nsba(iGraphics.simplified_new
Scores
p217
(dp218
g10
I79
sg11
F0.5422008692290082
sg12
F568969.0604
sg13
Nsba(iGraphics.simplified_new
Scores
p219
(dp220
g10
I75
sg11
F0.4784790680013995
sg12
F586485.674
sg13
Nsba(iGraphics.simplified_new
Scores
p221
(dp222
g10
I75
sg11
F0.5207354196490223
sg12
F538160.7465
sg13
Nsba(iGraphics.simplified_new
Scores
p223
(dp224
g10
I79
sg11
F0.48637050892578554
sg12
F563513.5602
sg13
Nsba(iGraphics.simplified_new
Scores
p225
(dp226
g10
I77
sg11
F0.5327084349226567
sg12
F600196.9592
sg13
Nsba(iGraphics.simplified_new
Scores
p227
(dp228
g10
I76
sg11
F0.47828534920873866
sg12
F541944.8579
sg13
Nsba(iGraphics.simplified_new
Scores
p229
(dp230
g10
I77
sg11
F0.4837033579206104
sg12
F553015.4524
sg13
Nsba(iGraphics.simplified_new
Scores
p231
(dp232
g10
I79
sg11
F0.5282438075330609
sg12
F549910.9559
sg13
Nsbasg52
S'SWAY5'
p233
sbs.