(dp0
S'SPEA2_100'
p1
(iGraphics.simplified_new
SolutionHolder
p2
(dp3
S'problem'
p4
S'MONRP_50_4_5_0_110'
p5
sS'repeats'
p6
(lp7
(iGraphics.simplified_new
Scores
p8
(dp9
S'pfs'
p10
I100
sS'spread'
p11
F0.6152884040120629
sS'hv'
p12
F630866.8809
sS'igd'
p13
Nsba(iGraphics.simplified_new
Scores
p14
(dp15
g10
I100
sg11
F0.5150373188116439
sg12
F634136.9349
sg13
Nsba(iGraphics.simplified_new
Scores
p16
(dp17
g10
I100
sg11
F0.5505483858320176
sg12
F626279.5895
sg13
Nsba(iGraphics.simplified_new
Scores
p18
(dp19
g10
I100
sg11
F0.4748220772512929
sg12
F614573.1935
sg13
Nsba(iGraphics.simplified_new
Scores
p20
(dp21
g10
I100
sg11
F0.5214836312970456
sg12
F652356.5131
sg13
Nsba(iGraphics.simplified_new
Scores
p22
(dp23
g10
I100
sg11
F0.516804341459044
sg12
F621318.1627
sg13
Nsba(iGraphics.simplified_new
Scores
p24
(dp25
g10
I100
sg11
F0.5422809805445807
sg12
F621153.5054
sg13
Nsba(iGraphics.simplified_new
Scores
p26
(dp27
g10
I100
sg11
F0.4974153039432573
sg12
F631505.8647
sg13
Nsba(iGraphics.simplified_new
Scores
p28
(dp29
g10
I100
sg11
F0.5187995254176314
sg12
F630550.6967
sg13
Nsba(iGraphics.simplified_new
Scores
p30
(dp31
g10
I100
sg11
F0.5396506157515213
sg12
F605168.4324
sg13
Nsba(iGraphics.simplified_new
Scores
p32
(dp33
g10
I100
sg11
F0.489172452261753
sg12
F609638.2319
sg13
Nsba(iGraphics.simplified_new
Scores
p34
(dp35
g10
I100
sg11
F0.5095983950196911
sg12
F630965.6066
sg13
Nsba(iGraphics.simplified_new
Scores
p36
(dp37
g10
I100
sg11
F0.5337482251056085
sg12
F639390.0099
sg13
Nsba(iGraphics.simplified_new
Scores
p38
(dp39
g10
I100
sg11
F0.5436239600809598
sg12
F633017.7236
sg13
Nsba(iGraphics.simplified_new
Scores
p40
(dp41
g10
I100
sg11
F0.5393163068103803
sg12
F629620.2623
sg13
Nsba(iGraphics.simplified_new
Scores
p42
(dp43
g10
I100
sg11
F0.580790309998912
sg12
F613148.2169
sg13
Nsba(iGraphics.simplified_new
Scores
p44
(dp45
g10
I100
sg11
F0.5721966918589646
sg12
F650380.3892
sg13
Nsba(iGraphics.simplified_new
Scores
p46
(dp47
g10
I100
sg11
F0.5431615035830133
sg12
F651974.4388
sg13
Nsba(iGraphics.simplified_new
Scores
p48
(dp49
g10
I100
sg11
F0.5111235595691389
sg12
F666888.9938
sg13
Nsba(iGraphics.simplified_new
Scores
p50
(dp51
g10
I100
sg11
F0.5066160738270635
sg12
F642971.2017
sg13
NsbasS'algorithm'
p52
S'SPEA2'
p53
sbsS'SWAY5_1225'
p54
(iGraphics.simplified_new
SolutionHolder
p55
(dp56
g4
g5
sg6
(lp57
(iGraphics.simplified_new
Scores
p58
(dp59
g10
I25
sg11
F0.7166793022744933
sg12
F90842.0508
sg13
Nsba(iGraphics.simplified_new
Scores
p60
(dp61
g10
I20
sg11
F0.7002892974921346
sg12
F102271.3652
sg13
Nsba(iGraphics.simplified_new
Scores
p62
(dp63
g10
I29
sg11
F0.6229566835138066
sg12
F101788.7195
sg13
Nsba(iGraphics.simplified_new
Scores
p64
(dp65
g10
I19
sg11
F0.7140792978048784
sg12
F92517.3323
sg13
Nsba(iGraphics.simplified_new
Scores
p66
(dp67
g10
I19
sg11
F0.747897615328925
sg12
F98454.0966
sg13
Nsba(iGraphics.simplified_new
Scores
p68
(dp69
g10
I33
sg11
F0.6227419670292252
sg12
F102571.5893
sg13
Nsba(iGraphics.simplified_new
Scores
p70
(dp71
g10
I19
sg11
F0.6532386040345304
sg12
F93344.3695
sg13
Nsba(iGraphics.simplified_new
Scores
p72
(dp73
g10
I29
sg11
F0.7091842001965121
sg12
F109618.1131
sg13
Nsba(iGraphics.simplified_new
Scores
p74
(dp75
g10
I19
sg11
F0.6893221558571127
sg12
F89080.2078
sg13
Nsba(iGraphics.simplified_new
Scores
p76
(dp77
g10
I19
sg11
F0.6587329604160005
sg12
F93406.1698
sg13
Nsba(iGraphics.simplified_new
Scores
p78
(dp79
g10
I29
sg11
F0.7275951945073713
sg12
F86794.33
sg13
Nsba(iGraphics.simplified_new
Scores
p80
(dp81
g10
I25
sg11
F0.632170100404821
sg12
F104204.631
sg13
Nsba(iGraphics.simplified_new
Scores
p82
(dp83
g10
I19
sg11
F0.7298630558849771
sg12
F93132.1464
sg13
Nsba(iGraphics.simplified_new
Scores
p84
(dp85
g10
I28
sg11
F0.6219406171207179
sg12
F95310.809
sg13
Nsba(iGraphics.simplified_new
Scores
p86
(dp87
g10
I31
sg11
F0.6954323005088539
sg12
F92165.9694
sg13
Nsba(iGraphics.simplified_new
Scores
p88
(dp89
g10
I29
sg11
F0.6535056468400392
sg12
F100370.3598
sg13
Nsba(iGraphics.simplified_new
Scores
p90
(dp91
g10
I25
sg11
F0.7366327975671529
sg12
F84317.9542
sg13
Nsba(iGraphics.simplified_new
Scores
p92
(dp93
g10
I19
sg11
F0.6927795388237968
sg12
F93970.0736
sg13
Nsba(iGraphics.simplified_new
Scores
p94
(dp95
g10
I33
sg11
F0.565294093572054
sg12
F100147.7498
sg13
Nsba(iGraphics.simplified_new
Scores
p96
(dp97
g10
I19
sg11
F0.6977495249313143
sg12
F103121.9032
sg13
Nsbasg52
S'SWAY5'
p98
sbsS'SWAY5_5000'
p99
(iGraphics.simplified_new
SolutionHolder
p100
(dp101
g4
g5
sg6
(lp102
(iGraphics.simplified_new
Scores
p103
(dp104
g10
I39
sg11
F0.6339182651534419
sg12
F167545.5053
sg13
Nsba(iGraphics.simplified_new
Scores
p105
(dp106
g10
I39
sg11
F0.5402479460178012
sg12
F172178.6041
sg13
Nsba(iGraphics.simplified_new
Scores
p107
(dp108
g10
I25
sg11
F0.645629035763965
sg12
F152583.603
sg13
Nsba(iGraphics.simplified_new
Scores
p109
(dp110
g10
I66
sg11
F0.5244906026720496
sg12
F169533.4542
sg13
Nsba(iGraphics.simplified_new
Scores
p111
(dp112
g10
I36
sg11
F0.6054540241769165
sg12
F170820.7942
sg13
Nsba(iGraphics.simplified_new
Scores
p113
(dp114
g10
I58
sg11
F0.5950584111504357
sg12
F161896.1024
sg13
Nsba(iGraphics.simplified_new
Scores
p115
(dp116
g10
I48
sg11
F0.6776256887738846
sg12
F177863.6855
sg13
Nsba(iGraphics.simplified_new
Scores
p117
(dp118
g10
I39
sg11
F0.596862742642622
sg12
F158975.0808
sg13
Nsba(iGraphics.simplified_new
Scores
p119
(dp120
g10
I59
sg11
F0.5831141122546821
sg12
F176381.0233
sg13
Nsba(iGraphics.simplified_new
Scores
p121
(dp122
g10
I55
sg11
F0.6439449429153111
sg12
F157187.5797
sg13
Nsba(iGraphics.simplified_new
Scores
p123
(dp124
g10
I59
sg11
F0.6300391985288346
sg12
F185257.6276
sg13
Nsba(iGraphics.simplified_new
Scores
p125
(dp126
g10
I39
sg11
F0.6570314038340103
sg12
F157026.1374
sg13
Nsba(iGraphics.simplified_new
Scores
p127
(dp128
g10
I25
sg11
F0.5857878092034335
sg12
F156439.4771
sg13
Nsba(iGraphics.simplified_new
Scores
p129
(dp130
g10
I22
sg11
F0.6922264415061858
sg12
F175177.8662
sg13
Nsba(iGraphics.simplified_new
Scores
p131
(dp132
g10
I36
sg11
F0.5756742498749954
sg12
F173252.3071
sg13
Nsba(iGraphics.simplified_new
Scores
p133
(dp134
g10
I39
sg11
F0.665797184491287
sg12
F176388.068
sg13
Nsba(iGraphics.simplified_new
Scores
p135
(dp136
g10
I66
sg11
F0.5668978695491654
sg12
F179220.2669
sg13
Nsba(iGraphics.simplified_new
Scores
p137
(dp138
g10
I58
sg11
F0.6222324125527384
sg12
F181163.212
sg13
Nsba(iGraphics.simplified_new
Scores
p139
(dp140
g10
I67
sg11
F0.5706987742603623
sg12
F184841.9196
sg13
Nsba(iGraphics.simplified_new
Scores
p141
(dp142
g10
I37
sg11
F0.6835755686818145
sg12
F166198.9372
sg13
Nsbasg52
S'SWAY5'
p143
sbsS'SWAY5_2500'
p144
(iGraphics.simplified_new
SolutionHolder
p145
(dp146
g4
g5
sg6
(lp147
(iGraphics.simplified_new
Scores
p148
(dp149
g10
I30
sg11
F0.6677346446596564
sg12
F209284.8301
sg13
Nsba(iGraphics.simplified_new
Scores
p150
(dp151
g10
I39
sg11
F0.6104541673940806
sg12
F214395.3556
sg13
Nsba(iGraphics.simplified_new
Scores
p152
(dp153
g10
I19
sg11
F0.6918654068968475
sg12
F198638.9066
sg13
Nsba(iGraphics.simplified_new
Scores
p154
(dp155
g10
I39
sg11
F0.6540933009543828
sg12
F228183.3949
sg13
Nsba(iGraphics.simplified_new
Scores
p156
(dp157
g10
I19
sg11
F0.6760805307131385
sg12
F193297.516
sg13
Nsba(iGraphics.simplified_new
Scores
p158
(dp159
g10
I39
sg11
F0.6291606366023564
sg12
F210745.2001
sg13
Nsba(iGraphics.simplified_new
Scores
p160
(dp161
g10
I39
sg11
F0.5048401519824037
sg12
F199013.3828
sg13
Nsba(iGraphics.simplified_new
Scores
p162
(dp163
g10
I39
sg11
F0.6136825382533363
sg12
F221635.3886
sg13
Nsba(iGraphics.simplified_new
Scores
p164
(dp165
g10
I27
sg11
F0.6649537919138085
sg12
F204006.3959
sg13
Nsba(iGraphics.simplified_new
Scores
p166
(dp167
g10
I29
sg11
F0.5625274162196743
sg12
F204938.9922
sg13
Nsba(iGraphics.simplified_new
Scores
p168
(dp169
g10
I29
sg11
F0.6276360891120016
sg12
F204101.6596
sg13
Nsba(iGraphics.simplified_new
Scores
p170
(dp171
g10
I39
sg11
F0.5678516389443774
sg12
F226782.0234
sg13
Nsba(iGraphics.simplified_new
Scores
p172
(dp173
g10
I29
sg11
F0.5724172016845014
sg12
F223638.604
sg13
Nsba(iGraphics.simplified_new
Scores
p174
(dp175
g10
I30
sg11
F0.6231792682953406
sg12
F208807.7598
sg13
Nsba(iGraphics.simplified_new
Scores
p176
(dp177
g10
I39
sg11
F0.49599398108703396
sg12
F210001.0706
sg13
Nsba(iGraphics.simplified_new
Scores
p178
(dp179
g10
I25
sg11
F0.6366741229861812
sg12
F196584.6454
sg13
Nsba(iGraphics.simplified_new
Scores
p180
(dp181
g10
I29
sg11
F0.6059075998514373
sg12
F205351.6854
sg13
Nsba(iGraphics.simplified_new
Scores
p182
(dp183
g10
I34
sg11
F0.6177799693511571
sg12
F207995.8049
sg13
Nsba(iGraphics.simplified_new
Scores
p184
(dp185
g10
I49
sg11
F0.5902586104041803
sg12
F227397.1743
sg13
Nsba(iGraphics.simplified_new
Scores
p186
(dp187
g10
I34
sg11
F0.5808411049128209
sg12
F205459.4166
sg13
Nsbasg52
S'SWAY5'
p188
sbsS'SWAY5_10000'
p189
(iGraphics.simplified_new
SolutionHolder
p190
(dp191
g4
g5
sg6
(lp192
(iGraphics.simplified_new
Scores
p193
(dp194
g10
I58
sg11
F0.5464751834516101
sg12
F204469.9831
sg13
Nsba(iGraphics.simplified_new
Scores
p195
(dp196
g10
I39
sg11
F0.5263108528960424
sg12
F157454.077
sg13
Nsba(iGraphics.simplified_new
Scores
p197
(dp198
g10
I62
sg11
F0.5679016325139652
sg12
F182575.2546
sg13
Nsba(iGraphics.simplified_new
Scores
p199
(dp200
g10
I218
sg11
F0.5405109150029388
sg12
F204832.688
sg13
Nsba(iGraphics.simplified_new
Scores
p201
(dp202
g10
I52
sg11
F0.5928500340517259
sg12
F182253.475
sg13
Nsba(iGraphics.simplified_new
Scores
p203
(dp204
g10
I78
sg11
F0.6130279666492977
sg12
F184021.0928
sg13
Nsba(iGraphics.simplified_new
Scores
p205
(dp206
g10
I78
sg11
F0.5196486176336231
sg12
F189655.7802
sg13
Nsba(iGraphics.simplified_new
Scores
p207
(dp208
g10
I70
sg11
F0.5957153849303681
sg12
F183942.1578
sg13
Nsba(iGraphics.simplified_new
Scores
p209
(dp210
g10
I78
sg11
F0.5502680852465311
sg12
F191857.619
sg13
Nsba(iGraphics.simplified_new
Scores
p211
(dp212
g10
I87
sg11
F0.5242873231592104
sg12
F193882.8477
sg13
Nsba(iGraphics.simplified_new
Scores
p213
(dp214
g10
I41
sg11
F0.5644718888006196
sg12
F182704.9771
sg13
Nsba(iGraphics.simplified_new
Scores
p215
(dp216
g10
I87
sg11
F0.5156593809283899
sg12
F201367.4233
sg13
Nsba(iGraphics.simplified_new
Scores
p217
(dp218
g10
I68
sg11
F0.5257542155457551
sg12
F188153.1627
sg13
Nsba(iGraphics.simplified_new
Scores
p219
(dp220
g10
I78
sg11
F0.5524472831677409
sg12
F171429.6788
sg13
Nsba(iGraphics.simplified_new
Scores
p221
(dp222
g10
I166
sg11
F0.5240578700650916
sg12
F195043.0272
sg13
Nsba(iGraphics.simplified_new
Scores
p223
(dp224
g10
I29
sg11
F0.6105525847830375
sg12
F181763.8732
sg13
Nsba(iGraphics.simplified_new
Scores
p225
(dp226
g10
I34
sg11
F0.6712176762601887
sg12
F185503.1153
sg13
Nsba(iGraphics.simplified_new
Scores
p227
(dp228
g10
I51
sg11
F0.5932059094472467
sg12
F191774.4519
sg13
Nsba(iGraphics.simplified_new
Scores
p229
(dp230
g10
I78
sg11
F0.5196542532054028
sg12
F195578.8637
sg13
Nsba(iGraphics.simplified_new
Scores
p231
(dp232
g10
I38
sg11
F0.5012224855015233
sg12
F189934.0808
sg13
Nsbasg52
S'SWAY5'
p233
sbsS'NSGAII_100'
p234
(iGraphics.simplified_new
SolutionHolder
p235
(dp236
g4
g5
sg6
(lp237
(iGraphics.simplified_new
Scores
p238
(dp239
g10
I100
sg11
F0.6308783122151675
sg12
F622456.1423
sg13
Nsba(iGraphics.simplified_new
Scores
p240
(dp241
g10
I100
sg11
F0.5883931975842283
sg12
F630092.9695
sg13
Nsba(iGraphics.simplified_new
Scores
p242
(dp243
g10
I100
sg11
F0.6615099416087258
sg12
F624793.8495
sg13
Nsba(iGraphics.simplified_new
Scores
p244
(dp245
g10
I100
sg11
F0.6615621149792072
sg12
F639925.6325
sg13
Nsba(iGraphics.simplified_new
Scores
p246
(dp247
g10
I100
sg11
F0.7138443575505848
sg12
F637054.0384
sg13
Nsba(iGraphics.simplified_new
Scores
p248
(dp249
g10
I100
sg11
F0.593369206933803
sg12
F627450.049
sg13
Nsba(iGraphics.simplified_new
Scores
p250
(dp251
g10
I100
sg11
F0.5644282549253917
sg12
F637216.9335
sg13
Nsba(iGraphics.simplified_new
Scores
p252
(dp253
g10
I100
sg11
F0.6317742344879077
sg12
F655451.6961
sg13
Nsba(iGraphics.simplified_new
Scores
p254
(dp255
g10
I100
sg11
F0.660013049541891
sg12
F630177.6778
sg13
Nsba(iGraphics.simplified_new
Scores
p256
(dp257
g10
I100
sg11
F0.6307096343565461
sg12
F635399.8682
sg13
Nsba(iGraphics.simplified_new
Scores
p258
(dp259
g10
I100
sg11
F0.6232337106594693
sg12
F651567.8975
sg13
Nsba(iGraphics.simplified_new
Scores
p260
(dp261
g10
I100
sg11
F0.6131467433104172
sg12
F657014.0723
sg13
Nsba(iGraphics.simplified_new
Scores
p262
(dp263
g10
I100
sg11
F0.5843247750800109
sg12
F627294.1036
sg13
Nsba(iGraphics.simplified_new
Scores
p264
(dp265
g10
I100
sg11
F0.6279821414673872
sg12
F634599.7497
sg13
Nsba(iGraphics.simplified_new
Scores
p266
(dp267
g10
I100
sg11
F0.6390316834513705
sg12
F656743.8626
sg13
Nsba(iGraphics.simplified_new
Scores
p268
(dp269
g10
I100
sg11
F0.5587344210370856
sg12
F634086.8136
sg13
Nsba(iGraphics.simplified_new
Scores
p270
(dp271
g10
I100
sg11
F0.5772920899998625
sg12
F635390.7112
sg13
Nsba(iGraphics.simplified_new
Scores
p272
(dp273
g10
I100
sg11
F0.6506213656561619
sg12
F611933.8524
sg13
Nsba(iGraphics.simplified_new
Scores
p274
(dp275
g10
I100
sg11
F0.6159491703252465
sg12
F655217.9922
sg13
Nsba(iGraphics.simplified_new
Scores
p276
(dp277
g10
I100
sg11
F0.5764990058922952
sg12
F638131.1008
sg13
Nsbasg52
S'NSGAII'
p278
sbs.