(dp0
S'POM3A(L)'
p1
(dp2
S'Spread'
p3
(lp4
(lp5
S'NSGAII_100'
p6
aF0.6770310767742219
aF0.6780839872784874
aF0.654314406037969
aF0.7243748873943621
aF0.6970900015926115
aF0.7198666052025529
aF0.764122618921975
aF0.7564712571456772
aF0.6241672590481389
aF0.703611967402098
aF0.6599143547152269
aF0.6809027493583109
aF0.6914492122157794
aF0.7029643047118302
aF0.6815167755597348
aF0.6523153090723671
aF0.7723607543184422
aF0.6409346837301323
aF0.6955027616505294
aF0.657013298775277
aF0.621945167209008
aa(lp7
S'SPEA2_100'
p8
aF0.5844778976543965
aF0.6789654265453674
aF0.6373338198490686
aF0.6145189032263394
aF0.6808626011234061
aF0.5780281731460536
aF0.683368519693057
aF0.7573889219860441
aF0.6585056997547799
aF0.6720078574969075
aF0.7089201382658888
aF0.6371709384309576
aF0.666435248173111
aF0.6145376579787868
aF0.6748443258292823
aF0.6480268463685718
aF0.6191793913899797
aF0.7257277766908444
aF0.711723191046216
aF0.6225955620084459
aF0.7569322353722733
aa(lp9
S'SWAY5_10000'
p10
aF0.48636584136393457
aF0.3895596792185478
aF0.4134791276907791
aF0.3669661706112618
aF0.3712227188707934
aF0.4584684192345788
aF0.491429080691032
aF0.39888370568566006
aF0.43870202984629203
aF0.5995832001015741
aF0.5004966344229199
aF0.4646484259046771
aF0.410397659533669
aF0.45951509797380613
aF0.4743299328281944
aF0.47358018360587467
aF0.5324934986284874
aF0.5773587085793113
aF0.5015826353729447
aF0.38857430741129845
aF0.4403914676652654
aasS'HV'
p11
(lp12
(lp13
S'NSGAII_100'
p14
aF1301519.1271
aF1305308.4973
aF1307831.0664
aF1298359.2637
aF1317953.7056
aF1303249.4207
aF1301960.4065
aF1299518.714
aF1308285.2269
aF1299363.6923
aF1297298.9785
aF1307061.2167
aF1296438.7349
aF1294306.0144
aF1313142.6723
aF1302233.0965
aF1305092.4089
aF1295098.8867
aF1305272.2336
aF1317841.9316
aF1309103.0229
aa(lp15
S'SPEA2_100'
p16
aF1297741.0651
aF1303942.1221
aF1299374.7293
aF1297166.146
aF1301833.5425
aF1293138.4681
aF1300996.7098
aF1270174.4504
aF1297800.399
aF1317923.4134
aF1299072.6476
aF1315159.3275
aF1292769.4467
aF1291605.3529
aF1311602.5523
aF1300751.7078
aF1292222.5534
aF1309555.5065
aF1308064.8826
aF1305183.8611
aF1314403.753
aa(lp17
S'SWAY5_10000'
p18
aF1138346.1946
aF1038144.2378
aF1048627.0743
aF845022.384
aF1201988.6072
aF1076176.6518
aF1028530.0306
aF920929.1246
aF1111750.7835
aF991345.9855
aF883644.4927
aF1092342.0813
aF1097728.926
aF994308.6441
aF1139175.6581
aF1031889.6042
aF990096.1184
aF1078576.4646
aF856977.4707
aF1031466.609
aF996902.374
aass.