(dp0
S'SWAY5_100'
p1
(iGraphics.simplified_new
SolutionHolder
p2
(dp3
S'problem'
p4
S'POM3A(S)'
p5
sS'repeats'
p6
(lp7
(iGraphics.simplified_new
Scores
p8
(dp9
S'pfs'
p10
I6
sS'spread'
p11
F0.3772866915898596
sS'hv'
p12
F967587.7207
sS'igd'
p13
Nsba(iGraphics.simplified_new
Scores
p14
(dp15
g10
I6
sg11
F0.4466187847440569
sg12
F880199.2531
sg13
Nsba(iGraphics.simplified_new
Scores
p16
(dp17
g10
I6
sg11
F0.4844864189119987
sg12
F1200189.6086
sg13
Nsba(iGraphics.simplified_new
Scores
p18
(dp19
g10
I6
sg11
F0.47837893064551834
sg12
F930213.9581
sg13
Nsba(iGraphics.simplified_new
Scores
p20
(dp21
g10
I6
sg11
F0.4323094535112443
sg12
F294953.3949
sg13
Nsba(iGraphics.simplified_new
Scores
p22
(dp23
g10
I6
sg11
F0.2719900184087224
sg12
F857343.7572
sg13
Nsba(iGraphics.simplified_new
Scores
p24
(dp25
g10
I6
sg11
F0.5110419706889786
sg12
F664477.2707
sg13
Nsba(iGraphics.simplified_new
Scores
p26
(dp27
g10
I6
sg11
F0.5668199212477856
sg12
F381820.8209
sg13
Nsba(iGraphics.simplified_new
Scores
p28
(dp29
g10
I9
sg11
F0.44466223601957455
sg12
F803074.1528
sg13
Nsba(iGraphics.simplified_new
Scores
p30
(dp31
g10
I6
sg11
F0.664142112817794
sg12
F583793.076
sg13
Nsba(iGraphics.simplified_new
Scores
p32
(dp33
g10
I6
sg11
F0.510235852068056
sg12
F551333.3741
sg13
Nsba(iGraphics.simplified_new
Scores
p34
(dp35
g10
I6
sg11
F0.38279324332624454
sg12
F1138987.1061
sg13
Nsba(iGraphics.simplified_new
Scores
p36
(dp37
g10
I7
sg11
F0.48490285748163686
sg12
F848780.9765
sg13
Nsba(iGraphics.simplified_new
Scores
p38
(dp39
g10
I6
sg11
F0.5811888948721865
sg12
F532024.7084
sg13
Nsba(iGraphics.simplified_new
Scores
p40
(dp41
g10
I7
sg11
F0.46019656015879945
sg12
F823804.1496
sg13
Nsba(iGraphics.simplified_new
Scores
p42
(dp43
g10
I6
sg11
F0.5233310910260343
sg12
F809599.2536
sg13
Nsba(iGraphics.simplified_new
Scores
p44
(dp45
g10
I7
sg11
F0.47027147014768195
sg12
F909851.4001
sg13
Nsba(iGraphics.simplified_new
Scores
p46
(dp47
g10
I6
sg11
F0.42940077435529894
sg12
F537330.2398
sg13
Nsba(iGraphics.simplified_new
Scores
p48
(dp49
g10
I7
sg11
F0.33273639660703475
sg12
F480715.7399
sg13
Nsba(iGraphics.simplified_new
Scores
p50
(dp51
g10
I6
sg11
F0.4390936288265654
sg12
F572266.7308
sg13
NsbasS'algorithm'
p52
S'SWAY5'
p53
sbs.