(dp0
S'SPEA2_100'
p1
(iGraphics.simplified_new
SolutionHolder
p2
(dp3
S'problem'
p4
S'POM3A'
p5
sS'repeats'
p6
(lp7
(iGraphics.simplified_new
Scores
p8
(dp9
S'pfs'
p10
I100
sS'spread'
p11
F0.5652376484660229
sS'hv'
p12
F1314402.9829
sS'igd'
p13
Nsba(iGraphics.simplified_new
Scores
p14
(dp15
g10
I100
sg11
F0.6526470454727573
sg12
F1319739.3705
sg13
Nsba(iGraphics.simplified_new
Scores
p16
(dp17
g10
I100
sg11
F0.6294092432003219
sg12
F1315039.9335
sg13
Nsba(iGraphics.simplified_new
Scores
p18
(dp19
g10
I100
sg11
F0.6579838959759028
sg12
F1315682.1902
sg13
Nsba(iGraphics.simplified_new
Scores
p20
(dp21
g10
I100
sg11
F0.6728497758821996
sg12
F1313041.5152
sg13
Nsba(iGraphics.simplified_new
Scores
p22
(dp23
g10
I100
sg11
F0.7671636936565065
sg12
F1312459.895
sg13
Nsba(iGraphics.simplified_new
Scores
p24
(dp25
g10
I100
sg11
F0.7667353379580018
sg12
F1320291.1124
sg13
Nsba(iGraphics.simplified_new
Scores
p26
(dp27
g10
I100
sg11
F0.7085884493618938
sg12
F1319144.0079
sg13
Nsba(iGraphics.simplified_new
Scores
p28
(dp29
g10
I100
sg11
F0.7167799820961839
sg12
F1309786.1988
sg13
Nsba(iGraphics.simplified_new
Scores
p30
(dp31
g10
I100
sg11
F0.69060401183125
sg12
F1318536.2223
sg13
Nsba(iGraphics.simplified_new
Scores
p32
(dp33
g10
I100
sg11
F0.7818046336582646
sg12
F1316375.5715
sg13
Nsba(iGraphics.simplified_new
Scores
p34
(dp35
g10
I100
sg11
F0.6603174642973668
sg12
F1312654.2643
sg13
Nsba(iGraphics.simplified_new
Scores
p36
(dp37
g10
I100
sg11
F0.6611106356873638
sg12
F1308530.3495
sg13
Nsba(iGraphics.simplified_new
Scores
p38
(dp39
g10
I100
sg11
F0.8079307023519443
sg12
F1317805.4855
sg13
Nsba(iGraphics.simplified_new
Scores
p40
(dp41
g10
I100
sg11
F0.7830297387963657
sg12
F1314327.5123
sg13
Nsba(iGraphics.simplified_new
Scores
p42
(dp43
g10
I100
sg11
F0.6235556530409584
sg12
F1315753.8725
sg13
Nsba(iGraphics.simplified_new
Scores
p44
(dp45
g10
I100
sg11
F0.7523521582300612
sg12
F1318915.0867
sg13
Nsba(iGraphics.simplified_new
Scores
p46
(dp47
g10
I100
sg11
F0.6760114403319553
sg12
F1314349.1758
sg13
Nsba(iGraphics.simplified_new
Scores
p48
(dp49
g10
I100
sg11
F0.6880442933969241
sg12
F1310083.6303
sg13
Nsba(iGraphics.simplified_new
Scores
p50
(dp51
g10
I100
sg11
F0.6310421049938627
sg12
F1310906.5052
sg13
NsbasS'algorithm'
p52
S'SPEA2'
p53
sbsS'SWAY5_8192'
p54
(iGraphics.simplified_new
SolutionHolder
p55
(dp56
g4
g5
sg6
(lp57
(iGraphics.simplified_new
Scores
p58
(dp59
g10
I30
sg11
F0.43691113124537717
sg12
F1117271.836
sg13
Nsba(iGraphics.simplified_new
Scores
p60
(dp61
g10
I55
sg11
F0.4959271794190645
sg12
F1262467.9574
sg13
Nsba(iGraphics.simplified_new
Scores
p62
(dp63
g10
I64
sg11
F0.40831840373484374
sg12
F1235510.4085
sg13
Nsba(iGraphics.simplified_new
Scores
p64
(dp65
g10
I56
sg11
F0.38746636929059664
sg12
F1104743.6634
sg13
Nsba(iGraphics.simplified_new
Scores
p66
(dp67
g10
I72
sg11
F0.38641094732722414
sg12
F1248310.351
sg13
Nsba(iGraphics.simplified_new
Scores
p68
(dp69
g10
I62
sg11
F0.34929793791360714
sg12
F1224160.5297
sg13
Nsba(iGraphics.simplified_new
Scores
p70
(dp71
g10
I72
sg11
F0.43334393655957915
sg12
F1235045.0865
sg13
Nsba(iGraphics.simplified_new
Scores
p72
(dp73
g10
I54
sg11
F0.43370665425077676
sg12
F1186943.4479
sg13
Nsba(iGraphics.simplified_new
Scores
p74
(dp75
g10
I63
sg11
F0.46980451339087564
sg12
F1191367.0135
sg13
Nsba(iGraphics.simplified_new
Scores
p76
(dp77
g10
I24
sg11
F0.5091615669037024
sg12
F1189538.4848
sg13
Nsba(iGraphics.simplified_new
Scores
p78
(dp79
g10
I84
sg11
F0.4212612562747683
sg12
F1236027.4637
sg13
Nsba(iGraphics.simplified_new
Scores
p80
(dp81
g10
I49
sg11
F0.4487524116676887
sg12
F1168202.8041
sg13
Nsba(iGraphics.simplified_new
Scores
p82
(dp83
g10
I48
sg11
F0.43551680739008436
sg12
F1197071.9313
sg13
Nsba(iGraphics.simplified_new
Scores
p84
(dp85
g10
I55
sg11
F0.41067000622200517
sg12
F1241660.0794
sg13
Nsba(iGraphics.simplified_new
Scores
p86
(dp87
g10
I48
sg11
F0.3073315639443157
sg12
F1210139.8236
sg13
Nsba(iGraphics.simplified_new
Scores
p88
(dp89
g10
I84
sg11
F0.46711827924927873
sg12
F1251977.3283
sg13
Nsba(iGraphics.simplified_new
Scores
p90
(dp91
g10
I87
sg11
F0.3994798511657725
sg12
F1238312.8712
sg13
Nsba(iGraphics.simplified_new
Scores
p92
(dp93
g10
I31
sg11
F0.49937506588159836
sg12
F1241318.3242
sg13
Nsba(iGraphics.simplified_new
Scores
p94
(dp95
g10
I31
sg11
F0.5848785261547188
sg12
F1218907.2772
sg13
Nsba(iGraphics.simplified_new
Scores
p96
(dp97
g10
I24
sg11
F0.3945145108807566
sg12
F1072013.7413
sg13
Nsbasg52
S'SWAY5'
p98
sbsS'SWAY5_1024'
p99
(iGraphics.simplified_new
SolutionHolder
p100
(dp101
g4
g5
sg6
(lp102
(iGraphics.simplified_new
Scores
p103
(dp104
g10
I16
sg11
F0.5734399638751506
sg12
F1121232.4976
sg13
Nsba(iGraphics.simplified_new
Scores
p105
(dp106
g10
I18
sg11
F0.38490799965926725
sg12
F1168036.8792
sg13
Nsba(iGraphics.simplified_new
Scores
p107
(dp108
g10
I28
sg11
F0.41089514656981824
sg12
F1144069.502
sg13
Nsba(iGraphics.simplified_new
Scores
p109
(dp110
g10
I16
sg11
F0.5675001236567697
sg12
F1205485.1299
sg13
Nsba(iGraphics.simplified_new
Scores
p111
(dp112
g10
I16
sg11
F0.5523888083702652
sg12
F1091902.1477
sg13
Nsba(iGraphics.simplified_new
Scores
p113
(dp114
g10
I24
sg11
F0.414315735221179
sg12
F1222204.1014
sg13
Nsba(iGraphics.simplified_new
Scores
p115
(dp116
g10
I23
sg11
F0.4283284740590035
sg12
F1162716.1535
sg13
Nsba(iGraphics.simplified_new
Scores
p117
(dp118
g10
I24
sg11
F0.47002812727145116
sg12
F1176513.4897
sg13
Nsba(iGraphics.simplified_new
Scores
p119
(dp120
g10
I16
sg11
F0.48058365377529294
sg12
F1171004.0248
sg13
Nsba(iGraphics.simplified_new
Scores
p121
(dp122
g10
I18
sg11
F0.5042608876133444
sg12
F1218913.4175
sg13
Nsba(iGraphics.simplified_new
Scores
p123
(dp124
g10
I31
sg11
F0.38920283249537246
sg12
F1125726.8765
sg13
Nsba(iGraphics.simplified_new
Scores
p125
(dp126
g10
I31
sg11
F0.5748007095698433
sg12
F1010180.3324
sg13
Nsba(iGraphics.simplified_new
Scores
p127
(dp128
g10
I31
sg11
F0.4521243658297197
sg12
F1185743.7229
sg13
Nsba(iGraphics.simplified_new
Scores
p129
(dp130
g10
I18
sg11
F0.51540353075881
sg12
F1203924.0379
sg13
Nsba(iGraphics.simplified_new
Scores
p131
(dp132
g10
I27
sg11
F0.4604197105746738
sg12
F1236314.895
sg13
Nsba(iGraphics.simplified_new
Scores
p133
(dp134
g10
I21
sg11
F0.49509442393247255
sg12
F1010960.8928
sg13
Nsba(iGraphics.simplified_new
Scores
p135
(dp136
g10
I16
sg11
F0.46378205936584227
sg12
F1144377.9906
sg13
Nsba(iGraphics.simplified_new
Scores
p137
(dp138
g10
I18
sg11
F0.5677734877184967
sg12
F1154993.4071
sg13
Nsba(iGraphics.simplified_new
Scores
p139
(dp140
g10
I18
sg11
F0.4434442448550924
sg12
F1209856.579
sg13
Nsba(iGraphics.simplified_new
Scores
p141
(dp142
g10
I21
sg11
F0.5349629196617973
sg12
F1267597.6927
sg13
Nsbasg52
S'SWAY5'
p143
sbsS'SWAY5_2048'
p144
(iGraphics.simplified_new
SolutionHolder
p145
(dp146
g4
g5
sg6
(lp147
(iGraphics.simplified_new
Scores
p148
(dp149
g10
I32
sg11
F0.4607394712799502
sg12
F1236583.5036
sg13
Nsba(iGraphics.simplified_new
Scores
p150
(dp151
g10
I31
sg11
F0.40992006068032727
sg12
F1107478.5106
sg13
Nsba(iGraphics.simplified_new
Scores
p152
(dp153
g10
I24
sg11
F0.4897844551942677
sg12
F1203515.1488
sg13
Nsba(iGraphics.simplified_new
Scores
p154
(dp155
g10
I32
sg11
F0.3918546610842909
sg12
F1132558.7256
sg13
Nsba(iGraphics.simplified_new
Scores
p156
(dp157
g10
I28
sg11
F0.4545453321410215
sg12
F1094310.7412
sg13
Nsba(iGraphics.simplified_new
Scores
p158
(dp159
g10
I24
sg11
F0.48493225556913655
sg12
F1208411.4773
sg13
Nsba(iGraphics.simplified_new
Scores
p160
(dp161
g10
I31
sg11
F0.4451003937328213
sg12
F1098831.0451
sg13
Nsba(iGraphics.simplified_new
Scores
p162
(dp163
g10
I32
sg11
F0.4292909347990388
sg12
F1096300.9789
sg13
Nsba(iGraphics.simplified_new
Scores
p164
(dp165
g10
I28
sg11
F0.543604180946871
sg12
F1144353.9738
sg13
Nsba(iGraphics.simplified_new
Scores
p166
(dp167
g10
I31
sg11
F0.40262178902859985
sg12
F1139170.2007
sg13
Nsba(iGraphics.simplified_new
Scores
p168
(dp169
g10
I28
sg11
F0.3958155224247293
sg12
F1183056.8574
sg13
Nsba(iGraphics.simplified_new
Scores
p170
(dp171
g10
I16
sg11
F0.5401114869369459
sg12
F1148784.2753
sg13
Nsba(iGraphics.simplified_new
Scores
p172
(dp173
g10
I32
sg11
F0.38695790634776844
sg12
F1152354.3554
sg13
Nsba(iGraphics.simplified_new
Scores
p174
(dp175
g10
I31
sg11
F0.37737727811676536
sg12
F911059.7232
sg13
Nsba(iGraphics.simplified_new
Scores
p176
(dp177
g10
I24
sg11
F0.6532527185043147
sg12
F1206741.071
sg13
Nsba(iGraphics.simplified_new
Scores
p178
(dp179
g10
I42
sg11
F0.41708563696549544
sg12
F1184552.8911
sg13
Nsba(iGraphics.simplified_new
Scores
p180
(dp181
g10
I24
sg11
F0.41422039203771416
sg12
F1077889.6991
sg13
Nsba(iGraphics.simplified_new
Scores
p182
(dp183
g10
I32
sg11
F0.43517555018987125
sg12
F1183253.2042
sg13
Nsba(iGraphics.simplified_new
Scores
p184
(dp185
g10
I42
sg11
F0.4460255681789105
sg12
F1225836.2623
sg13
Nsba(iGraphics.simplified_new
Scores
p186
(dp187
g10
I28
sg11
F0.37842508772812206
sg12
F1188535.4779
sg13
Nsbasg52
S'SWAY5'
p188
sbsS'SWAY5_10000'
p189
(iGraphics.simplified_new
SolutionHolder
p190
(dp191
g4
g5
sg6
(lp192
(iGraphics.simplified_new
Scores
p193
(dp194
g10
I36
sg11
F0.4386598103309215
sg12
F1250067.7919
sg13
Nsba(iGraphics.simplified_new
Scores
p195
(dp196
g10
I68
sg11
F0.47059625970533364
sg12
F866048.6052
sg13
Nsba(iGraphics.simplified_new
Scores
p197
(dp198
g10
I39
sg11
F0.46522666032072124
sg12
F1164907.19
sg13
Nsba(iGraphics.simplified_new
Scores
p199
(dp200
g10
I39
sg11
F0.4839071245269914
sg12
F1070031.3827
sg13
Nsba(iGraphics.simplified_new
Scores
p201
(dp202
g10
I75
sg11
F0.4631591826622091
sg12
F1238845.4683
sg13
Nsba(iGraphics.simplified_new
Scores
p203
(dp204
g10
I55
sg11
F0.4539517137037196
sg12
F1238463.4717
sg13
Nsba(iGraphics.simplified_new
Scores
p205
(dp206
g10
I68
sg11
F0.3707020172586411
sg12
F1256917.6664
sg13
Nsba(iGraphics.simplified_new
Scores
p207
(dp208
g10
I59
sg11
F0.4009447296481928
sg12
F1177319.7449
sg13
Nsba(iGraphics.simplified_new
Scores
p209
(dp210
g10
I48
sg11
F0.5330390611504957
sg12
F1222890.9584
sg13
Nsba(iGraphics.simplified_new
Scores
p211
(dp212
g10
I76
sg11
F0.47601526606918165
sg12
F1266277.0926
sg13
Nsba(iGraphics.simplified_new
Scores
p213
(dp214
g10
I78
sg11
F0.4149624597247737
sg12
F1241973.9161
sg13
Nsba(iGraphics.simplified_new
Scores
p215
(dp216
g10
I27
sg11
F0.41710668585934374
sg12
F1071714.994
sg13
Nsba(iGraphics.simplified_new
Scores
p217
(dp218
g10
I69
sg11
F0.4256054308639859
sg12
F1166336.6812
sg13
Nsba(iGraphics.simplified_new
Scores
p219
(dp220
g10
I66
sg11
F0.4711931906807978
sg12
F1242051.499
sg13
Nsba(iGraphics.simplified_new
Scores
p221
(dp222
g10
I64
sg11
F0.4728183807972694
sg12
F1259591.8345
sg13
Nsba(iGraphics.simplified_new
Scores
p223
(dp224
g10
I25
sg11
F0.5654665059549663
sg12
F1175946.5552
sg13
Nsba(iGraphics.simplified_new
Scores
p225
(dp226
g10
I29
sg11
F0.43405903702570464
sg12
F1245019.5743
sg13
Nsba(iGraphics.simplified_new
Scores
p227
(dp228
g10
I96
sg11
F0.44864597912476734
sg12
F1228451.7363
sg13
Nsba(iGraphics.simplified_new
Scores
p229
(dp230
g10
I78
sg11
F0.3234929280832359
sg12
F1270026.2134
sg13
Nsba(iGraphics.simplified_new
Scores
p231
(dp232
g10
I66
sg11
F0.4213325903799325
sg12
F1237156.3611
sg13
Nsbasg52
S'SWAY5'
p233
sbsS'SWAY5_4096'
p234
(iGraphics.simplified_new
SolutionHolder
p235
(dp236
g4
g5
sg6
(lp237
(iGraphics.simplified_new
Scores
p238
(dp239
g10
I48
sg11
F0.4473656159673199
sg12
F1197216.1011
sg13
Nsba(iGraphics.simplified_new
Scores
p240
(dp241
g10
I31
sg11
F0.49889982977893094
sg12
F1233652.8426
sg13
Nsba(iGraphics.simplified_new
Scores
p242
(dp243
g10
I24
sg11
F0.42307043332296485
sg12
F1215668.4378
sg13
Nsba(iGraphics.simplified_new
Scores
p244
(dp245
g10
I33
sg11
F0.48383815715662887
sg12
F1209608.1331
sg13
Nsba(iGraphics.simplified_new
Scores
p246
(dp247
g10
I42
sg11
F0.37892713493570873
sg12
F1154693.7868
sg13
Nsba(iGraphics.simplified_new
Scores
p248
(dp249
g10
I18
sg11
F0.5042846888985443
sg12
F1143184.4499
sg13
Nsba(iGraphics.simplified_new
Scores
p250
(dp251
g10
I63
sg11
F0.39115019726736777
sg12
F1279521.3908
sg13
Nsba(iGraphics.simplified_new
Scores
p252
(dp253
g10
I48
sg11
F0.4290877034845658
sg12
F1218968.8384
sg13
Nsba(iGraphics.simplified_new
Scores
p254
(dp255
g10
I63
sg11
F0.47144285484864823
sg12
F1273097.6943
sg13
Nsba(iGraphics.simplified_new
Scores
p256
(dp257
g10
I32
sg11
F0.4340545585716451
sg12
F1159057.8572
sg13
Nsba(iGraphics.simplified_new
Scores
p258
(dp259
g10
I36
sg11
F0.4002068588263865
sg12
F1145720.624
sg13
Nsba(iGraphics.simplified_new
Scores
p260
(dp261
g10
I32
sg11
F0.48708026276306016
sg12
F1205167.3333
sg13
Nsba(iGraphics.simplified_new
Scores
p262
(dp263
g10
I48
sg11
F0.43736894923408287
sg12
F1218627.1225
sg13
Nsba(iGraphics.simplified_new
Scores
p264
(dp265
g10
I55
sg11
F0.4182323129407696
sg12
F1247652.0278
sg13
Nsba(iGraphics.simplified_new
Scores
p266
(dp267
g10
I63
sg11
F0.46041379243225683
sg12
F1266531.3461
sg13
Nsba(iGraphics.simplified_new
Scores
p268
(dp269
g10
I56
sg11
F0.3669921508410266
sg12
F1243852.4031
sg13
Nsba(iGraphics.simplified_new
Scores
p270
(dp271
g10
I16
sg11
F0.5477692494048595
sg12
F757841.7418
sg13
Nsba(iGraphics.simplified_new
Scores
p272
(dp273
g10
I45
sg11
F0.44249970988858484
sg12
F1195879.5852
sg13
Nsba(iGraphics.simplified_new
Scores
p274
(dp275
g10
I48
sg11
F0.41792442792182516
sg12
F1268294.608
sg13
Nsba(iGraphics.simplified_new
Scores
p276
(dp277
g10
I28
sg11
F0.5827122304649309
sg12
F1224676.8958
sg13
Nsbasg52
S'SWAY5'
p278
sbsS'SWAY5_512'
p279
(iGraphics.simplified_new
SolutionHolder
p280
(dp281
g4
g5
sg6
(lp282
(iGraphics.simplified_new
Scores
p283
(dp284
g10
I15
sg11
F0.5485642620139591
sg12
F1119659.1838
sg13
Nsba(iGraphics.simplified_new
Scores
p285
(dp286
g10
I12
sg11
F0.5354008893801475
sg12
F1065338.23
sg13
Nsba(iGraphics.simplified_new
Scores
p287
(dp288
g10
I16
sg11
F0.5667564790247339
sg12
F1053966.6883
sg13
Nsba(iGraphics.simplified_new
Scores
p289
(dp290
g10
I16
sg11
F0.423962117532085
sg12
F1209157.8203
sg13
Nsba(iGraphics.simplified_new
Scores
p291
(dp292
g10
I15
sg11
F0.5623648485559615
sg12
F1218011.9181
sg13
Nsba(iGraphics.simplified_new
Scores
p293
(dp294
g10
I14
sg11
F0.5035864587362243
sg12
F1183216.0021
sg13
Nsba(iGraphics.simplified_new
Scores
p295
(dp296
g10
I16
sg11
F0.37907103382698637
sg12
F1218366.9202
sg13
Nsba(iGraphics.simplified_new
Scores
p297
(dp298
g10
I12
sg11
F0.526564387658318
sg12
F1054338.239
sg13
Nsba(iGraphics.simplified_new
Scores
p299
(dp300
g10
I16
sg11
F0.644913676828392
sg12
F1246389.5129
sg13
Nsba(iGraphics.simplified_new
Scores
p301
(dp302
g10
I21
sg11
F0.3633812355269657
sg12
F1172070.132
sg13
Nsba(iGraphics.simplified_new
Scores
p303
(dp304
g10
I16
sg11
F0.5235929375715602
sg12
F1187404.7577
sg13
Nsba(iGraphics.simplified_new
Scores
p305
(dp306
g10
I12
sg11
F0.558859805406662
sg12
F1141543.9295
sg13
Nsba(iGraphics.simplified_new
Scores
p307
(dp308
g10
I12
sg11
F0.5648548704588872
sg12
F1258389.6667
sg13
Nsba(iGraphics.simplified_new
Scores
p309
(dp310
g10
I16
sg11
F0.41625364341397886
sg12
F1092866.5284
sg13
Nsba(iGraphics.simplified_new
Scores
p311
(dp312
g10
I16
sg11
F0.4229868082309574
sg12
F1186521.2081
sg13
Nsba(iGraphics.simplified_new
Scores
p313
(dp314
g10
I16
sg11
F0.5664039482349471
sg12
F1178422.7035
sg13
Nsba(iGraphics.simplified_new
Scores
p315
(dp316
g10
I16
sg11
F0.5944542931247271
sg12
F1112613.9033
sg13
Nsba(iGraphics.simplified_new
Scores
p317
(dp318
g10
I14
sg11
F0.6203818746411935
sg12
F1042911.2855
sg13
Nsba(iGraphics.simplified_new
Scores
p319
(dp320
g10
I16
sg11
F0.47973828617962694
sg12
F809510.2495
sg13
Nsba(iGraphics.simplified_new
Scores
p321
(dp322
g10
I21
sg11
F0.4318614744189655
sg12
F1126187.4345
sg13
Nsbasg52
S'SWAY5'
p323
sbsS'SWAY5_100'
p324
(iGraphics.simplified_new
SolutionHolder
p325
(dp326
g4
g5
sg6
(lp327
(iGraphics.simplified_new
Scores
p328
(dp329
g10
I6
sg11
F0.3881976128257221
sg12
F1091775.2932
sg13
Nsba(iGraphics.simplified_new
Scores
p330
(dp331
g10
I6
sg11
F0.6734521117557867
sg12
F889620.8168
sg13
Nsba(iGraphics.simplified_new
Scores
p332
(dp333
g10
I7
sg11
F0.5886118358081781
sg12
F1120800.1274
sg13
Nsba(iGraphics.simplified_new
Scores
p334
(dp335
g10
I5
sg11
F0.5858374186621743
sg12
F823012.0257
sg13
Nsba(iGraphics.simplified_new
Scores
p336
(dp337
g10
I6
sg11
F0.6832699232830867
sg12
F1125721.0263
sg13
Nsba(iGraphics.simplified_new
Scores
p338
(dp339
g10
I6
sg11
F0.7947503854512421
sg12
F770058.9331
sg13
Nsba(iGraphics.simplified_new
Scores
p340
(dp341
g10
I6
sg11
F0.5597397337653429
sg12
F1064153.3448
sg13
Nsba(iGraphics.simplified_new
Scores
p342
(dp343
g10
I6
sg11
F0.5581252213422635
sg12
F914512.2681
sg13
Nsba(iGraphics.simplified_new
Scores
p344
(dp345
g10
I6
sg11
F0.6077047330784439
sg12
F1057763.589
sg13
Nsba(iGraphics.simplified_new
Scores
p346
(dp347
g10
I9
sg11
F0.46308823104526586
sg12
F1054282.6952
sg13
Nsba(iGraphics.simplified_new
Scores
p348
(dp349
g10
I6
sg11
F0.5730903924022431
sg12
F819603.4005
sg13
Nsba(iGraphics.simplified_new
Scores
p350
(dp351
g10
I6
sg11
F0.6551321099647067
sg12
F1281424.3557
sg13
Nsba(iGraphics.simplified_new
Scores
p352
(dp353
g10
I6
sg11
F0.6351878383315063
sg12
F968094.4929
sg13
Nsba(iGraphics.simplified_new
Scores
p354
(dp355
g10
I9
sg11
F0.7442581757324722
sg12
F1082913.9081
sg13
Nsba(iGraphics.simplified_new
Scores
p356
(dp357
g10
I6
sg11
F0.5977482346500783
sg12
F851814.3351
sg13
Nsba(iGraphics.simplified_new
Scores
p358
(dp359
g10
I6
sg11
F0.5116351315445565
sg12
F942119.6401
sg13
Nsba(iGraphics.simplified_new
Scores
p360
(dp361
g10
I6
sg11
F0.6383315307214291
sg12
F926463.1692
sg13
Nsba(iGraphics.simplified_new
Scores
p362
(dp363
g10
I6
sg11
F0.6332411115686618
sg12
F989273.373
sg13
Nsba(iGraphics.simplified_new
Scores
p364
(dp365
g10
I6
sg11
F0.6056034135161124
sg12
F772735.2111
sg13
Nsba(iGraphics.simplified_new
Scores
p366
(dp367
g10
I6
sg11
F0.5241329807594426
sg12
F1066671.7858
sg13
Nsbasg52
S'SWAY5'
p368
sbsS'NSGAII_100'
p369
(iGraphics.simplified_new
SolutionHolder
p370
(dp371
g4
g5
sg6
(lp372
(iGraphics.simplified_new
Scores
p373
(dp374
g10
I100
sg11
F0.7272248819438814
sg12
F1323780.4843
sg13
Nsba(iGraphics.simplified_new
Scores
p375
(dp376
g10
I100
sg11
F0.5616921967921953
sg12
F1312180.8707
sg13
Nsba(iGraphics.simplified_new
Scores
p377
(dp378
g10
I100
sg11
F0.7026449018356891
sg12
F1326376.4216
sg13
Nsba(iGraphics.simplified_new
Scores
p379
(dp380
g10
I100
sg11
F0.8142438267156236
sg12
F1316723.755
sg13
Nsba(iGraphics.simplified_new
Scores
p381
(dp382
g10
I100
sg11
F0.6504542343505838
sg12
F1319156.1954
sg13
Nsba(iGraphics.simplified_new
Scores
p383
(dp384
g10
I100
sg11
F0.6219449945411538
sg12
F1323010.2408
sg13
Nsba(iGraphics.simplified_new
Scores
p385
(dp386
g10
I100
sg11
F0.6349737072328625
sg12
F1320881.7038
sg13
Nsba(iGraphics.simplified_new
Scores
p387
(dp388
g10
I100
sg11
F0.6725849702401322
sg12
F1311245.9327
sg13
Nsba(iGraphics.simplified_new
Scores
p389
(dp390
g10
I100
sg11
F0.7449765849227259
sg12
F1317008.5296
sg13
Nsba(iGraphics.simplified_new
Scores
p391
(dp392
g10
I100
sg11
F0.6839054781756115
sg12
F1316045.6701
sg13
Nsba(iGraphics.simplified_new
Scores
p393
(dp394
g10
I100
sg11
F0.7535483040652246
sg12
F1321356.5786
sg13
Nsba(iGraphics.simplified_new
Scores
p395
(dp396
g10
I100
sg11
F0.6507008330893
sg12
F1313602.2505
sg13
Nsba(iGraphics.simplified_new
Scores
p397
(dp398
g10
I100
sg11
F0.6230460660394319
sg12
F1317357.9927
sg13
Nsba(iGraphics.simplified_new
Scores
p399
(dp400
g10
I100
sg11
F0.5727556411255663
sg12
F1313407.7939
sg13
Nsba(iGraphics.simplified_new
Scores
p401
(dp402
g10
I100
sg11
F0.7008423252976889
sg12
F1310987.5721
sg13
Nsba(iGraphics.simplified_new
Scores
p403
(dp404
g10
I100
sg11
F0.6719878653840268
sg12
F1319075.1007
sg13
Nsba(iGraphics.simplified_new
Scores
p405
(dp406
g10
I100
sg11
F0.7413225960754529
sg12
F1309105.7433
sg13
Nsba(iGraphics.simplified_new
Scores
p407
(dp408
g10
I100
sg11
F0.8169629514311463
sg12
F1314761.3067
sg13
Nsba(iGraphics.simplified_new
Scores
p409
(dp410
g10
I100
sg11
F0.6312264131146942
sg12
F1314386.9435
sg13
Nsba(iGraphics.simplified_new
Scores
p411
(dp412
g10
I100
sg11
F0.7094095966125055
sg12
F1311764.0288
sg13
Nsbasg52
S'NSGAII'
p413
sbs.