(dp0
S'POM3B(L)'
p1
(dp2
S'Spread'
p3
(lp4
(lp5
S'NSGAII_100'
p6
aF0.5846416144058618
aF0.6912181475531427
aF0.6585055294019645
aF0.629906247752151
aF0.6948685341836168
aF0.6328996791689565
aF0.6259370479045612
aF0.6126313432530812
aF0.7651110907327986
aF0.6494259472044269
aF0.6336786652152081
aF0.5636279002773429
aF0.8301475270577875
aF0.5648611853621988
aF0.6735476199114595
aF0.6462194498786371
aF0.5853211138792768
aF0.6286840662371878
aF0.6581097319177349
aF0.6814750460496779
aF0.7030681139055495
aa(lp7
S'SWAY5_10000'
p8
aF0.42707656595793525
aF0.3782537835100281
aF0.4359925137900487
aF0.41955658552686714
aF0.45813092763728236
aF0.39692925803461576
aF0.44446668586564064
aF0.4465247339740372
aF0.5778439121640406
aF0.3699568219098852
aF0.3434739879865235
aF0.4732045985091353
aF0.45911638304278185
aF0.39735073953286776
aF0.40005475388297995
aF0.452834487559156
aF0.46421662139260095
aF0.4448013246559809
aF0.39667295816096215
aF0.4527297983788027
aF0.41064352026613593
aa(lp9
S'SPEA2_100'
p10
aF0.5476502613681483
aF0.5981718011050595
aF0.5330950963405104
aF0.6468342014816122
aF0.6388535005468587
aF0.6373023123939606
aF0.6044673839517909
aF0.6813673929351087
aF0.6152672702328564
aF0.557886495078058
aF0.6038620996521624
aF0.6170145953394017
aF0.617216747522483
aF0.5956170243623156
aF0.6051875800931208
aF0.6300283358076414
aF0.6322065467816492
aF0.6634277199580092
aF0.5666497399976761
aF0.7430588261741304
aF0.5784214393086475
aasS'HV'
p11
(lp12
(lp13
S'NSGAII_100'
p14
aF1298006.9786
aF1301203.5941
aF1285117.6303
aF1296338.5471
aF1273151.0645
aF1296852.5277
aF1288392.8544
aF1284120.2297
aF1284211.681
aF1287262.8112
aF1286400.6378
aF1312263.9639
aF1275413.9176
aF1300861.8498
aF1274743.6148
aF1275758.7535
aF1310122.8254
aF1275439.7403
aF1310622.4301
aF1284065.6658
aF1317966.9841
aa(lp15
S'SWAY5_10000'
p16
aF1083893.4204
aF896103.7536
aF851266.8391
aF1105607.6637
aF1161006.0929
aF872480.3259
aF1060580.9461
aF1055870.225
aF1056739.1074
aF968368.3028
aF1013502.0072
aF1152777.8618
aF1034481.9244
aF1122883.121
aF943457.646
aF993418.3104
aF1066893.3981
aF1145883.9518
aF1144631.6278
aF891205.7833
aF1149962.9838
aa(lp17
S'SPEA2_100'
p18
aF1288474.0711
aF1297626.2552
aF1316817.3628
aF1285939.1743
aF1304893.0295
aF1292129.1906
aF1297594.4003
aF1309809.3379
aF1275464.9457
aF1298462.7405
aF1272326.933
aF1271225.3686
aF1287530.3676
aF1268690.1748
aF1279466.7972
aF1284673.1676
aF1300382.2168
aF1280761.8781
aF1287356.3579
aF1290367.0563
aF1291080.4733
aass.