(dp0
S'POM3C'
p1
(dp2
S'Spread'
p3
(lp4
(lp5
S'SPEA2_100'
p6
aF0.5655845322320308
aF0.700134724545882
aF0.6435027363918493
aF0.5846606647024702
aF0.6234896067406229
aF0.6731880813644952
aF0.6166093833259354
aF0.6149456113380423
aF0.5962328959131816
aF0.6036014807648118
aF0.670584946329251
aF0.6079161694210643
aF0.7247683068383595
aF0.6866352125844576
aF0.6340980950208212
aF0.7434905302725356
aF0.6335418042317468
aF0.6648680835991585
aF0.5925798221422025
aF0.6434161488487771
aa(lp7
S'SWAY5_1225'
p8
aF0.42509740672488844
aF0.475248924795553
aF0.39821014596038284
aF0.42357178537317053
aF0.5339251058492005
aF0.48557921816848354
aF0.47863063581103393
aF0.5392001644552001
aF0.3965357300689084
aF0.415820482287951
aF0.394282251313684
aF0.48187599728046543
aF0.5924744467966552
aF0.47646929863163123
aF0.5336432150835342
aF0.5617194411279234
aF0.4442251004556402
aF0.44645761172567594
aF0.5336912464569744
aF0.37553690349741614
aa(lp9
S'SWAY5_5000'
p10
aF0.43463064210314584
aF0.4435374156643322
aF0.5156358710358098
aF0.4862411380661977
aF0.41501028906871773
aF0.4621773772160227
aF0.4632734985903231
aF0.49928602360867874
aF0.4645064069602042
aF0.4439973867037754
aF0.39006847411590345
aF0.4128446901301573
aF0.452913126237374
aF0.4917854100592371
aF0.517141446297153
aF0.4052687691574524
aF0.3817282643465222
aF0.4734228294142615
aF0.4222824250478459
aF0.5466004763630963
aa(lp11
S'SWAY5_2500'
p12
aF0.3857325202605862
aF0.5324572421374669
aF0.5161485761585393
aF0.5019402074311607
aF0.5241250847400821
aF0.4916487482967381
aF0.5080405231363898
aF0.43875547335197274
aF0.47877940357728127
aF0.4575487141609342
aF0.48027083566162737
aF0.45745622104298117
aF0.5584131469566119
aF0.4049410747256511
aF0.4487006287950158
aF0.49403770169074857
aF0.42293113683145084
aF0.49529803345232576
aF0.5843158513419358
aF0.4440808718961911
aa(lp13
S'SWAY5_10000'
p14
aF0.4466013236712343
aF0.39764508989603314
aF0.5715118632458035
aF0.5097116418086045
aF0.44441830315014824
aF0.415587082204167
aF0.4508137010431015
aF0.4959010141518501
aF0.4279342213673745
aF0.5035820482626645
aF0.5261147954403275
aF0.41422736072755006
aF0.5892725834350274
aF0.41805402363605043
aF0.4021819326035633
aF0.42752910183377807
aF0.42418835440078745
aF0.4245913144022832
aF0.5647134744409481
aF0.46864336697519404
aa(lp15
S'NSGAII_100'
p16
aF0.5136501413362745
aF0.5264403939542103
aF0.6118868151413801
aF0.6491560365869382
aF0.6450313200112887
aF0.593332823236604
aF0.6742272586618979
aF0.7315913713088388
aF0.5865268955781208
aF0.6301499974724281
aF0.5352731361763501
aF0.550383639700274
aF0.5301084241957487
aF0.5497660528729489
aF0.6399217377502371
aF0.4545124418439624
aF0.5473708938113789
aF0.6564773665327495
aF0.4354746488653101
aF0.5857792598317503
aasS'HV'
p17
(lp18
(lp19
S'SPEA2_100'
p20
aF1131655.0513
aF1170419.8455
aF1120544.3112
aF1136629.3253
aF1165880.1806
aF1173149.4183
aF1143995.2137
aF1123434.3153
aF1120287.0596
aF1142681.5841
aF1147687.8232
aF1154696.3832
aF1115706.3046
aF1182375.0068
aF1134697.3738
aF1141953.5968
aF1160605.1984
aF1142711.9855
aF1171641.9317
aF1134006.2149
aa(lp21
S'SWAY5_1225'
p22
aF693915.8019
aF684274.698
aF714558.9037
aF901837.7054
aF601769.8693
aF716731.8452
aF691396.6507
aF772258.3678
aF872254.6624
aF660344.3105
aF617421.8876
aF743986.9044
aF909314.1753
aF855039.2177
aF764361.0948
aF789460.9616
aF901207.7754
aF900233.9469
aF792840.1011
aF693696.5347
aa(lp23
S'SWAY5_5000'
p24
aF649924.5301
aF799155.98
aF828290.2069
aF749086.1651
aF835453.8112
aF760498.2314
aF948525.5242
aF856483.6451
aF754453.3086
aF827849.3829
aF711905.0851
aF833218.9722
aF775293.8732
aF878006.0275
aF672695.0359
aF805960.6459
aF689916.0344
aF836669.1975
aF850641.5641
aF863326.8583
aa(lp25
S'SWAY5_2500'
p26
aF853837.5083
aF771645.3326
aF835612.1405
aF811048.8731
aF780419.5216
aF801573.404
aF776944.8547
aF790567.2872
aF715183.1902
aF753120.4974
aF829275.6679
aF756518.3102
aF848937.37
aF772370.0851
aF618820.8728
aF845467.1776
aF782962.2744
aF852042.2401
aF764309.6468
aF765582.3979
aa(lp27
S'SWAY5_10000'
p28
aF951850.1578
aF902635.9368
aF771979.7101
aF892994.4113
aF864095.2411
aF795392.8087
aF848364.8986
aF749563.2324
aF736777.525
aF664489.606
aF754232.6253
aF895021.3927
aF861866.9029
aF793938.3885
aF902314.23
aF875795.7993
aF950089.814
aF863856.8794
aF808197.1335
aF948217.9499
aa(lp29
S'NSGAII_100'
p30
aF1164571.5413
aF1140555.8303
aF1169184.5874
aF1134524.4896
aF1147388.7608
aF1212148.3123
aF1159477.8911
aF1111097.3176
aF1168057.5305
aF1164391.9328
aF1190651.2051
aF1150236.7145
aF1126990.3068
aF1155117.5557
aF1146151.3887
aF1150143.9962
aF1166479.5889
aF1122389.486
aF1152170.4301
aF1095035.4543
aass.