(dp0
S'SWAY5_2500'
p1
(iGraphics.simplified_new
SolutionHolder
p2
(dp3
S'problem'
p4
S'POM3C'
p5
sS'repeats'
p6
(lp7
(iGraphics.simplified_new
Scores
p8
(dp9
S'pfs'
p10
I33
sS'spread'
p11
F0.39125732057939044
sS'hv'
p12
F955146.1279
sS'igd'
p13
Nsba(iGraphics.simplified_new
Scores
p14
(dp15
g10
I30
sg11
F0.5304119740458678
sg12
F855525.3495
sg13
Nsba(iGraphics.simplified_new
Scores
p16
(dp17
g10
I29
sg11
F0.5096544810892244
sg12
F933166.9997
sg13
Nsba(iGraphics.simplified_new
Scores
p18
(dp19
g10
I44
sg11
F0.48031404165620156
sg12
F899598.5789
sg13
Nsba(iGraphics.simplified_new
Scores
p20
(dp21
g10
I25
sg11
F0.4956543016682489
sg12
F863779.2637
sg13
Nsba(iGraphics.simplified_new
Scores
p22
(dp23
g10
I17
sg11
F0.46868826521093393
sg12
F893879.3828
sg13
Nsba(iGraphics.simplified_new
Scores
p24
(dp25
g10
I29
sg11
F0.4835992969176844
sg12
F857716.3586
sg13
Nsba(iGraphics.simplified_new
Scores
p26
(dp27
g10
I26
sg11
F0.4044770273855436
sg12
F878251.6073
sg13
Nsba(iGraphics.simplified_new
Scores
p28
(dp29
g10
I45
sg11
F0.4662918838641933
sg12
F777801.5568
sg13
Nsba(iGraphics.simplified_new
Scores
p30
(dp31
g10
I29
sg11
F0.402751249330031
sg12
F837651.4661
sg13
Nsba(iGraphics.simplified_new
Scores
p32
(dp33
g10
I37
sg11
F0.46639748778029644
sg12
F925545.8353
sg13
Nsba(iGraphics.simplified_new
Scores
p34
(dp35
g10
I39
sg11
F0.4579319656982176
sg12
F829639.0162
sg13
Nsba(iGraphics.simplified_new
Scores
p36
(dp37
g10
I19
sg11
F0.5217377278026637
sg12
F962385.7403
sg13
Nsba(iGraphics.simplified_new
Scores
p38
(dp39
g10
I36
sg11
F0.38641889785039707
sg12
F843308.7433
sg13
Nsba(iGraphics.simplified_new
Scores
p40
(dp41
g10
I39
sg11
F0.42074498728925425
sg12
F657550.4412
sg13
Nsba(iGraphics.simplified_new
Scores
p42
(dp43
g10
I44
sg11
F0.47909070955755945
sg12
F951043.0617
sg13
Nsba(iGraphics.simplified_new
Scores
p44
(dp45
g10
I44
sg11
F0.4121187947340771
sg12
F858241.349
sg13
Nsba(iGraphics.simplified_new
Scores
p46
(dp47
g10
I39
sg11
F0.4669375904922169
sg12
F959057.5396
sg13
Nsba(iGraphics.simplified_new
Scores
p48
(dp49
g10
I29
sg11
F0.5571748346023506
sg12
F839689.2121
sg13
Nsba(iGraphics.simplified_new
Scores
p50
(dp51
g10
I33
sg11
F0.43161118371664514
sg12
F837396.4323
sg13
NsbasS'algorithm'
p52
S'SWAY5'
p53
sbsS'SWAY5_10000'
p54
(iGraphics.simplified_new
SolutionHolder
p55
(dp56
g4
g5
sg6
(lp57
(iGraphics.simplified_new
Scores
p58
(dp59
g10
I87
sg11
F0.41973148838213853
sg12
F1089153.3013
sg13
Nsba(iGraphics.simplified_new
Scores
p60
(dp61
g10
I58
sg11
F0.37869564396645894
sg12
F1026103.6151
sg13
Nsba(iGraphics.simplified_new
Scores
p62
(dp63
g10
I25
sg11
F0.5539413664781386
sg12
F849537.9008
sg13
Nsba(iGraphics.simplified_new
Scores
p64
(dp65
g10
I59
sg11
F0.4993943561514714
sg12
F1006231.2751
sg13
Nsba(iGraphics.simplified_new
Scores
p66
(dp67
g10
I49
sg11
F0.4356917131861274
sg12
F971286.378
sg13
Nsba(iGraphics.simplified_new
Scores
p68
(dp69
g10
I68
sg11
F0.4032748931381247
sg12
F876587.5425
sg13
Nsba(iGraphics.simplified_new
Scores
p70
(dp71
g10
I48
sg11
F0.4323597093665546
sg12
F947999.0623
sg13
Nsba(iGraphics.simplified_new
Scores
p72
(dp73
g10
I78
sg11
F0.47349662803643294
sg12
F822023.2385
sg13
Nsba(iGraphics.simplified_new
Scores
p74
(dp75
g10
I64
sg11
F0.3921699700453054
sg12
F810943.363
sg13
Nsba(iGraphics.simplified_new
Scores
p76
(dp77
g10
I29
sg11
F0.4748954563349685
sg12
F721224.2564
sg13
Nsba(iGraphics.simplified_new
Scores
p78
(dp79
g10
I29
sg11
F0.49516215857879614
sg12
F837317.2664
sg13
Nsba(iGraphics.simplified_new
Scores
p80
(dp81
g10
I62
sg11
F0.397041426634616
sg12
F1013019.3606
sg13
Nsba(iGraphics.simplified_new
Scores
p82
(dp83
g10
I68
sg11
F0.5758477413382657
sg12
F967948.9652
sg13
Nsba(iGraphics.simplified_new
Scores
p84
(dp85
g10
I68
sg11
F0.39571768629283605
sg12
F883992.4031
sg13
Nsba(iGraphics.simplified_new
Scores
p86
(dp87
g10
I62
sg11
F0.39810286516102505
sg12
F1018004.3383
sg13
Nsba(iGraphics.simplified_new
Scores
p88
(dp89
g10
I51
sg11
F0.41341974573843226
sg12
F993004.0514
sg13
Nsba(iGraphics.simplified_new
Scores
p90
(dp91
g10
I78
sg11
F0.40525688233284024
sg12
F1088707.6446
sg13
Nsba(iGraphics.simplified_new
Scores
p92
(dp93
g10
I99
sg11
F0.40126051315944933
sg12
F975535.3878
sg13
Nsba(iGraphics.simplified_new
Scores
p94
(dp95
g10
I60
sg11
F0.5403269250389459
sg12
F899072.1445
sg13
Nsba(iGraphics.simplified_new
Scores
p96
(dp97
g10
I78
sg11
F0.44661520555733025
sg12
F1074726.9395
sg13
Nsbasg52
S'SWAY5'
p98
sbsS'SWAY5_1225'
p99
(iGraphics.simplified_new
SolutionHolder
p100
(dp101
g4
g5
sg6
(lp102
(iGraphics.simplified_new
Scores
p103
(dp104
g10
I19
sg11
F0.38389789563127324
sg12
F760093.5435
sg13
Nsba(iGraphics.simplified_new
Scores
p105
(dp106
g10
I21
sg11
F0.42537690728761834
sg12
F750575.0753
sg13
Nsba(iGraphics.simplified_new
Scores
p107
(dp108
g10
I19
sg11
F0.36444197013891527
sg12
F781330.3268
sg13
Nsba(iGraphics.simplified_new
Scores
p109
(dp110
g10
I31
sg11
F0.4111853574091375
sg12
F1022291.3562
sg13
Nsba(iGraphics.simplified_new
Scores
p111
(dp112
g10
I19
sg11
F0.5317374929203853
sg12
F647073.1881
sg13
Nsba(iGraphics.simplified_new
Scores
p113
(dp114
g10
I19
sg11
F0.4517793733941057
sg12
F778068.368
sg13
Nsba(iGraphics.simplified_new
Scores
p115
(dp116
g10
I20
sg11
F0.4254039718600516
sg12
F757371.0116
sg13
Nsba(iGraphics.simplified_new
Scores
p117
(dp118
g10
I25
sg11
F0.5016860143243919
sg12
F856421.5515
sg13
Nsba(iGraphics.simplified_new
Scores
p119
(dp120
g10
I28
sg11
F0.37287698511564904
sg12
F980123.3299
sg13
Nsba(iGraphics.simplified_new
Scores
p121
(dp122
g10
I29
sg11
F0.39630279564024473
sg12
F713781.209
sg13
Nsba(iGraphics.simplified_new
Scores
p123
(dp124
g10
I19
sg11
F0.40708739952722456
sg12
F651582.2377
sg13
Nsba(iGraphics.simplified_new
Scores
p125
(dp126
g10
I17
sg11
F0.4708998399232414
sg12
F819220.3143
sg13
Nsba(iGraphics.simplified_new
Scores
p127
(dp128
g10
I19
sg11
F0.5766490844468524
sg12
F1038143.5564
sg13
Nsba(iGraphics.simplified_new
Scores
p129
(dp130
g10
I29
sg11
F0.4492363027911866
sg12
F967375.0888
sg13
Nsba(iGraphics.simplified_new
Scores
p131
(dp132
g10
I18
sg11
F0.5009962551630728
sg12
F851912.4147
sg13
Nsba(iGraphics.simplified_new
Scores
p133
(dp134
g10
I23
sg11
F0.548771891902533
sg12
F872320.0347
sg13
Nsba(iGraphics.simplified_new
Scores
p135
(dp136
g10
I19
sg11
F0.4102181431420066
sg12
F1026650.1218
sg13
Nsba(iGraphics.simplified_new
Scores
p137
(dp138
g10
I28
sg11
F0.4266260072652504
sg12
F1014674.2611
sg13
Nsba(iGraphics.simplified_new
Scores
p139
(dp140
g10
I32
sg11
F0.5051864319038297
sg12
F881248.3434
sg13
Nsba(iGraphics.simplified_new
Scores
p141
(dp142
g10
I24
sg11
F0.35844074659273756
sg12
F749679.1572
sg13
Nsbasg52
S'SWAY5'
p143
sbsS'SWAY5_5000'
p144
(iGraphics.simplified_new
SolutionHolder
p145
(dp146
g4
g5
sg6
(lp147
(iGraphics.simplified_new
Scores
p148
(dp149
g10
I68
sg11
F0.4197960883625107
sg12
F702988.4665
sg13
Nsba(iGraphics.simplified_new
Scores
p150
(dp151
g10
I39
sg11
F0.42938706747901584
sg12
F888937.4614
sg13
Nsba(iGraphics.simplified_new
Scores
p152
(dp153
g10
I51
sg11
F0.5007630415902891
sg12
F927853.4893
sg13
Nsba(iGraphics.simplified_new
Scores
p154
(dp155
g10
I58
sg11
F0.4705565229744212
sg12
F819326.6575
sg13
Nsba(iGraphics.simplified_new
Scores
p156
(dp157
g10
I29
sg11
F0.3693251875118962
sg12
F932207.13
sg13
Nsba(iGraphics.simplified_new
Scores
p158
(dp159
g10
I22
sg11
F0.43047420995276164
sg12
F837281.6323
sg13
Nsba(iGraphics.simplified_new
Scores
p160
(dp161
g10
I59
sg11
F0.43376902770189596
sg12
F1082888.5492
sg13
Nsba(iGraphics.simplified_new
Scores
p162
(dp163
g10
I19
sg11
F0.49057288035156976
sg12
F967802.706
sg13
Nsba(iGraphics.simplified_new
Scores
p164
(dp165
g10
I39
sg11
F0.4144873300279207
sg12
F835879.9388
sg13
Nsba(iGraphics.simplified_new
Scores
p166
(dp167
g10
I39
sg11
F0.42136467027666236
sg12
F926902.4685
sg13
Nsba(iGraphics.simplified_new
Scores
p168
(dp169
g10
I39
sg11
F0.36679627669302606
sg12
F778767.5948
sg13
Nsba(iGraphics.simplified_new
Scores
p170
(dp171
g10
I29
sg11
F0.41480127084979973
sg12
F924599.4457
sg13
Nsba(iGraphics.simplified_new
Scores
p172
(dp173
g10
I38
sg11
F0.4361814294700646
sg12
F856172.3993
sg13
Nsba(iGraphics.simplified_new
Scores
p174
(dp175
g10
I39
sg11
F0.4848168664149525
sg12
F991785.2553
sg13
Nsba(iGraphics.simplified_new
Scores
p176
(dp177
g10
I39
sg11
F0.49356081056945733
sg12
F732222.6867
sg13
Nsba(iGraphics.simplified_new
Scores
p178
(dp179
g10
I58
sg11
F0.3964185257808238
sg12
F895476.9041
sg13
Nsba(iGraphics.simplified_new
Scores
p180
(dp181
g10
I61
sg11
F0.3725616556917073
sg12
F747308.8188
sg13
Nsba(iGraphics.simplified_new
Scores
p182
(dp183
g10
I59
sg11
F0.4663765075708897
sg12
F934544.5595
sg13
Nsba(iGraphics.simplified_new
Scores
p184
(dp185
g10
I51
sg11
F0.41584928594812604
sg12
F954776.7173
sg13
Nsba(iGraphics.simplified_new
Scores
p186
(dp187
g10
I19
sg11
F0.5235706079513847
sg12
F971273.6088
sg13
Nsbasg52
S'SWAY5'
p188
sbs.