(dp0
S'POM3D'
p1
(dp2
S'Spread'
p3
(lp4
(lp5
S'SPEA2_100'
p6
aF0.8215861822367039
aF0.6681895787896633
aF0.7734612730702531
aF0.744922927817973
aF0.7691157924159432
aF0.791908624644004
aF0.8250941709312634
aF0.8666798768687204
aF0.8217535280284043
aF0.8188534811524573
aF0.7500301978973546
aF0.8246170243538582
aF0.8369706193034678
aF0.727996394085042
aF0.762868540828065
aF0.7555330424519416
aF0.8521006383095763
aF0.8492732789886467
aF0.7544584458341883
aF0.919944622066009
aa(lp7
S'SWAY5_1225'
p8
aF0.5221576180516183
aF0.5579234182896836
aF0.5482553821532845
aF0.5513454296239714
aF0.5628334682214994
aF0.57484558437005
aF0.6513558254168482
aF0.5921565509434851
aF0.5816346660010792
aF0.5639805224101673
aF0.7260082905208586
aF0.5879815708747025
aF0.553205194489409
aF0.640328753992475
aF0.5279893644848175
aF0.5914610554389599
aF0.5957571113815566
aF0.585645913450912
aF0.5677545621801449
aF0.7132118129395135
aa(lp9
S'SWAY5_5000'
p10
aF0.46307728627747335
aF0.5691066708934496
aF0.5712159798732493
aF0.5485199218248872
aF0.5474444946063589
aF0.5660385273881235
aF0.5947128914002118
aF0.5085367452884201
aF0.5378284498779183
aF0.5168585908826806
aF0.4735992548867267
aF0.6251829982351519
aF0.47818487925898323
aF0.5285699902788211
aF0.6241793250593237
aF0.5828436602375999
aF0.5342487141794373
aF0.49626247633814596
aF0.5742131886103141
aF0.5747909694551877
aa(lp11
S'SWAY5_2500'
p12
aF0.5466828482846784
aF0.6577755748487609
aF0.508858475710844
aF0.5106467275112846
aF0.5979893910669344
aF0.5202534298727046
aF0.5139906188593019
aF0.4495494748741043
aF0.5371451808752601
aF0.5789258052477955
aF0.5476515172161218
aF0.5248448171832414
aF0.602587395316113
aF0.518826367959786
aF0.412344917130603
aF0.671392233620598
aF0.6163142281390449
aF0.5367227436787759
aF0.5378471066251342
aF0.5713319745571168
aa(lp13
S'SWAY5_10000'
p14
aF0.5090300508697453
aF0.5346390949638102
aF0.5359314072307686
aF0.5290394509590901
aF0.5520176726547547
aF0.5280821597589774
aF0.4876100700279518
aF0.4944898844577584
aF0.5353449636144971
aF0.5419081318900634
aF0.5543225499146854
aF0.5287380914090771
aF0.4191444583521311
aF0.4467897244841477
aF0.5372306813617019
aF0.4353950371922105
aF0.4647431656167072
aF0.5558795488455255
aF0.4501088009424713
aF0.5336149335733674
aa(lp15
S'NSGAII_100'
p16
aF1.0045827332918322
aF0.7297335049919254
aF0.783020939911003
aF0.7544048577433322
aF0.8883933298805922
aF0.6989713111757121
aF0.7566749415167403
aF0.7319277221648129
aF0.873885019621781
aF0.9578967519735608
aF0.7908545378719971
aF0.7733017193189599
aF0.864129813474256
aF0.7851547744722345
aF0.7976348056848593
aF0.7372673783449571
aF0.6689326218437961
aF0.798942744456353
aF0.7779774409893423
aF0.8015176045401806
aasS'HV'
p17
(lp18
(lp19
S'SPEA2_100'
p20
aF1315027.909
aF1302636.6808
aF1303917.4032
aF1292331.7554
aF1303753.498
aF1306963.4485
aF1322139.0696
aF1321449.3782
aF1286936.8097
aF1297962.9954
aF1287205.5095
aF1309894.3428
aF1285468.598
aF1293415.2028
aF1323364.4229
aF1285529.3763
aF1311962.0425
aF1319742.3971
aF1289758.4186
aF1307999.1752
aa(lp21
S'SWAY5_1225'
p22
aF1201494.015
aF1170415.0477
aF1203536.7594
aF1192598.9824
aF1159552.8736
aF1078059.3721
aF1183003.5642
aF1136433.44
aF1181495.4719
aF1201302.9896
aF1197322.822
aF1226353.6015
aF1234720.6858
aF1234634.2169
aF1189177.4143
aF1201734.7917
aF1214544.9505
aF1172989.8013
aF1168993.6351
aF1217679.0927
aa(lp23
S'SWAY5_5000'
p24
aF1187476.8336
aF1248381.8979
aF1204633.5853
aF1224316.5442
aF1121912.8139
aF1235348.4995
aF1237776.1854
aF1235113.1145
aF1223621.767
aF1193382.8832
aF1191594.5692
aF1218582.3655
aF1128390.4414
aF1222019.5378
aF1127763.883
aF1316004.181
aF1214118.3153
aF1219331.6033
aF1199334.8205
aF1192751.3708
aa(lp25
S'SWAY5_2500'
p26
aF1234972.0111
aF1206671.8045
aF1243279.0971
aF1208356.1181
aF1283402.0767
aF1242424.7605
aF1237700.0244
aF1160927.2747
aF1227962.9396
aF1196112.5537
aF1244410.4034
aF1225040.864
aF1219614.1865
aF1221919.2012
aF1173285.2757
aF1235203.053
aF1244951.0118
aF1235429.3692
aF1214532.6553
aF1236571.9948
aa(lp27
S'SWAY5_10000'
p28
aF1230267.1101
aF1243035.5605
aF1242023.3076
aF1243871.5611
aF1206924.8381
aF1159129.7605
aF1225069.127
aF1228830.8105
aF1245205.3682
aF1230450.002
aF1138859.291
aF1241263.7814
aF1243100.6162
aF1194970.445
aF1231696.0789
aF1223707.4797
aF1214812.7126
aF1189044.7169
aF1299709.5456
aF1228698.6237
aa(lp29
S'NSGAII_100'
p30
aF1314175.0002
aF1297152.6719
aF1325216.4003
aF1306928.9782
aF1326768.1923
aF1301120.0075
aF1296777.4614
aF1309748.1971
aF1292373.4087
aF1319159.3556
aF1325211.4821
aF1313209.2868
aF1308433.4555
aF1288155.5668
aF1305750.1815
aF1312815.2026
aF1290545.6538
aF1308671.8025
aF1289688.4269
aF1309740.1119
aass.