(dp0
S'SPEA2_100'
p1
(iGraphics.simplified_new
SolutionHolder
p2
(dp3
S'problem'
p4
S'POM3D'
p5
sS'repeats'
p6
(lp7
(iGraphics.simplified_new
Scores
p8
(dp9
S'pfs'
p10
I100
sS'spread'
p11
F0.8215861822367039
sS'hv'
p12
F1315027.909
sS'igd'
p13
Nsba(iGraphics.simplified_new
Scores
p14
(dp15
g10
I100
sg11
F0.6681895787896633
sg12
F1302636.6808
sg13
Nsba(iGraphics.simplified_new
Scores
p16
(dp17
g10
I100
sg11
F0.7734612730702531
sg12
F1303917.4032
sg13
Nsba(iGraphics.simplified_new
Scores
p18
(dp19
g10
I100
sg11
F0.744922927817973
sg12
F1292331.7554
sg13
Nsba(iGraphics.simplified_new
Scores
p20
(dp21
g10
I100
sg11
F0.7691157924159432
sg12
F1303753.498
sg13
Nsba(iGraphics.simplified_new
Scores
p22
(dp23
g10
I100
sg11
F0.791908624644004
sg12
F1306963.4485
sg13
Nsba(iGraphics.simplified_new
Scores
p24
(dp25
g10
I100
sg11
F0.8250941709312634
sg12
F1322139.0696
sg13
Nsba(iGraphics.simplified_new
Scores
p26
(dp27
g10
I100
sg11
F0.8666798768687204
sg12
F1321449.3782
sg13
Nsba(iGraphics.simplified_new
Scores
p28
(dp29
g10
I100
sg11
F0.8217535280284043
sg12
F1286936.8097
sg13
Nsba(iGraphics.simplified_new
Scores
p30
(dp31
g10
I100
sg11
F0.8188534811524573
sg12
F1297962.9954
sg13
Nsba(iGraphics.simplified_new
Scores
p32
(dp33
g10
I100
sg11
F0.7500301978973546
sg12
F1287205.5095
sg13
Nsba(iGraphics.simplified_new
Scores
p34
(dp35
g10
I100
sg11
F0.8246170243538582
sg12
F1309894.3428
sg13
Nsba(iGraphics.simplified_new
Scores
p36
(dp37
g10
I100
sg11
F0.8369706193034678
sg12
F1285468.598
sg13
Nsba(iGraphics.simplified_new
Scores
p38
(dp39
g10
I100
sg11
F0.727996394085042
sg12
F1293415.2028
sg13
Nsba(iGraphics.simplified_new
Scores
p40
(dp41
g10
I100
sg11
F0.762868540828065
sg12
F1323364.4229
sg13
Nsba(iGraphics.simplified_new
Scores
p42
(dp43
g10
I100
sg11
F0.7555330424519416
sg12
F1285529.3763
sg13
Nsba(iGraphics.simplified_new
Scores
p44
(dp45
g10
I100
sg11
F0.8521006383095763
sg12
F1311962.0425
sg13
Nsba(iGraphics.simplified_new
Scores
p46
(dp47
g10
I100
sg11
F0.8492732789886467
sg12
F1319742.3971
sg13
Nsba(iGraphics.simplified_new
Scores
p48
(dp49
g10
I100
sg11
F0.7544584458341883
sg12
F1289758.4186
sg13
Nsba(iGraphics.simplified_new
Scores
p50
(dp51
g10
I100
sg11
F0.919944622066009
sg12
F1307999.1752
sg13
NsbasS'algorithm'
p52
S'SPEA2'
p53
sbsS'SWAY5_1225'
p54
(iGraphics.simplified_new
SolutionHolder
p55
(dp56
g4
g5
sg6
(lp57
(iGraphics.simplified_new
Scores
p58
(dp59
g10
I25
sg11
F0.5221576180516183
sg12
F1201494.015
sg13
Nsba(iGraphics.simplified_new
Scores
p60
(dp61
g10
I21
sg11
F0.5579234182896836
sg12
F1170415.0477
sg13
Nsba(iGraphics.simplified_new
Scores
p62
(dp63
g10
I28
sg11
F0.5482553821532845
sg12
F1203536.7594
sg13
Nsba(iGraphics.simplified_new
Scores
p64
(dp65
g10
I32
sg11
F0.5513454296239714
sg12
F1192598.9824
sg13
Nsba(iGraphics.simplified_new
Scores
p66
(dp67
g10
I19
sg11
F0.5628334682214994
sg12
F1159552.8736
sg13
Nsba(iGraphics.simplified_new
Scores
p68
(dp69
g10
I19
sg11
F0.57484558437005
sg12
F1078059.3721
sg13
Nsba(iGraphics.simplified_new
Scores
p70
(dp71
g10
I29
sg11
F0.6513558254168482
sg12
F1183003.5642
sg13
Nsba(iGraphics.simplified_new
Scores
p72
(dp73
g10
I19
sg11
F0.5921565509434851
sg12
F1136433.44
sg13
Nsba(iGraphics.simplified_new
Scores
p74
(dp75
g10
I33
sg11
F0.5816346660010792
sg12
F1181495.4719
sg13
Nsba(iGraphics.simplified_new
Scores
p76
(dp77
g10
I28
sg11
F0.5639805224101673
sg12
F1201302.9896
sg13
Nsba(iGraphics.simplified_new
Scores
p78
(dp79
g10
I19
sg11
F0.7260082905208586
sg12
F1197322.822
sg13
Nsba(iGraphics.simplified_new
Scores
p80
(dp81
g10
I28
sg11
F0.5879815708747025
sg12
F1226353.6015
sg13
Nsba(iGraphics.simplified_new
Scores
p82
(dp83
g10
I21
sg11
F0.553205194489409
sg12
F1234720.6858
sg13
Nsba(iGraphics.simplified_new
Scores
p84
(dp85
g10
I28
sg11
F0.640328753992475
sg12
F1234634.2169
sg13
Nsba(iGraphics.simplified_new
Scores
p86
(dp87
g10
I29
sg11
F0.5279893644848175
sg12
F1189177.4143
sg13
Nsba(iGraphics.simplified_new
Scores
p88
(dp89
g10
I19
sg11
F0.5914610554389599
sg12
F1201734.7917
sg13
Nsba(iGraphics.simplified_new
Scores
p90
(dp91
g10
I19
sg11
F0.5957571113815566
sg12
F1214544.9505
sg13
Nsba(iGraphics.simplified_new
Scores
p92
(dp93
g10
I19
sg11
F0.585645913450912
sg12
F1172989.8013
sg13
Nsba(iGraphics.simplified_new
Scores
p94
(dp95
g10
I28
sg11
F0.5677545621801449
sg12
F1168993.6351
sg13
Nsba(iGraphics.simplified_new
Scores
p96
(dp97
g10
I19
sg11
F0.7132118129395135
sg12
F1217679.0927
sg13
Nsbasg52
S'SWAY5'
p98
sbsS'SWAY5_5000'
p99
(iGraphics.simplified_new
SolutionHolder
p100
(dp101
g4
g5
sg6
(lp102
(iGraphics.simplified_new
Scores
p103
(dp104
g10
I68
sg11
F0.46307728627747335
sg12
F1187476.8336
sg13
Nsba(iGraphics.simplified_new
Scores
p105
(dp106
g10
I59
sg11
F0.5691066708934496
sg12
F1248381.8979
sg13
Nsba(iGraphics.simplified_new
Scores
p107
(dp108
g10
I66
sg11
F0.5712159798732493
sg12
F1204633.5853
sg13
Nsba(iGraphics.simplified_new
Scores
p109
(dp110
g10
I39
sg11
F0.5485199218248872
sg12
F1224316.5442
sg13
Nsba(iGraphics.simplified_new
Scores
p111
(dp112
g10
I37
sg11
F0.5474444946063589
sg12
F1121912.8139
sg13
Nsba(iGraphics.simplified_new
Scores
p113
(dp114
g10
I39
sg11
F0.5660385273881235
sg12
F1235348.4995
sg13
Nsba(iGraphics.simplified_new
Scores
p115
(dp116
g10
I36
sg11
F0.5947128914002118
sg12
F1237776.1854
sg13
Nsba(iGraphics.simplified_new
Scores
p117
(dp118
g10
I62
sg11
F0.5085367452884201
sg12
F1235113.1145
sg13
Nsba(iGraphics.simplified_new
Scores
p119
(dp120
g10
I57
sg11
F0.5378284498779183
sg12
F1223621.767
sg13
Nsba(iGraphics.simplified_new
Scores
p121
(dp122
g10
I59
sg11
F0.5168585908826806
sg12
F1193382.8832
sg13
Nsba(iGraphics.simplified_new
Scores
p123
(dp124
g10
I58
sg11
F0.4735992548867267
sg12
F1191594.5692
sg13
Nsba(iGraphics.simplified_new
Scores
p125
(dp126
g10
I68
sg11
F0.6251829982351519
sg12
F1218582.3655
sg13
Nsba(iGraphics.simplified_new
Scores
p127
(dp128
g10
I58
sg11
F0.47818487925898323
sg12
F1128390.4414
sg13
Nsba(iGraphics.simplified_new
Scores
p129
(dp130
g10
I58
sg11
F0.5285699902788211
sg12
F1222019.5378
sg13
Nsba(iGraphics.simplified_new
Scores
p131
(dp132
g10
I39
sg11
F0.6241793250593237
sg12
F1127763.883
sg13
Nsba(iGraphics.simplified_new
Scores
p133
(dp134
g10
I39
sg11
F0.5828436602375999
sg12
F1316004.181
sg13
Nsba(iGraphics.simplified_new
Scores
p135
(dp136
g10
I44
sg11
F0.5342487141794373
sg12
F1214118.3153
sg13
Nsba(iGraphics.simplified_new
Scores
p137
(dp138
g10
I34
sg11
F0.49626247633814596
sg12
F1219331.6033
sg13
Nsba(iGraphics.simplified_new
Scores
p139
(dp140
g10
I66
sg11
F0.5742131886103141
sg12
F1199334.8205
sg13
Nsba(iGraphics.simplified_new
Scores
p141
(dp142
g10
I44
sg11
F0.5747909694551877
sg12
F1192751.3708
sg13
Nsbasg52
S'SWAY5'
p143
sbsS'SWAY5_2500'
p144
(iGraphics.simplified_new
SolutionHolder
p145
(dp146
g4
g5
sg6
(lp147
(iGraphics.simplified_new
Scores
p148
(dp149
g10
I21
sg11
F0.5466828482846784
sg12
F1234972.0111
sg13
Nsba(iGraphics.simplified_new
Scores
p150
(dp151
g10
I26
sg11
F0.6577755748487609
sg12
F1206671.8045
sg13
Nsba(iGraphics.simplified_new
Scores
p152
(dp153
g10
I39
sg11
F0.508858475710844
sg12
F1243279.0971
sg13
Nsba(iGraphics.simplified_new
Scores
p154
(dp155
g10
I44
sg11
F0.5106467275112846
sg12
F1208356.1181
sg13
Nsba(iGraphics.simplified_new
Scores
p156
(dp157
g10
I19
sg11
F0.5979893910669344
sg12
F1283402.0767
sg13
Nsba(iGraphics.simplified_new
Scores
p158
(dp159
g10
I36
sg11
F0.5202534298727046
sg12
F1242424.7605
sg13
Nsba(iGraphics.simplified_new
Scores
p160
(dp161
g10
I31
sg11
F0.5139906188593019
sg12
F1237700.0244
sg13
Nsba(iGraphics.simplified_new
Scores
p162
(dp163
g10
I39
sg11
F0.4495494748741043
sg12
F1160927.2747
sg13
Nsba(iGraphics.simplified_new
Scores
p164
(dp165
g10
I45
sg11
F0.5371451808752601
sg12
F1227962.9396
sg13
Nsba(iGraphics.simplified_new
Scores
p166
(dp167
g10
I29
sg11
F0.5789258052477955
sg12
F1196112.5537
sg13
Nsba(iGraphics.simplified_new
Scores
p168
(dp169
g10
I30
sg11
F0.5476515172161218
sg12
F1244410.4034
sg13
Nsba(iGraphics.simplified_new
Scores
p170
(dp171
g10
I44
sg11
F0.5248448171832414
sg12
F1225040.864
sg13
Nsba(iGraphics.simplified_new
Scores
p172
(dp173
g10
I39
sg11
F0.602587395316113
sg12
F1219614.1865
sg13
Nsba(iGraphics.simplified_new
Scores
p174
(dp175
g10
I28
sg11
F0.518826367959786
sg12
F1221919.2012
sg13
Nsba(iGraphics.simplified_new
Scores
p176
(dp177
g10
I26
sg11
F0.412344917130603
sg12
F1173285.2757
sg13
Nsba(iGraphics.simplified_new
Scores
p178
(dp179
g10
I30
sg11
F0.671392233620598
sg12
F1235203.053
sg13
Nsba(iGraphics.simplified_new
Scores
p180
(dp181
g10
I39
sg11
F0.6163142281390449
sg12
F1244951.0118
sg13
Nsba(iGraphics.simplified_new
Scores
p182
(dp183
g10
I30
sg11
F0.5367227436787759
sg12
F1235429.3692
sg13
Nsba(iGraphics.simplified_new
Scores
p184
(dp185
g10
I36
sg11
F0.5378471066251342
sg12
F1214532.6553
sg13
Nsba(iGraphics.simplified_new
Scores
p186
(dp187
g10
I33
sg11
F0.5713319745571168
sg12
F1236571.9948
sg13
Nsbasg52
S'SWAY5'
p188
sbsS'SWAY5_10000'
p189
(iGraphics.simplified_new
SolutionHolder
p190
(dp191
g4
g5
sg6
(lp192
(iGraphics.simplified_new
Scores
p193
(dp194
g10
I78
sg11
F0.5090300508697453
sg12
F1230267.1101
sg13
Nsba(iGraphics.simplified_new
Scores
p195
(dp196
g10
I73
sg11
F0.5346390949638102
sg12
F1243035.5605
sg13
Nsba(iGraphics.simplified_new
Scores
p197
(dp198
g10
I38
sg11
F0.5359314072307686
sg12
F1242023.3076
sg13
Nsba(iGraphics.simplified_new
Scores
p199
(dp200
g10
I78
sg11
F0.5290394509590901
sg12
F1243871.5611
sg13
Nsba(iGraphics.simplified_new
Scores
p201
(dp202
g10
I58
sg11
F0.5520176726547547
sg12
F1206924.8381
sg13
Nsba(iGraphics.simplified_new
Scores
p203
(dp204
g10
I88
sg11
F0.5280821597589774
sg12
F1159129.7605
sg13
Nsba(iGraphics.simplified_new
Scores
p205
(dp206
g10
I78
sg11
F0.4876100700279518
sg12
F1225069.127
sg13
Nsba(iGraphics.simplified_new
Scores
p207
(dp208
g10
I58
sg11
F0.4944898844577584
sg12
F1228830.8105
sg13
Nsba(iGraphics.simplified_new
Scores
p209
(dp210
g10
I78
sg11
F0.5353449636144971
sg12
F1245205.3682
sg13
Nsba(iGraphics.simplified_new
Scores
p211
(dp212
g10
I36
sg11
F0.5419081318900634
sg12
F1230450.002
sg13
Nsba(iGraphics.simplified_new
Scores
p213
(dp214
g10
I28
sg11
F0.5543225499146854
sg12
F1138859.291
sg13
Nsba(iGraphics.simplified_new
Scores
p215
(dp216
g10
I27
sg11
F0.5287380914090771
sg12
F1241263.7814
sg13
Nsba(iGraphics.simplified_new
Scores
p217
(dp218
g10
I88
sg11
F0.4191444583521311
sg12
F1243100.6162
sg13
Nsba(iGraphics.simplified_new
Scores
p219
(dp220
g10
I52
sg11
F0.4467897244841477
sg12
F1194970.445
sg13
Nsba(iGraphics.simplified_new
Scores
p221
(dp222
g10
I99
sg11
F0.5372306813617019
sg12
F1231696.0789
sg13
Nsba(iGraphics.simplified_new
Scores
p223
(dp224
g10
I93
sg11
F0.4353950371922105
sg12
F1223707.4797
sg13
Nsba(iGraphics.simplified_new
Scores
p225
(dp226
g10
I73
sg11
F0.4647431656167072
sg12
F1214812.7126
sg13
Nsba(iGraphics.simplified_new
Scores
p227
(dp228
g10
I58
sg11
F0.5558795488455255
sg12
F1189044.7169
sg13
Nsba(iGraphics.simplified_new
Scores
p229
(dp230
g10
I78
sg11
F0.4501088009424713
sg12
F1299709.5456
sg13
Nsba(iGraphics.simplified_new
Scores
p231
(dp232
g10
I66
sg11
F0.5336149335733674
sg12
F1228698.6237
sg13
Nsbasg52
S'SWAY5'
p233
sbsS'NSGAII_100'
p234
(iGraphics.simplified_new
SolutionHolder
p235
(dp236
g4
g5
sg6
(lp237
(iGraphics.simplified_new
Scores
p238
(dp239
g10
I100
sg11
F1.0045827332918322
sg12
F1314175.0002
sg13
Nsba(iGraphics.simplified_new
Scores
p240
(dp241
g10
I100
sg11
F0.7297335049919254
sg12
F1297152.6719
sg13
Nsba(iGraphics.simplified_new
Scores
p242
(dp243
g10
I100
sg11
F0.783020939911003
sg12
F1325216.4003
sg13
Nsba(iGraphics.simplified_new
Scores
p244
(dp245
g10
I100
sg11
F0.7544048577433322
sg12
F1306928.9782
sg13
Nsba(iGraphics.simplified_new
Scores
p246
(dp247
g10
I100
sg11
F0.8883933298805922
sg12
F1326768.1923
sg13
Nsba(iGraphics.simplified_new
Scores
p248
(dp249
g10
I100
sg11
F0.6989713111757121
sg12
F1301120.0075
sg13
Nsba(iGraphics.simplified_new
Scores
p250
(dp251
g10
I100
sg11
F0.7566749415167403
sg12
F1296777.4614
sg13
Nsba(iGraphics.simplified_new
Scores
p252
(dp253
g10
I100
sg11
F0.7319277221648129
sg12
F1309748.1971
sg13
Nsba(iGraphics.simplified_new
Scores
p254
(dp255
g10
I100
sg11
F0.873885019621781
sg12
F1292373.4087
sg13
Nsba(iGraphics.simplified_new
Scores
p256
(dp257
g10
I100
sg11
F0.9578967519735608
sg12
F1319159.3556
sg13
Nsba(iGraphics.simplified_new
Scores
p258
(dp259
g10
I100
sg11
F0.7908545378719971
sg12
F1325211.4821
sg13
Nsba(iGraphics.simplified_new
Scores
p260
(dp261
g10
I100
sg11
F0.7733017193189599
sg12
F1313209.2868
sg13
Nsba(iGraphics.simplified_new
Scores
p262
(dp263
g10
I100
sg11
F0.864129813474256
sg12
F1308433.4555
sg13
Nsba(iGraphics.simplified_new
Scores
p264
(dp265
g10
I100
sg11
F0.7851547744722345
sg12
F1288155.5668
sg13
Nsba(iGraphics.simplified_new
Scores
p266
(dp267
g10
I100
sg11
F0.7976348056848593
sg12
F1305750.1815
sg13
Nsba(iGraphics.simplified_new
Scores
p268
(dp269
g10
I100
sg11
F0.7372673783449571
sg12
F1312815.2026
sg13
Nsba(iGraphics.simplified_new
Scores
p270
(dp271
g10
I100
sg11
F0.6689326218437961
sg12
F1290545.6538
sg13
Nsba(iGraphics.simplified_new
Scores
p272
(dp273
g10
I100
sg11
F0.798942744456353
sg12
F1308671.8025
sg13
Nsba(iGraphics.simplified_new
Scores
p274
(dp275
g10
I100
sg11
F0.7779774409893423
sg12
F1289688.4269
sg13
Nsba(iGraphics.simplified_new
Scores
p276
(dp277
g10
I100
sg11
F0.8015176045401806
sg12
F1309740.1119
sg13
Nsbasg52
S'NSGAII'
p278
sbs.