(dp0
S'SWAY5_2500'
p1
(iGraphics.simplified_new
SolutionHolder
p2
(dp3
S'problem'
p4
S'POM3A'
p5
sS'repeats'
p6
(lp7
(iGraphics.simplified_new
Scores
p8
(dp9
S'pfs'
p10
I44
sS'spread'
p11
F0.42935787189725166
sS'hv'
p12
F1234432.6825
sS'igd'
p13
Nsba(iGraphics.simplified_new
Scores
p14
(dp15
g10
I27
sg11
F0.6105618726791441
sg12
F1240063.6029
sg13
Nsba(iGraphics.simplified_new
Scores
p16
(dp17
g10
I39
sg11
F0.32461193591810894
sg12
F1140514.1573
sg13
Nsba(iGraphics.simplified_new
Scores
p18
(dp19
g10
I29
sg11
F0.338669555251437
sg12
F1266281.4835
sg13
Nsba(iGraphics.simplified_new
Scores
p20
(dp21
g10
I27
sg11
F0.37112257487996875
sg12
F1216394.1091
sg13
Nsba(iGraphics.simplified_new
Scores
p22
(dp23
g10
I36
sg11
F0.4777233361492172
sg12
F1193033.0473
sg13
Nsba(iGraphics.simplified_new
Scores
p24
(dp25
g10
I29
sg11
F0.4984471194260843
sg12
F1242575.8879
sg13
Nsba(iGraphics.simplified_new
Scores
p26
(dp27
g10
I29
sg11
F0.37412861671800235
sg12
F1162192.4758
sg13
Nsba(iGraphics.simplified_new
Scores
p28
(dp29
g10
I39
sg11
F0.3768784439220256
sg12
F1240396.1041
sg13
Nsba(iGraphics.simplified_new
Scores
p30
(dp31
g10
I19
sg11
F0.48281018608651527
sg12
F923305.4535
sg13
Nsba(iGraphics.simplified_new
Scores
p32
(dp33
g10
I39
sg11
F0.5178287396806073
sg12
F1282110.3081
sg13
Nsba(iGraphics.simplified_new
Scores
p34
(dp35
g10
I30
sg11
F0.3820728440549367
sg12
F1137659.3238
sg13
Nsba(iGraphics.simplified_new
Scores
p36
(dp37
g10
I33
sg11
F0.433149391992624
sg12
F1231622.0194
sg13
Nsba(iGraphics.simplified_new
Scores
p38
(dp39
g10
I29
sg11
F0.42555832333341237
sg12
F1221876.3261
sg13
Nsba(iGraphics.simplified_new
Scores
p40
(dp41
g10
I39
sg11
F0.36455438145808217
sg12
F1181839.6671
sg13
Nsba(iGraphics.simplified_new
Scores
p42
(dp43
g10
I39
sg11
F0.4285631497588009
sg12
F1226826.9788
sg13
Nsba(iGraphics.simplified_new
Scores
p44
(dp45
g10
I48
sg11
F0.441329671714181
sg12
F939633.4904
sg13
Nsba(iGraphics.simplified_new
Scores
p46
(dp47
g10
I32
sg11
F0.33103075723818387
sg12
F1245746.7078
sg13
Nsba(iGraphics.simplified_new
Scores
p48
(dp49
g10
I34
sg11
F0.46948398712433037
sg12
F996671.654
sg13
Nsba(iGraphics.simplified_new
Scores
p50
(dp51
g10
I36
sg11
F0.5317068125310483
sg12
F1260651.5111
sg13
NsbasS'algorithm'
p52
S'SWAY5'
p53
sbsS'SWAY5_10000'
p54
(iGraphics.simplified_new
SolutionHolder
p55
(dp56
g4
g5
sg6
(lp57
(iGraphics.simplified_new
Scores
p58
(dp59
g10
I36
sg11
F0.41625855746427964
sg12
F1275148.2255
sg13
Nsba(iGraphics.simplified_new
Scores
p60
(dp61
g10
I68
sg11
F0.4647956233784543
sg12
F800393.1021
sg13
Nsba(iGraphics.simplified_new
Scores
p62
(dp63
g10
I39
sg11
F0.45490620691855427
sg12
F1170442.5578
sg13
Nsba(iGraphics.simplified_new
Scores
p64
(dp65
g10
I39
sg11
F0.47801587270462575
sg12
F1024807.1305
sg13
Nsba(iGraphics.simplified_new
Scores
p66
(dp67
g10
I75
sg11
F0.4520382444203183
sg12
F1260880.6641
sg13
Nsba(iGraphics.simplified_new
Scores
p68
(dp69
g10
I55
sg11
F0.43399867933596975
sg12
F1260184.8988
sg13
Nsba(iGraphics.simplified_new
Scores
p70
(dp71
g10
I68
sg11
F0.35483863422204376
sg12
F1281980.8429
sg13
Nsba(iGraphics.simplified_new
Scores
p72
(dp73
g10
I59
sg11
F0.38282807631519067
sg12
F1187045.5988
sg13
Nsba(iGraphics.simplified_new
Scores
p74
(dp75
g10
I48
sg11
F0.5106101269960615
sg12
F1238813.1986
sg13
Nsba(iGraphics.simplified_new
Scores
p76
(dp77
g10
I76
sg11
F0.4680876450151726
sg12
F1294735.7265
sg13
Nsba(iGraphics.simplified_new
Scores
p78
(dp79
g10
I78
sg11
F0.4060052304264658
sg12
F1264562.2187
sg13
Nsba(iGraphics.simplified_new
Scores
p80
(dp81
g10
I27
sg11
F0.3845669751348252
sg12
F1049749.3262
sg13
Nsba(iGraphics.simplified_new
Scores
p82
(dp83
g10
I69
sg11
F0.4205561691109965
sg12
F1162557.4374
sg13
Nsba(iGraphics.simplified_new
Scores
p84
(dp85
g10
I66
sg11
F0.4600460910359503
sg12
F1258145.4543
sg13
Nsba(iGraphics.simplified_new
Scores
p86
(dp87
g10
I64
sg11
F0.4640510483262145
sg12
F1283522.0194
sg13
Nsba(iGraphics.simplified_new
Scores
p88
(dp89
g10
I25
sg11
F0.5333205433958548
sg12
F1182724.9534
sg13
Nsba(iGraphics.simplified_new
Scores
p90
(dp91
g10
I29
sg11
F0.40108153730855034
sg12
F1267383.6188
sg13
Nsba(iGraphics.simplified_new
Scores
p92
(dp93
g10
I96
sg11
F0.43682561216073773
sg12
F1245209.9
sg13
Nsba(iGraphics.simplified_new
Scores
p94
(dp95
g10
I78
sg11
F0.3151595792069276
sg12
F1297744.628
sg13
Nsba(iGraphics.simplified_new
Scores
p96
(dp97
g10
I66
sg11
F0.40667028888339
sg12
F1255831.0438
sg13
Nsbasg52
S'SWAY5'
p98
sbsS'SWAY5_1225'
p99
(iGraphics.simplified_new
SolutionHolder
p100
(dp101
g4
g5
sg6
(lp102
(iGraphics.simplified_new
Scores
p103
(dp104
g10
I33
sg11
F0.451787830003901
sg12
F1272136.5767
sg13
Nsba(iGraphics.simplified_new
Scores
p105
(dp106
g10
I19
sg11
F0.5157307085557199
sg12
F1019750.0344
sg13
Nsba(iGraphics.simplified_new
Scores
p107
(dp108
g10
I34
sg11
F0.47578910664750657
sg12
F1128158.5289
sg13
Nsba(iGraphics.simplified_new
Scores
p109
(dp110
g10
I33
sg11
F0.38226447751145676
sg12
F1187475.6677
sg13
Nsba(iGraphics.simplified_new
Scores
p111
(dp112
g10
I25
sg11
F0.3789950154527565
sg12
F1148973.6765
sg13
Nsba(iGraphics.simplified_new
Scores
p113
(dp114
g10
I22
sg11
F0.4375866422190539
sg12
F943892.6822
sg13
Nsba(iGraphics.simplified_new
Scores
p115
(dp116
g10
I29
sg11
F0.4569980741945696
sg12
F1234202.1099
sg13
Nsba(iGraphics.simplified_new
Scores
p117
(dp118
g10
I22
sg11
F0.5675306745746181
sg12
F1191833.882
sg13
Nsba(iGraphics.simplified_new
Scores
p119
(dp120
g10
I30
sg11
F0.356347714148403
sg12
F1204961.5754
sg13
Nsba(iGraphics.simplified_new
Scores
p121
(dp122
g10
I34
sg11
F0.518069026720355
sg12
F1228566.3354
sg13
Nsba(iGraphics.simplified_new
Scores
p123
(dp124
g10
I19
sg11
F0.5212436064753649
sg12
F1224145.586
sg13
Nsba(iGraphics.simplified_new
Scores
p125
(dp126
g10
I19
sg11
F0.40969596559961907
sg12
F1299113.3921
sg13
Nsba(iGraphics.simplified_new
Scores
p127
(dp128
g10
I19
sg11
F0.4291923997343561
sg12
F1085834.8316
sg13
Nsba(iGraphics.simplified_new
Scores
p129
(dp130
g10
I29
sg11
F0.520249926269567
sg12
F921674.9995
sg13
Nsba(iGraphics.simplified_new
Scores
p131
(dp132
g10
I29
sg11
F0.4580586231279739
sg12
F1177262.4691
sg13
Nsba(iGraphics.simplified_new
Scores
p133
(dp134
g10
I28
sg11
F0.4994763257806726
sg12
F1053715.351
sg13
Nsba(iGraphics.simplified_new
Scores
p135
(dp136
g10
I29
sg11
F0.4434766902422242
sg12
F1197389.6277
sg13
Nsba(iGraphics.simplified_new
Scores
p137
(dp138
g10
I19
sg11
F0.5593688236115534
sg12
F896254.9999
sg13
Nsba(iGraphics.simplified_new
Scores
p139
(dp140
g10
I25
sg11
F0.35223757690755486
sg12
F1179431.9617
sg13
Nsba(iGraphics.simplified_new
Scores
p141
(dp142
g10
I19
sg11
F0.3174026224173216
sg12
F1009900.5402
sg13
Nsbasg52
S'SWAY5'
p143
sbsS'SWAY5_5000'
p144
(iGraphics.simplified_new
SolutionHolder
p145
(dp146
g4
g5
sg6
(lp147
(iGraphics.simplified_new
Scores
p148
(dp149
g10
I68
sg11
F0.4368326057425858
sg12
F1233504.5052
sg13
Nsba(iGraphics.simplified_new
Scores
p150
(dp151
g10
I18
sg11
F0.5331009095887055
sg12
F962654.3211
sg13
Nsba(iGraphics.simplified_new
Scores
p152
(dp153
g10
I68
sg11
F0.4242562286771623
sg12
F1196826.2535
sg13
Nsba(iGraphics.simplified_new
Scores
p154
(dp155
g10
I18
sg11
F0.4657135659461148
sg12
F991082.2916
sg13
Nsba(iGraphics.simplified_new
Scores
p156
(dp157
g10
I59
sg11
F0.3863000495591888
sg12
F1258298.448
sg13
Nsba(iGraphics.simplified_new
Scores
p158
(dp159
g10
I19
sg11
F0.5103855779255169
sg12
F1228733.8137
sg13
Nsba(iGraphics.simplified_new
Scores
p160
(dp161
g10
I58
sg11
F0.42790948761942593
sg12
F1260036.9771
sg13
Nsba(iGraphics.simplified_new
Scores
p162
(dp163
g10
I61
sg11
F0.41158197967078414
sg12
F1264515.4667
sg13
Nsba(iGraphics.simplified_new
Scores
p164
(dp165
g10
I68
sg11
F0.4158327752196077
sg12
F1227145.4695
sg13
Nsba(iGraphics.simplified_new
Scores
p166
(dp167
g10
I68
sg11
F0.38856197858401
sg12
F1238203.2545
sg13
Nsba(iGraphics.simplified_new
Scores
p168
(dp169
g10
I64
sg11
F0.38121355998857975
sg12
F1249243.8533
sg13
Nsba(iGraphics.simplified_new
Scores
p170
(dp171
g10
I59
sg11
F0.3969309834338799
sg12
F1257344.6453
sg13
Nsba(iGraphics.simplified_new
Scores
p172
(dp173
g10
I55
sg11
F0.35554164543035593
sg12
F1218649.8902
sg13
Nsba(iGraphics.simplified_new
Scores
p174
(dp175
g10
I68
sg11
F0.42858333299070367
sg12
F1084641.7426
sg13
Nsba(iGraphics.simplified_new
Scores
p176
(dp177
g10
I18
sg11
F0.3758883655317791
sg12
F1107206.6833
sg13
Nsba(iGraphics.simplified_new
Scores
p178
(dp179
g10
I36
sg11
F0.4212926592629215
sg12
F1163822.44
sg13
Nsba(iGraphics.simplified_new
Scores
p180
(dp181
g10
I39
sg11
F0.36432845118632295
sg12
F1156071.6262
sg13
Nsba(iGraphics.simplified_new
Scores
p182
(dp183
g10
I66
sg11
F0.36722372059400316
sg12
F1172438.6049
sg13
Nsba(iGraphics.simplified_new
Scores
p184
(dp185
g10
I48
sg11
F0.4339879246976302
sg12
F1195022.5858
sg13
Nsba(iGraphics.simplified_new
Scores
p186
(dp187
g10
I44
sg11
F0.4349323178137869
sg12
F1156972.7261
sg13
Nsbasg52
S'SWAY5'
p188
sbs.