(dp0
S'POM3B'
p1
(dp2
S'Spread'
p3
(lp4
(lp5
S'SPEA2_100'
p6
aF0.6894071045525162
aF0.6290447765210607
aF0.6166566572876075
aF0.7752571105607464
aF0.6532070987265665
aF0.6199824408826193
aF0.7117981157939522
aF0.6170240595089709
aF0.7542177749123552
aF0.6553811448982266
aF0.6324974500014228
aF0.6744748898812161
aF0.7678341579309741
aF0.686201797227006
aF0.6957399848607195
aF0.7807680432328495
aF0.64950000686616
aF0.5484816510784389
aF0.6227316621161593
aF0.6229575543706714
aa(lp7
S'SPEA2SC-1225_100'
p8
aF0.6472688758297614
aF0.6936363111660121
aF0.5730961283722282
aF0.6437119861820474
aF0.5582449303148966
aF0.61543845799929
aF0.6156001542086353
aF0.6240654176605198
aF0.6109648111094768
aF0.6409143195927077
aF0.6649564646546436
aF0.6977871271074134
aF0.7198286733891283
aF0.6618814625004485
aF0.6674348974543386
aF0.6434663964402992
aF0.6947293709837867
aF0.654806474487865
aF0.679294162255442
aF0.6988648203560621
aa(lp9
S'SWAY5_1225'
p10
aF0.413670736201129
aF0.5289187934269244
aF0.4580417729553086
aF0.4152267963072858
aF0.6191832566798671
aF0.5047740072278616
aF0.35690210487576624
aF0.497587110059947
aF0.48135417396310215
aF0.5974809644128536
aF0.4530812721644167
aF0.4776078173250595
aF0.5295847772722966
aF0.35246911317080104
aF0.6027946861261223
aF0.4623982599294981
aF0.5102129539517423
aF0.6466796188906189
aF0.42987738280086885
aF0.5718423794180323
aa(lp11
S'SWAY5_5000'
p12
aF0.46376375771338885
aF0.49409121384918997
aF0.4619237632875968
aF0.42728518284617434
aF0.4008694984052499
aF0.41134386319361593
aF0.5861521704314628
aF0.39489623289482373
aF0.44170071042215664
aF0.39080045543759767
aF0.41295648010067604
aF0.4422166872327222
aF0.5562887684351486
aF0.5495678628621051
aF0.4680291156981666
aF0.5129691649017712
aF0.41800179697945733
aF0.5154944456298506
aF0.3878093616440231
aF0.4498642213151996
aa(lp13
S'NSGAIISC-5000_100'
p14
aF0.7778305375076836
aF0.7312507368812619
aF0.6667162153011613
aF0.6885061108345053
aF0.6764154033484795
aF0.704802016225161
aF0.5708829338288836
aF0.6227921735386986
aF0.7140109056579432
aF0.735541757307279
aF0.611953458495447
aF0.7364808110850406
aF0.6349511917610647
aF0.7189680245653416
aF0.6179185067104694
aF0.7523494377972569
aF0.6461209655235164
aF0.6513465441342706
aF0.6055820658152774
aF0.6408483558947055
aa(lp15
S'SWAY5_2500'
p16
aF0.3900776998091797
aF0.40167955179855996
aF0.48062160752304056
aF0.4264222423597118
aF0.4176447416510166
aF0.5225625246211929
aF0.4768747618333392
aF0.5362846973887335
aF0.46373029659709547
aF0.6093264566274983
aF0.4631793023980893
aF0.5161442762493398
aF0.4459092151008506
aF0.5131663011918397
aF0.526261034589293
aF0.5074577874037227
aF0.4162046653428519
aF0.57530959300669
aF0.5886834749029127
aF0.5091854428464819
aa(lp17
S'NSGAIISC-1225_100'
p18
aF0.5939980702874744
aF0.6550279265840753
aF0.5875773536979084
aF0.5991213335138694
aF0.6910490779950829
aF0.7346454408551489
aF0.5747108227439623
aF0.7039259111035359
aF0.7420223479787841
aF0.65197002835005
aF0.6372931189655149
aF0.7460654670124044
aF0.7456651957820726
aF0.6401215999329162
aF0.5972005272481172
aF0.6182254750836343
aF0.7881672327101843
aF0.7413475807649663
aF0.5916302386615165
aF0.7639228271001298
aa(lp19
S'SPEA2SC-5000_100'
p20
aF0.6801062290316751
aF0.6841225384942949
aF0.665432837538626
aF0.6610563167277365
aF0.5527886049894967
aF0.7098646105027843
aF0.7090673866368511
aF0.6378918302007043
aF0.7089535926394088
aF0.6066663150490335
aF0.6584617803740854
aF0.6416603902995528
aF0.7026421712033136
aF0.6417189157953862
aF0.5549334116912853
aF0.6753749807045273
aF0.5922835230552298
aF0.5735066343706541
aF0.6690703498761217
aF0.7262248795970885
aa(lp21
S'SWAY5_10000'
p22
aF0.4288334521360691
aF0.47951354707014293
aF0.4096917538369766
aF0.43826243672403886
aF0.4967773642351317
aF0.4023088942997216
aF0.37066182215885973
aF0.4506062511559304
aF0.470566294638448
aF0.5048094647266911
aF0.4086639585461585
aF0.43215641366564267
aF0.4369547155948466
aF0.5880840097393117
aF0.4045729961486258
aF0.4715054763304043
aF0.4073728185376319
aF0.48269016801936626
aF0.4617539762230857
aF0.4637898482179526
aa(lp23
S'NSGAIISC-10000_100'
p24
aF0.7151050523692052
aF0.7128577373178746
aF0.6791910143861685
aF0.718337172767139
aF0.675557764166998
aF0.7637857644346109
aF0.8339790819718722
aF0.7011322342460982
aF0.7197880601195689
aF0.6872484158330959
aF0.7647820461065141
aF0.6517325073350511
aF0.7324254355822077
aF0.6806700891942533
aF0.591288981247946
aF0.7809241737191541
aF0.635648084974346
aF0.604887865158981
aF0.6400084259697942
aF0.6186266504051061
aa(lp25
S'NSGAII_100'
p26
aF0.6830402748961715
aF0.6220858209014706
aF0.6908387487217095
aF0.6811643444762415
aF0.7188035110544874
aF0.5335120914118653
aF0.6866866156496759
aF0.6330370925159615
aF0.6508405495050147
aF0.7037808212740283
aF0.5565754256964878
aF0.7419733452173721
aF0.6260753525693823
aF0.755121411783383
aF0.6270209739206368
aF0.7149381079055409
aF0.565974555647945
aF0.6400357744006963
aF0.6790806723203366
aF0.6388987216616495
aa(lp27
S'SPEA2SC-2500_100'
p28
aF0.6760289252025872
aF0.6069475495638404
aF0.6843175003017763
aF0.6319397143070234
aF0.6564166718409404
aF0.6602670544260948
aF0.7147525263365855
aF0.5621128740247594
aF0.6207948566940279
aF0.6115858078198151
aF0.6546980731996821
aF0.6235485476375312
aF0.6951860025905245
aF0.7093150079516104
aF0.5967545107636301
aF0.6812633880378065
aF0.6997651903932695
aF0.7530460839325888
aF0.7398432401013364
aF0.7572817407129603
aa(lp29
S'SPEA2SC-10000_100'
p30
aF0.6798078043664755
aF0.7092519327162576
aF0.642346312457907
aF0.6730152328537365
aF0.6640172922744042
aF0.5420635933910625
aF0.5850958311267176
aF0.6160289143859514
aF0.6134813100811127
aF0.7413231052802782
aF0.7227472877583265
aF0.652954199995129
aF0.6126844946583222
aF0.6393615969826276
aF0.6520823362400048
aF0.6732164777929583
aF0.6315678317501489
aF0.5830973713236745
aF0.6244459808129662
aF0.6623888504330764
aa(lp31
S'NSGAIISC-2500_100'
p32
aF0.648680178882308
aF0.7560095192399734
aF0.5893232146152836
aF0.6386855986557627
aF0.7389529663288658
aF0.704100004636513
aF0.684357488976516
aF0.6602796265989903
aF0.569732593029492
aF0.7324252281114288
aF0.7349328885414449
aF0.729829878033192
aF0.7087345453594196
aF0.7241367106746485
aF0.6757646821618115
aF0.7489302676635153
aF0.6224700791321223
aF0.7201814338392302
aF0.5711706227632876
aF0.596381106165668
aasS'HV'
p33
(lp34
(lp35
S'SPEA2_100'
p36
aF1315103.5639
aF1311861.9266
aF1306581.9236
aF1316411.8646
aF1315555.4408
aF1318268.2168
aF1308527.5787
aF1306577.6173
aF1318574.9067
aF1305853.5507
aF1310133.8816
aF1319030.071
aF1326743.7039
aF1312354.0885
aF1309306.238
aF1313031.9331
aF1308593.3046
aF1304481.6452
aF1317378.9631
aF1307974.5784
aa(lp37
S'SPEA2SC-1225_100'
p38
aF1313440.0026
aF1320675.2829
aF1313218.6387
aF1320522.1503
aF1303529.3079
aF1312182.506
aF1308873.4829
aF1318845.5244
aF1319076.5172
aF1303391.5516
aF1329801.0085
aF1328418.6029
aF1321610.5441
aF1314120.8333
aF1313939.6569
aF1309492.8165
aF1312469.1836
aF1308236.2215
aF1312250.4872
aF1303704.2074
aa(lp39
S'SWAY5_1225'
p40
aF1135712.1334
aF831330.7006
aF1279356.7575
aF1176500.0123
aF1244460.1137
aF1122988.1973
aF1101810.4241
aF1030365.1183
aF1007076.9165
aF1094536.0673
aF997024.9615
aF1182310.1968
aF1224087.3828
aF1159033.959
aF1122256.0605
aF899385.6781
aF1189833.0776
aF1185029.6734
aF1215102.5715
aF1200262.3311
aa(lp41
S'SWAY5_5000'
p42
aF1070721.5064
aF1173259.6895
aF1224189.4071
aF1235434.4203
aF1262271.2147
aF1104452.2736
aF1162696.083
aF1196546.3991
aF1249159.5496
aF1200762.8294
aF1260284.0836
aF1230169.3224
aF1256626.6161
aF1159796.5653
aF1268071.5485
aF1110070.7059
aF1256570.3935
aF1020136.4833
aF1254514.6503
aF1259640.7259
aa(lp43
S'NSGAIISC-5000_100'
p44
aF1308503.3896
aF1314748.0598
aF1306073.8451
aF1326735.6959
aF1327130.7755
aF1303789.2588
aF1315188.5131
aF1321994.1028
aF1327955.8919
aF1317971.4367
aF1311253.6157
aF1306655.9098
aF1312731.7916
aF1314575.3501
aF1315004.8495
aF1322613.8207
aF1305979.5284
aF1310249.3313
aF1309602.2056
aF1315830.451
aa(lp45
S'SWAY5_2500'
p46
aF1216334.9175
aF1191120.5747
aF1204787.8039
aF1243522.6393
aF1147463.2802
aF1264063.4375
aF1125800.7811
aF1233575.9541
aF1257846.9914
aF1149731.2417
aF1185358.8038
aF1219665.7294
aF1031208.6585
aF1220783.9763
aF984482.076
aF1089077.7002
aF1214422.3762
aF1235280.4255
aF1148651.6603
aF1169536.2828
aa(lp47
S'NSGAIISC-1225_100'
p48
aF1310466.7514
aF1320829.8649
aF1308425.725
aF1311826.2639
aF1307368.4421
aF1317459.8711
aF1302958.5801
aF1316637.8507
aF1319923.5316
aF1308339.4495
aF1315395.7151
aF1314143.2971
aF1312852.574
aF1316010.4083
aF1311267.8279
aF1304913.4342
aF1314055.7471
aF1329845.4402
aF1310229.7485
aF1317534.5147
aa(lp49
S'SPEA2SC-5000_100'
p50
aF1310443.8835
aF1312759.3363
aF1307623.1545
aF1319790.5795
aF1314058.7619
aF1303799.5134
aF1307388.0211
aF1322102.4805
aF1322673.0976
aF1315207.1574
aF1312135.3822
aF1304364.4242
aF1310887.9792
aF1310073.69
aF1310667.975
aF1318982.7673
aF1310530.811
aF1309277.5767
aF1304617.3553
aF1318712.1106
aa(lp51
S'SWAY5_10000'
p52
aF1242595.7408
aF1243476.514
aF1289112.9893
aF1041835.882
aF1277273.144
aF1194655.1406
aF1228679.3233
aF1270592.2862
aF1119728.9787
aF1220374.2312
aF1205581.9389
aF1198006.947
aF1273535.4067
aF1035024.6863
aF1163441.0547
aF1251678.8702
aF1150205.6427
aF1173531.3531
aF1147614.7459
aF1098388.5223
aa(lp53
S'NSGAIISC-10000_100'
p54
aF1309667.5343
aF1305054.288
aF1305414.0959
aF1313390.2082
aF1310840.0576
aF1316162.8737
aF1303007.3799
aF1313623.5325
aF1322733.178
aF1311566.6831
aF1315900.5824
aF1327019.9474
aF1304248.1282
aF1317182.5256
aF1310396.6083
aF1321578.5686
aF1311228.7559
aF1321794.4593
aF1326283.0579
aF1310845.5412
aa(lp55
S'NSGAII_100'
p56
aF1320649.2169
aF1312766.0912
aF1328097.1676
aF1316061.6542
aF1308661.152
aF1305820.7142
aF1304380.0235
aF1315092.953
aF1319546.3457
aF1310375.4056
aF1313082.5731
aF1313050.1774
aF1312010.6938
aF1311244.5424
aF1309377.1899
aF1314652.1055
aF1309466.2388
aF1310535.905
aF1308287.8068
aF1316414.5806
aa(lp57
S'SPEA2SC-2500_100'
p58
aF1318149.3081
aF1311283.2787
aF1313124.9508
aF1314199.6221
aF1309966.3474
aF1310580.3105
aF1311023.176
aF1314035.9733
aF1320728.2397
aF1309502.6169
aF1329956.5354
aF1316106.8975
aF1308924.4372
aF1323442.8722
aF1312087.3985
aF1308402.4317
aF1315752.6201
aF1318755.4652
aF1315451.1311
aF1316414.3168
aa(lp59
S'SPEA2SC-10000_100'
p60
aF1304074.3376
aF1303940.5604
aF1312625.1895
aF1314421.6462
aF1322228.8151
aF1311240.5139
aF1303725.469
aF1324231.7382
aF1329685.6424
aF1307064.9028
aF1313413.0258
aF1306566.6265
aF1310520.9492
aF1321408.695
aF1310107.107
aF1310341.6577
aF1311884.1829
aF1314312.5133
aF1324271.6224
aF1303128.8954
aa(lp61
S'NSGAIISC-2500_100'
p62
aF1310480.897
aF1315835.1395
aF1323643.3567
aF1306194.6893
aF1317161.4082
aF1326512.03
aF1310598.9102
aF1308776.2919
aF1324641.0545
aF1313127.8564
aF1314882.2988
aF1324316.3508
aF1309044.1165
aF1307646.4117
aF1309554.1524
aF1311782.3094
aF1314878.7715
aF1309915.2203
aF1318680.5654
aF1322657.2675
aass.