(dp0
S'POM3D(S)'
p1
(dp2
S'Spread'
p3
(lp4
(lp5
S'NSGAII_100'
p6
aF0.8724617768596189
aF0.74042802881445
aF0.8014533951110893
aF0.8289589771987854
aF0.714759897580818
aF0.8142472485862328
aF0.7795954928132495
aF0.8567604955782138
aF0.6748699980369698
aF0.7919397901677826
aF0.8071158454780446
aF0.7686655461113511
aF0.7337922583813045
aF0.7859115673299091
aF0.8087201875854425
aF0.8449075274800897
aF0.8666288645096691
aF0.8352692693734038
aF0.766712259308576
aF0.8152782500555522
aF0.7844485218465448
aa(lp7
S'SPEA2_100'
p8
aF0.6501113171690366
aF0.640906189168068
aF0.6359525034026792
aF0.6711606146603701
aF0.677369833801197
aF0.7628041539875128
aF0.702019970192362
aF0.7698772052949304
aF0.7142760408271359
aF0.6531217131986264
aF0.6732229252940569
aF0.6870712285563337
aF0.7552488762210571
aF0.6947377753776903
aF0.7170164017641647
aF0.711620211714671
aF0.7431573946401703
aF0.7948002303557747
aF0.7029071803019894
aF0.7186859395016826
aF0.6836287216356374
aa(lp9
S'SWAY5_10000'
p10
aF0.46603538216790136
aF0.4647398129468074
aF0.5807636197382177
aF0.5445704880956418
aF0.5463070431028526
aF0.5237891416905711
aF0.5456628560372874
aF0.547208401678052
aF0.5303724548284936
aF0.6229838965685818
aF0.5129229291189291
aF0.48416735793590826
aF0.5397600446935372
aF0.5561273377378113
aF0.5173113822069237
aF0.488374495533108
aF0.5666007498086013
aF0.49983247916854245
aF0.5408632564272741
aF0.696454975765099
aF0.42415017841741415
aasS'HV'
p11
(lp12
(lp13
S'NSGAII_100'
p14
aF1275398.3683
aF1294622.631
aF1214571.6731
aF1246452.0428
aF1182672.08
aF1099925.8117
aF1118653.604
aF1111801.9178
aF1266264.1193
aF1108472.2771
aF1098205.6626
aF1185709.8878
aF1252947.775
aF1132092.2595
aF1168423.8554
aF1093389.8488
aF1077194.253
aF1167907.1925
aF1158983.4915
aF1125990.5848
aF1181670.197
aa(lp15
S'SPEA2_100'
p16
aF1310749.2907
aF1206862.4984
aF1227119.3168
aF1123064.2984
aF1123707.7231
aF1118313.3523
aF1137366.9097
aF1132606.3528
aF1264082.9732
aF1112307.8881
aF1226452.3092
aF1168329.9463
aF1100297.3312
aF1095315.9354
aF1120089.5698
aF1224172.8661
aF1186668.336
aF1146778.5716
aF1102145.1998
aF1245388.802
aF1156339.884
aa(lp17
S'SWAY5_10000'
p18
aF1089099.0412
aF876135.4063
aF903747.5002
aF948422.7604
aF1138382.4966
aF901240.3446
aF987155.4876
aF989487.9099
aF995853.9648
aF1009317.3523
aF1162058.7282
aF1055038.0248
aF977340.9086
aF933837.0294
aF878605.2008
aF1016059.8805
aF942095.5972
aF981748.0142
aF949036.6638
aF892164.5212
aF907387.3086
aass.