(dp0
S'POM3A'
p1
(dp2
S'Spread'
p3
(lp4
(lp5
S'SPEA2_100'
p6
aF0.5738377055912107
aF0.6589584625277456
aF0.6282576814779299
aF0.6613626058740324
aF0.6804087503292592
aF0.7645152976600585
aF0.7629262468138414
aF0.7193051367096369
aF0.7189851846612499
aF0.6964333393673571
aF0.7757171617183045
aF0.6709856713073991
aF0.6623563323283117
aF0.8047024071209592
aF0.7820817976353627
aF0.6268156885985005
aF0.7496132151905769
aF0.6746480284646148
aF0.6848132179127352
aF0.6413057853780039
aa(lp7
S'SPEA2SC-1225_100'
p8
aF0.6411457708554223
aF0.6167950443338689
aF0.6560641153723709
aF0.7247004142380563
aF0.6024050429473229
aF0.6940598567895835
aF0.6790983304111112
aF0.622802395996735
aF0.6648758701272763
aF0.6834407044285814
aF0.7291802800458029
aF0.7583103310417433
aF0.7302575649153917
aF0.6830969748053225
aF0.6036697424034944
aF0.6637389782680833
aF0.679906148853698
aF0.6585923406286639
aF0.6340947361208482
aF0.7627667630667417
aa(lp9
S'SWAY5_1225'
p10
aF0.5190414051027945
aF0.4107625175852575
aF0.46359580210271123
aF0.44224109853410637
aF0.43854987347496877
aF0.41322487743354536
aF0.4661264030005332
aF0.5287793190293147
aF0.48314107496297626
aF0.388959826618947
aF0.3819105112717193
aF0.34930123229692145
aF0.5257663676529386
aF0.5277259223154238
aF0.5945889320955812
aF0.3847405090318703
aF0.6519211918316834
aF0.5200307896683576
aF0.4845226863510985
aF0.42792200906462186
aa(lp11
S'SWAY5_5000'
p12
aF0.4978040668195418
aF0.5027177822409433
aF0.44033003836250123
aF0.5394920180731331
aF0.4136845838450183
aF0.5749811960637217
aF0.4446866487882402
aF0.4290031602357013
aF0.43006534005805025
aF0.3979650924471237
aF0.39696894370619756
aF0.4135199503289998
aF0.4955736898870763
aF0.46639473158679234
aF0.39208776752829433
aF0.5293851250782503
aF0.5315267805568802
aF0.4975701459797952
aF0.3682516634086914
aF0.420467209707887
aa(lp13
S'NSGAIISC-5000_100'
p14
aF0.6439947301923316
aF0.747494648818936
aF0.674635026428549
aF0.6176139429376306
aF0.72379936636461
aF0.6713832524525868
aF0.6623577703297335
aF0.6578357321229029
aF0.5945963545036947
aF0.6496178833149756
aF0.7374551300782397
aF0.6920764310976906
aF0.7433296339170984
aF0.7292316693537582
aF0.6282460176085132
aF0.5849422157945218
aF0.7743488562657984
aF0.6450607234645519
aF0.5909452585626591
aF0.6669734931885083
aa(lp15
S'SWAY5_2500'
p16
aF0.6090616168127331
aF0.5431885445347728
aF0.3626200151426917
aF0.37749833251898285
aF0.42552092235049777
aF0.5016361048412645
aF0.5401989029115728
aF0.4195673147245627
aF0.4005777399858928
aF0.554262041020882
aF0.5345914828488844
aF0.4291151555216238
aF0.6729973191929305
aF0.40271334501342754
aF0.4946345377553603
aF0.37094576351973163
aF0.42285001443416304
aF0.4469426995107119
aF0.4397133946416747
aF0.5843256414703821
aa(lp17
S'NSGAIISC-1225_100'
p18
aF0.6967543195622175
aF0.7425047264542995
aF0.7211795661762761
aF0.6604739490785686
aF0.7195599953464731
aF0.6573825329030405
aF0.7859351147043526
aF0.6062372171499671
aF0.6982909289646295
aF0.6902056710005625
aF0.6532753846248484
aF0.6904634331710617
aF0.7243298661826585
aF0.6928105021869144
aF0.6565729295563562
aF0.6517674984179911
aF0.7646093330342153
aF0.7161476509278888
aF0.6010193535725316
aF0.730763283344347
aa(lp19
S'SPEA2SC-5000_100'
p20
aF0.6659984015339772
aF0.6983204365842403
aF0.6533487903082893
aF0.768115049793482
aF0.6376451145310253
aF0.6832652346253523
aF0.6241333332593884
aF0.6026965099828526
aF0.7901093368266294
aF0.693904914724664
aF0.6671958152484411
aF0.5928828010141703
aF0.7556515286935138
aF0.6071865520825687
aF0.658659650775293
aF0.6723346031532577
aF0.6394242263595837
aF0.6579530583173796
aF0.5814098719894251
aF0.6543900606160867
aa(lp21
S'SWAY5_10000'
p22
aF0.4165610032833443
aF0.4079438860377302
aF0.48258852352446036
aF0.5064175394729936
aF0.45640060932837595
aF0.45561563284621276
aF0.36002021671459583
aF0.4074332570086255
aF0.5310138893407563
aF0.48027060879850325
aF0.41101067347361336
aF0.4208395100221254
aF0.4041281676496598
aF0.4936742641735951
aF0.47321913410648014
aF0.4190305908951681
aF0.40967772576873757
aF0.3954731900913235
aF0.3918471797740666
aF0.48890828078009874
aa(lp23
S'NSGAIISC-10000_100'
p24
aF0.6556763030095187
aF0.5963847620022485
aF0.7578604165149094
aF0.65814782607135
aF0.8363594088576285
aF0.6855571718250286
aF0.7087327790750697
aF0.6810434066525416
aF0.7435135388061355
aF0.6916577606459418
aF0.6453689856806464
aF0.6881159847693051
aF0.7664196047348967
aF0.658938083857309
aF0.7036554641570242
aF0.7330480732779969
aF0.6923989747286978
aF0.6379656106058774
aF0.7794909946395436
aF0.6392482296375201
aa(lp25
S'NSGAII_100'
p26
aF0.7248697491460624
aF0.5638778071077968
aF0.7106132552500942
aF0.8152008425672931
aF0.6562285949748139
aF0.6163843185765879
aF0.6423619959709198
aF0.6653888391512143
aF0.7439506817007675
aF0.6824785763728574
aF0.7531082138259039
aF0.653368707042163
aF0.6205764168424613
aF0.574895290621506
aF0.6995482909050367
aF0.6791471349092367
aF0.7388207538911432
aF0.8155776631752737
aF0.6302703709664556
aF0.714014728620132
aa(lp27
S'SPEA2SC-2500_100'
p28
aF0.7292582193555599
aF0.5987539988611584
aF0.719437919784306
aF0.6706324933645187
aF0.6904769362778412
aF0.6958825096622879
aF0.6306761365320098
aF0.7287384719511422
aF0.6431841744019707
aF0.6280250782960164
aF0.6054599942336668
aF0.6798759845929332
aF0.6482155419716644
aF0.6956529868314775
aF0.5606382857552421
aF0.5788705246775898
aF0.6184306688625286
aF0.6389711684893871
aF0.5930485035362403
aF0.6373732269754079
aa(lp29
S'SPEA2SC-10000_100'
p30
aF0.7694108725739671
aF0.6001042903724804
aF0.7203609493150098
aF0.6807172743885894
aF0.7841327075808796
aF0.7203401475188556
aF0.7256278739585945
aF0.7655147669820016
aF0.7237541073098951
aF0.7085383545504342
aF0.6472607670991627
aF0.675314057108621
aF0.5951172494343707
aF0.6836595305694513
aF0.7769806843847441
aF0.5960688510856433
aF0.7047575882240499
aF0.5216361006474853
aF0.6209734314412133
aF0.6182437629986934
aa(lp31
S'NSGAIISC-2500_100'
p32
aF0.7118201310985659
aF0.6460538809914947
aF0.8069795083210135
aF0.7683804043060647
aF0.6907799488409467
aF0.626353601059871
aF0.6581783028440893
aF0.604619891044058
aF0.7620083456874523
aF0.6082772717879659
aF0.693221620997867
aF0.639156366522918
aF0.7314553673917183
aF0.6925306867931191
aF0.5950619653361503
aF0.6692982565017458
aF0.6123471658751165
aF0.6839598526648822
aF0.6367560910984121
aF0.7400805198504938
aasS'HV'
p33
(lp34
(lp35
S'SPEA2_100'
p36
aF1316256.0731
aF1321234.7957
aF1316466.8787
aF1317070.6406
aF1314824.2837
aF1314330.9879
aF1321381.1387
aF1320246.9679
aF1311817.3177
aF1319646.1231
aF1317932.5448
aF1314365.5377
aF1310562.7082
aF1318980.1707
aF1315810.9172
aF1317158.876
aF1320012.0284
aF1316053.0871
aF1311997.0025
aF1312882.6896
aa(lp37
S'SPEA2SC-1225_100'
p38
aF1316992.2873
aF1312645.9539
aF1316932.3884
aF1320297.973
aF1328702.0283
aF1321019.2465
aF1318378.5806
aF1316224.4379
aF1314520.6883
aF1317766.7161
aF1312749.8874
aF1314059.4811
aF1317701.4009
aF1316576.5225
aF1311853.0485
aF1323880.9015
aF1316005.8138
aF1313805.9765
aF1323023.7032
aF1318222.3449
aa(lp39
S'SWAY5_1225'
p40
aF1085482.524
aF1151225.6735
aF921384.4579
aF1227374.5953
aF1226706.0642
aF1104691.4257
aF1216533.4121
aF1220632.2719
aF1176985.0592
aF1216242.1696
aF1159621.5019
aF1089567.9642
aF1199784.6549
aF1278525.5848
aF849859.494
aF1164647.263
aF1288291.5652
aF1190940.7663
aF1181599.8195
aF1219862.3655
aa(lp41
S'SWAY5_5000'
p42
aF1132802.5574
aF1014181.2311
aF1196341.1613
aF1030087.0492
aF1240598.6683
aF1221313.5621
aF1242717.4504
aF1254810.7489
aF1218940.3592
aF1231987.3401
aF1239337.5389
aF1244186.0215
aF1268513.3494
aF1251277.9053
aF1249030.934
aF1237548.0167
aF1247166.0418
aF1246340.7219
aF1116792.5593
aF1265445.0865
aa(lp43
S'NSGAIISC-5000_100'
p44
aF1322157.1248
aF1324414.2881
aF1316885.356
aF1315614.7731
aF1312605.49
aF1317270.6145
aF1312391.3328
aF1314865.688
aF1325993.5269
aF1327721.5931
aF1311960.4243
aF1320220.0745
aF1316119.4118
aF1319103.3612
aF1318578.7306
aF1314944.0038
aF1324781.182
aF1322668.6141
aF1321050.1441
aF1315821.0807
aa(lp45
S'SWAY5_2500'
p46
aF1203849.4137
aF1221672.807
aF1155577.5467
aF1248429.5032
aF1216234.6355
aF1196963.6168
aF1233795.085
aF1163944.006
aF1230215.8044
aF1028951.5155
aF1264050.7246
aF1152294.81
aF1226517.3154
aF1146040.4959
aF1233433.2712
aF1188483.1992
aF1189220.028
aF1188848.4276
aF1181268.6679
aF1206410.0861
aa(lp47
S'NSGAIISC-1225_100'
p48
aF1314290.9966
aF1313537.3665
aF1314429.4047
aF1312237.0977
aF1312893.9394
aF1317925.2224
aF1317347.5085
aF1313962.1589
aF1319689.0949
aF1326595.2054
aF1319009.2912
aF1313950.3292
aF1326262.9028
aF1311781.2153
aF1317960.8313
aF1318614.048
aF1312754.5299
aF1319346.4185
aF1325088.8049
aF1327597.4589
aa(lp49
S'SPEA2SC-5000_100'
p50
aF1324890.9008
aF1312127.7952
aF1324189.9072
aF1315683.5401
aF1316826.9624
aF1313731.2932
aF1316412.5027
aF1330177.6996
aF1319072.2442
aF1319099.7285
aF1313180.0628
aF1324601.2965
aF1316364.5214
aF1324525.0143
aF1318460.4565
aF1314967.6337
aF1318227.216
aF1310193.9814
aF1314691.5037
aF1321579.4441
aa(lp51
S'SWAY5_10000'
p52
aF1152066.5112
aF1176720.8007
aF1177134.8074
aF1083635.2634
aF1245178.5111
aF1243669.9671
aF1262342.1884
aF1188170.0739
aF1229766.3105
aF1270728.5132
aF1245971.7104
aF1090242.9944
aF1246735.8406
aF1238656.1703
aF1164611.4273
aF1135636.806
aF1251658.887
aF1267190.1124
aF1274095.6998
aF1073996.4235
aa(lp53
S'NSGAIISC-10000_100'
p54
aF1312786.5636
aF1316008.9915
aF1322972.7095
aF1316202.1395
aF1316475.4229
aF1314394.9497
aF1317944.3934
aF1316840.6718
aF1319230.6725
aF1318616.8065
aF1312485.7852
aF1315412.8978
aF1318669.5524
aF1317329.6107
aF1320298.1416
aF1313152.0341
aF1310706.1946
aF1316139.2172
aF1311446.4668
aF1326127.9635
aa(lp55
S'NSGAII_100'
p56
aF1324506.8533
aF1313896.7468
aF1326787.2251
aF1318029.227
aF1320225.6307
aF1323743.4026
aF1321804.3821
aF1313053.9192
aF1318261.0516
aF1317779.5019
aF1322214.9739
aF1315211.2788
aF1318581.8976
aF1315158.5653
aF1312847.9986
aF1320134.6243
aF1311440.7654
aF1316194.9491
aF1316211.569
aF1313502.5912
aa(lp57
S'SPEA2SC-2500_100'
p58
aF1315756.736
aF1313235.0031
aF1314943.8044
aF1314385.4634
aF1317249.2773
aF1323703.3745
aF1316993.0686
aF1318100.4966
aF1313953.7116
aF1314630.5391
aF1316374.5988
aF1310267.0497
aF1312888.2713
aF1323814.0592
aF1316552.6042
aF1324803.5381
aF1315366.8524
aF1311640.075
aF1321093.5679
aF1319147.2608
aa(lp59
S'SPEA2SC-10000_100'
p60
aF1326562.0932
aF1312412.9406
aF1310578.5831
aF1323164.9215
aF1307772.9679
aF1319939.231
aF1315450.7794
aF1314865.9042
aF1313585.937
aF1313345.4833
aF1325650.072
aF1320316.4389
aF1320769.9191
aF1315665.9519
aF1316268.004
aF1320160.1484
aF1311013.5306
aF1315877.6452
aF1310751.4371
aF1317725.1971
aa(lp61
S'NSGAIISC-2500_100'
p62
aF1316523.1954
aF1315035.5477
aF1321473.925
aF1314575.5054
aF1309016.5898
aF1313072.397
aF1317674.7755
aF1318028.3659
aF1318902.6625
aF1317532.2256
aF1315332.0367
aF1326258.4907
aF1316956.4198
aF1319438.6231
aF1322532.0211
aF1318485.9428
aF1320288.9281
aF1311413.9267
aF1327743.1568
aF1319244.3087
aass.