(dp0
S'SPEA2_100'
p1
(iGraphics.simplified_new
SolutionHolder
p2
(dp3
S'problem'
p4
S'POM3B'
p5
sS'repeats'
p6
(lp7
(iGraphics.simplified_new
Scores
p8
(dp9
S'pfs'
p10
I100
sS'spread'
p11
F0.6873359671674119
sS'hv'
p12
F1312994.729
sS'igd'
p13
Nsba(iGraphics.simplified_new
Scores
p14
(dp15
g10
I100
sg11
F0.6265186169053302
sg12
F1309323.0533
sg13
Nsba(iGraphics.simplified_new
Scores
p16
(dp17
g10
I100
sg11
F0.6119096890667793
sg12
F1303417.6023
sg13
Nsba(iGraphics.simplified_new
Scores
p18
(dp19
g10
I100
sg11
F0.7692854541077744
sg12
F1314476.5899
sg13
Nsba(iGraphics.simplified_new
Scores
p20
(dp21
g10
I100
sg11
F0.648528068845421
sg12
F1313506.5522
sg13
Nsba(iGraphics.simplified_new
Scores
p22
(dp23
g10
I100
sg11
F0.6152609990341521
sg12
F1316579.2074
sg13
Nsba(iGraphics.simplified_new
Scores
p24
(dp25
g10
I100
sg11
F0.7070969992828909
sg12
F1305546.3679
sg13
Nsba(iGraphics.simplified_new
Scores
p26
(dp27
g10
I100
sg11
F0.6101622019575292
sg12
F1303337.723
sg13
Nsba(iGraphics.simplified_new
Scores
p28
(dp29
g10
I100
sg11
F0.7494390533411254
sg12
F1316926.5831
sg13
Nsba(iGraphics.simplified_new
Scores
p30
(dp31
g10
I100
sg11
F0.6509354372257948
sg12
F1302517.601
sg13
Nsba(iGraphics.simplified_new
Scores
p32
(dp33
g10
I100
sg11
F0.6268494147009362
sg12
F1307365.7643
sg13
Nsba(iGraphics.simplified_new
Scores
p34
(dp35
g10
I100
sg11
F0.6705381395503216
sg12
F1317442.1299
sg13
Nsba(iGraphics.simplified_new
Scores
p36
(dp37
g10
I100
sg11
F0.7607026977423527
sg12
F1326179.06
sg13
Nsba(iGraphics.simplified_new
Scores
p38
(dp39
g10
I100
sg11
F0.6818380116227909
sg12
F1309880.5057
sg13
Nsba(iGraphics.simplified_new
Scores
p40
(dp41
g10
I100
sg11
F0.689933766228786
sg12
F1306428.3249
sg13
Nsba(iGraphics.simplified_new
Scores
p42
(dp43
g10
I100
sg11
F0.7767956788742247
sg12
F1310648.2738
sg13
Nsba(iGraphics.simplified_new
Scores
p44
(dp45
g10
I100
sg11
F0.6432583001781437
sg12
F1305620.813
sg13
Nsba(iGraphics.simplified_new
Scores
p46
(dp47
g10
I100
sg11
F0.5402468921028543
sg12
F1300963.6973
sg13
Nsba(iGraphics.simplified_new
Scores
p48
(dp49
g10
I100
sg11
F0.6155353333558892
sg12
F1315571.9846
sg13
Nsba(iGraphics.simplified_new
Scores
p50
(dp51
g10
I100
sg11
F0.6195851987503923
sg12
F1304920.0061
sg13
NsbasS'algorithm'
p52
S'SPEA2'
p53
sbsS'SWAY5_1225'
p54
(iGraphics.simplified_new
SolutionHolder
p55
(dp56
g4
g5
sg6
(lp57
(iGraphics.simplified_new
Scores
p58
(dp59
g10
I19
sg11
F0.40199176996374136
sg12
F1127149.8799
sg13
Nsba(iGraphics.simplified_new
Scores
p60
(dp61
g10
I19
sg11
F0.5027438626504901
sg12
F822957.8893
sg13
Nsba(iGraphics.simplified_new
Scores
p62
(dp63
g10
I19
sg11
F0.4446993678080747
sg12
F1272505.7203
sg13
Nsba(iGraphics.simplified_new
Scores
p64
(dp65
g10
I33
sg11
F0.40492687896440727
sg12
F1164935.1582
sg13
Nsba(iGraphics.simplified_new
Scores
p66
(dp67
g10
I19
sg11
F0.5996497401993638
sg12
F1239129.2196
sg13
Nsba(iGraphics.simplified_new
Scores
p68
(dp69
g10
I32
sg11
F0.49208007686012606
sg12
F1116062.7006
sg13
Nsba(iGraphics.simplified_new
Scores
p70
(dp71
g10
I19
sg11
F0.3171191917021976
sg12
F1090483.7491
sg13
Nsba(iGraphics.simplified_new
Scores
p72
(dp73
g10
I19
sg11
F0.4884122262266231
sg12
F1024716.2527
sg13
Nsba(iGraphics.simplified_new
Scores
p74
(dp75
g10
I29
sg11
F0.46979627361937315
sg12
F1002373.4259
sg13
Nsba(iGraphics.simplified_new
Scores
p76
(dp77
g10
I19
sg11
F0.5834046715798074
sg12
F1086272.4012
sg13
Nsba(iGraphics.simplified_new
Scores
p78
(dp79
g10
I19
sg11
F0.4361008142568966
sg12
F990838.1554
sg13
Nsba(iGraphics.simplified_new
Scores
p80
(dp81
g10
I29
sg11
F0.46225503972485477
sg12
F1165216.6491
sg13
Nsba(iGraphics.simplified_new
Scores
p82
(dp83
g10
I30
sg11
F0.5201360722581186
sg12
F1218212.4994
sg13
Nsba(iGraphics.simplified_new
Scores
p84
(dp85
g10
I29
sg11
F0.33991046847043377
sg12
F1144704.8484
sg13
Nsba(iGraphics.simplified_new
Scores
p86
(dp87
g10
I30
sg11
F0.5914557037909557
sg12
F1113153.7519
sg13
Nsba(iGraphics.simplified_new
Scores
p88
(dp89
g10
I29
sg11
F0.4505710084169672
sg12
F890698.5327
sg13
Nsba(iGraphics.simplified_new
Scores
p90
(dp91
g10
I19
sg11
F0.4884650785831443
sg12
F1174611.9742
sg13
Nsba(iGraphics.simplified_new
Scores
p92
(dp93
g10
I22
sg11
F0.6374071589164055
sg12
F1175286.5881
sg13
Nsba(iGraphics.simplified_new
Scores
p94
(dp95
g10
I21
sg11
F0.39973295933661157
sg12
F1207237.5241
sg13
Nsba(iGraphics.simplified_new
Scores
p96
(dp97
g10
I22
sg11
F0.5585751507246528
sg12
F1190373.5517
sg13
Nsbasg52
S'SWAY5'
p98
sbsS'SWAY5_5000'
p99
(iGraphics.simplified_new
SolutionHolder
p100
(dp101
g4
g5
sg6
(lp102
(iGraphics.simplified_new
Scores
p103
(dp104
g10
I39
sg11
F0.455259670211218
sg12
F1063571.0161
sg13
Nsba(iGraphics.simplified_new
Scores
p105
(dp106
g10
I67
sg11
F0.4842115783605188
sg12
F1167609.3992
sg13
Nsba(iGraphics.simplified_new
Scores
p107
(dp108
g10
I51
sg11
F0.4538605917185699
sg12
F1216418.1283
sg13
Nsba(iGraphics.simplified_new
Scores
p109
(dp110
g10
I39
sg11
F0.4153803933962931
sg12
F1226530.0823
sg13
Nsba(iGraphics.simplified_new
Scores
p111
(dp112
g10
I68
sg11
F0.3897077308247524
sg12
F1255868.018
sg13
Nsba(iGraphics.simplified_new
Scores
p113
(dp114
g10
I36
sg11
F0.3990489107637349
sg12
F1090707.0753
sg13
Nsba(iGraphics.simplified_new
Scores
p115
(dp116
g10
I19
sg11
F0.5721276807652155
sg12
F1154877.4591
sg13
Nsba(iGraphics.simplified_new
Scores
p117
(dp118
g10
I39
sg11
F0.37799097065561277
sg12
F1183064.8723
sg13
Nsba(iGraphics.simplified_new
Scores
p119
(dp120
g10
I39
sg11
F0.42967597079371533
sg12
F1239755.0589
sg13
Nsba(iGraphics.simplified_new
Scores
p121
(dp122
g10
I58
sg11
F0.3867844368849983
sg12
F1191167.45
sg13
Nsba(iGraphics.simplified_new
Scores
p123
(dp124
g10
I58
sg11
F0.40600345280667477
sg12
F1252175.9062
sg13
Nsba(iGraphics.simplified_new
Scores
p125
(dp126
g10
I57
sg11
F0.43364357587230556
sg12
F1225084.5624
sg13
Nsba(iGraphics.simplified_new
Scores
p127
(dp128
g10
I39
sg11
F0.5439053065832734
sg12
F1249550.0762
sg13
Nsba(iGraphics.simplified_new
Scores
p129
(dp130
g10
I28
sg11
F0.5409407482780597
sg12
F1151696.5082
sg13
Nsba(iGraphics.simplified_new
Scores
p131
(dp132
g10
I44
sg11
F0.4576711672534216
sg12
F1260811.0109
sg13
Nsba(iGraphics.simplified_new
Scores
p133
(dp134
g10
I59
sg11
F0.5056579968090222
sg12
F1101940.6279
sg13
Nsba(iGraphics.simplified_new
Scores
p135
(dp136
g10
I57
sg11
F0.4104583581901356
sg12
F1249049.6514
sg13
Nsba(iGraphics.simplified_new
Scores
p137
(dp138
g10
I27
sg11
F0.5036373646300841
sg12
F1014309.0229
sg13
Nsba(iGraphics.simplified_new
Scores
p139
(dp140
g10
I39
sg11
F0.3781836937645414
sg12
F1248242.7284
sg13
Nsba(iGraphics.simplified_new
Scores
p141
(dp142
g10
I58
sg11
F0.44106677736971733
sg12
F1252024.3589
sg13
Nsbasg52
S'SWAY5'
p143
sbsS'SWAY5_2500'
p144
(iGraphics.simplified_new
SolutionHolder
p145
(dp146
g4
g5
sg6
(lp147
(iGraphics.simplified_new
Scores
p148
(dp149
g10
I29
sg11
F0.385126877194878
sg12
F1201672.454
sg13
Nsba(iGraphics.simplified_new
Scores
p150
(dp151
g10
I39
sg11
F0.39112019067845066
sg12
F1184085.5614
sg13
Nsba(iGraphics.simplified_new
Scores
p152
(dp153
g10
I39
sg11
F0.4751898413950781
sg12
F1195655.8935
sg13
Nsba(iGraphics.simplified_new
Scores
p154
(dp155
g10
I29
sg11
F0.41351235935892794
sg12
F1237711.3117
sg13
Nsba(iGraphics.simplified_new
Scores
p156
(dp157
g10
I30
sg11
F0.3984044495472822
sg12
F1129323.853
sg13
Nsba(iGraphics.simplified_new
Scores
p158
(dp159
g10
I36
sg11
F0.5131252976648764
sg12
F1255183.5753
sg13
Nsba(iGraphics.simplified_new
Scores
p160
(dp161
g10
I25
sg11
F0.46989850437961417
sg12
F1119366.9728
sg13
Nsba(iGraphics.simplified_new
Scores
p162
(dp163
g10
I39
sg11
F0.528780551496866
sg12
F1225436.8419
sg13
Nsba(iGraphics.simplified_new
Scores
p164
(dp165
g10
I44
sg11
F0.45235298600563645
sg12
F1250580.5154
sg13
Nsba(iGraphics.simplified_new
Scores
p166
(dp167
g10
I28
sg11
F0.5974475741001316
sg12
F1138614.506
sg13
Nsba(iGraphics.simplified_new
Scores
p168
(dp169
g10
I29
sg11
F0.4546592981969592
sg12
F1176312.8804
sg13
Nsba(iGraphics.simplified_new
Scores
p170
(dp171
g10
I29
sg11
F0.507730141103789
sg12
F1209431.3023
sg13
Nsba(iGraphics.simplified_new
Scores
p172
(dp173
g10
I22
sg11
F0.4203120507648136
sg12
F1019216.1757
sg13
Nsba(iGraphics.simplified_new
Scores
p174
(dp175
g10
I29
sg11
F0.5031388849156617
sg12
F1211835.4784
sg13
Nsba(iGraphics.simplified_new
Scores
p176
(dp177
g10
I26
sg11
F0.5159203237859299
sg12
F977061.1371
sg13
Nsba(iGraphics.simplified_new
Scores
p178
(dp179
g10
I24
sg11
F0.48831762533366174
sg12
F1077683.4339
sg13
Nsba(iGraphics.simplified_new
Scores
p180
(dp181
g10
I30
sg11
F0.4069807862595278
sg12
F1206122.5602
sg13
Nsba(iGraphics.simplified_new
Scores
p182
(dp183
g10
I26
sg11
F0.5631420258184491
sg12
F1228794.6489
sg13
Nsba(iGraphics.simplified_new
Scores
p184
(dp185
g10
I17
sg11
F0.5741478257461223
sg12
F1133840.8691
sg13
Nsba(iGraphics.simplified_new
Scores
p186
(dp187
g10
I37
sg11
F0.49762622353086094
sg12
F1155988.0652
sg13
Nsbasg52
S'SWAY5'
p188
sbsS'SWAY5_10000'
p189
(iGraphics.simplified_new
SolutionHolder
p190
(dp191
g4
g5
sg6
(lp192
(iGraphics.simplified_new
Scores
p193
(dp194
g10
I55
sg11
F0.4199536020368106
sg12
F1235833.5593
sg13
Nsba(iGraphics.simplified_new
Scores
p195
(dp196
g10
I38
sg11
F0.47142378919776456
sg12
F1235232.4133
sg13
Nsba(iGraphics.simplified_new
Scores
p197
(dp198
g10
I88
sg11
F0.3977411897580343
sg12
F1283556.2223
sg13
Nsba(iGraphics.simplified_new
Scores
p199
(dp200
g10
I85
sg11
F0.4259345125240764
sg12
F1035224.1096
sg13
Nsba(iGraphics.simplified_new
Scores
p201
(dp202
g10
I78
sg11
F0.48744410149456635
sg12
F1272056.6009
sg13
Nsba(iGraphics.simplified_new
Scores
p203
(dp204
g10
I82
sg11
F0.39688126148615455
sg12
F1188947.245
sg13
Nsba(iGraphics.simplified_new
Scores
p205
(dp206
g10
I87
sg11
F0.3681198881981297
sg12
F1218396.227
sg13
Nsba(iGraphics.simplified_new
Scores
p207
(dp208
g10
I78
sg11
F0.44300662855257034
sg12
F1266011.3533
sg13
Nsba(iGraphics.simplified_new
Scores
p209
(dp210
g10
I73
sg11
F0.4655009698652964
sg12
F1111570.422
sg13
Nsba(iGraphics.simplified_new
Scores
p211
(dp212
g10
I27
sg11
F0.4855387079496385
sg12
F1211810.406
sg13
Nsba(iGraphics.simplified_new
Scores
p213
(dp214
g10
I76
sg11
F0.3917614190936169
sg12
F1197446.991
sg13
Nsba(iGraphics.simplified_new
Scores
p215
(dp216
g10
I39
sg11
F0.4164824917043584
sg12
F1189398.8603
sg13
Nsba(iGraphics.simplified_new
Scores
p217
(dp218
g10
I56
sg11
F0.4294901056350812
sg12
F1265912.1042
sg13
Nsba(iGraphics.simplified_new
Scores
p219
(dp220
g10
I29
sg11
F0.5785588651029744
sg12
F1027702.9671
sg13
Nsba(iGraphics.simplified_new
Scores
p221
(dp222
g10
I51
sg11
F0.3918648885645296
sg12
F1153898.5819
sg13
Nsba(iGraphics.simplified_new
Scores
p223
(dp224
g10
I68
sg11
F0.46600135612772614
sg12
F1244462.1406
sg13
Nsba(iGraphics.simplified_new
Scores
p225
(dp226
g10
I59
sg11
F0.40054014568451585
sg12
F1133455.0278
sg13
Nsba(iGraphics.simplified_new
Scores
p227
(dp228
g10
I78
sg11
F0.4771514229837593
sg12
F1166827.7655
sg13
Nsba(iGraphics.simplified_new
Scores
p229
(dp230
g10
I68
sg11
F0.4563737348629401
sg12
F1131643.8635
sg13
Nsba(iGraphics.simplified_new
Scores
p231
(dp232
g10
I40
sg11
F0.45372103424600274
sg12
F1083770.2285
sg13
Nsbasg52
S'SWAY5'
p233
sbsS'NSGAII_100'
p234
(iGraphics.simplified_new
SolutionHolder
p235
(dp236
g4
g5
sg6
(lp237
(iGraphics.simplified_new
Scores
p238
(dp239
g10
I100
sg11
F0.6804429385571469
sg12
F1319276.073
sg13
Nsba(iGraphics.simplified_new
Scores
p240
(dp241
g10
I100
sg11
F0.6201382532802627
sg12
F1310347.1651
sg13
Nsba(iGraphics.simplified_new
Scores
p242
(dp243
g10
I100
sg11
F0.6892502331972211
sg12
F1327712.0753
sg13
Nsba(iGraphics.simplified_new
Scores
p244
(dp245
g10
I100
sg11
F0.6773709938956536
sg12
F1314079.9204
sg13
Nsba(iGraphics.simplified_new
Scores
p246
(dp247
g10
I100
sg11
F0.7140884577814052
sg12
F1305697.6611
sg13
Nsba(iGraphics.simplified_new
Scores
p248
(dp249
g10
I100
sg11
F0.5310665190027064
sg12
F1302514.8331
sg13
Nsba(iGraphics.simplified_new
Scores
p250
(dp251
g10
I100
sg11
F0.684652357720106
sg12
F1300848.5944
sg13
Nsba(iGraphics.simplified_new
Scores
p252
(dp253
g10
I100
sg11
F0.6291706668113275
sg12
F1312982.7104
sg13
Nsba(iGraphics.simplified_new
Scores
p254
(dp255
g10
I100
sg11
F0.6491455789346784
sg12
F1318026.894
sg13
Nsba(iGraphics.simplified_new
Scores
p256
(dp257
g10
I100
sg11
F0.7008549427556159
sg12
F1307639.3291
sg13
Nsba(iGraphics.simplified_new
Scores
p258
(dp259
g10
I100
sg11
F0.5529142103656255
sg12
F1310705.6318
sg13
Nsba(iGraphics.simplified_new
Scores
p260
(dp261
g10
I100
sg11
F0.736991546334923
sg12
F1310668.9384
sg13
Nsba(iGraphics.simplified_new
Scores
p262
(dp263
g10
I100
sg11
F0.6221212481138095
sg12
F1309540.3466
sg13
Nsba(iGraphics.simplified_new
Scores
p264
(dp265
g10
I100
sg11
F0.7494766377036157
sg12
F1308623.7663
sg13
Nsba(iGraphics.simplified_new
Scores
p266
(dp267
g10
I100
sg11
F0.6249669977622723
sg12
F1306508.6893
sg13
Nsba(iGraphics.simplified_new
Scores
p268
(dp269
g10
I100
sg11
F0.710294607450184
sg12
F1312483.3797
sg13
Nsba(iGraphics.simplified_new
Scores
p270
(dp271
g10
I100
sg11
F0.5592074957448654
sg12
F1306609.5514
sg13
Nsba(iGraphics.simplified_new
Scores
p272
(dp273
g10
I100
sg11
F0.6372294540735325
sg12
F1307821.1205
sg13
Nsba(iGraphics.simplified_new
Scores
p274
(dp275
g10
I100
sg11
F0.6768612652679535
sg12
F1305274.7876
sg13
Nsba(iGraphics.simplified_new
Scores
p276
(dp277
g10
I100
sg11
F0.6361621115566217
sg12
F1314479.6663
sg13
Nsbasg52
S'NSGAII'
p278
sbs.