(dp0
S'SWAY5_100'
p1
(iGraphics.simplified_new
SolutionHolder
p2
(dp3
S'problem'
p4
S'POM3A(S)'
p5
sS'repeats'
p6
(lp7
(iGraphics.simplified_new
Scores
p8
(dp9
S'pfs'
p10
I7
sS'spread'
p11
F0.4196145050510411
sS'hv'
p12
F512229.8444
sS'igd'
p13
Nsba(iGraphics.simplified_new
Scores
p14
(dp15
g10
I6
sg11
F0.5941574304175754
sg12
F577054.6468
sg13
Nsba(iGraphics.simplified_new
Scores
p16
(dp17
g10
I6
sg11
F0.5674249364844993
sg12
F580148.1296
sg13
Nsba(iGraphics.simplified_new
Scores
p18
(dp19
g10
I9
sg11
F0.38741864421328054
sg12
F818074.0227
sg13
Nsba(iGraphics.simplified_new
Scores
p20
(dp21
g10
I6
sg11
F0.4792391412387401
sg12
F605353.3523
sg13
Nsba(iGraphics.simplified_new
Scores
p22
(dp23
g10
I7
sg11
F0.5036409556945081
sg12
F449781.8628
sg13
Nsba(iGraphics.simplified_new
Scores
p24
(dp25
g10
I6
sg11
F0.41163796437850697
sg12
F801601.3898
sg13
Nsba(iGraphics.simplified_new
Scores
p26
(dp27
g10
I6
sg11
F0.16877852775057872
sg12
F1220627.4097
sg13
Nsba(iGraphics.simplified_new
Scores
p28
(dp29
g10
I6
sg11
F0.3639607844885679
sg12
F851462.1111
sg13
Nsba(iGraphics.simplified_new
Scores
p30
(dp31
g10
I6
sg11
F0.48391835909795217
sg12
F632685.7465
sg13
Nsba(iGraphics.simplified_new
Scores
p32
(dp33
g10
I7
sg11
F0.5948188500353975
sg12
F742253.1079
sg13
Nsba(iGraphics.simplified_new
Scores
p34
(dp35
g10
I5
sg11
F0.39927948455789514
sg12
F414203.0754
sg13
Nsba(iGraphics.simplified_new
Scores
p36
(dp37
g10
I7
sg11
F0.3741642663500716
sg12
F891575.1344
sg13
Nsba(iGraphics.simplified_new
Scores
p38
(dp39
g10
I6
sg11
F0.4902006473035026
sg12
F767028.8521
sg13
Nsba(iGraphics.simplified_new
Scores
p40
(dp41
g10
I6
sg11
F0.4170163833239905
sg12
F588626.645
sg13
Nsba(iGraphics.simplified_new
Scores
p42
(dp43
g10
I6
sg11
F0.4470814225867433
sg12
F605933.3242
sg13
Nsba(iGraphics.simplified_new
Scores
p44
(dp45
g10
I6
sg11
F0.5710331615994623
sg12
F707128.9004
sg13
Nsba(iGraphics.simplified_new
Scores
p46
(dp47
g10
I9
sg11
F0.3282802866363202
sg12
F768465.6497
sg13
Nsba(iGraphics.simplified_new
Scores
p48
(dp49
g10
I6
sg11
F0.38569723203908257
sg12
F496455.9759
sg13
Nsba(iGraphics.simplified_new
Scores
p50
(dp51
g10
I6
sg11
F0.760466308709765
sg12
F1158706.0294
sg13
NsbasS'algorithm'
p52
S'SWAY5'
p53
sbs.