(dp0
S'POM3D'
p1
(dp2
S'Spread'
p3
(lp4
(lp5
S'NSGAII_100'
p6
aF1.0014849885205055
aF0.8501995726936755
aF0.918818999590239
aF0.9006723534567844
aF0.8034410659727739
aF0.8973206427842474
aF0.8639285127818662
aF0.9430453931536964
aF0.7477695207694257
aF0.8852111502852013
aF0.9177215952988355
aF0.9119891024591887
aF0.8489042430559214
aF0.8632516122649135
aF0.9323680035461482
aF1.0056512891713103
aF0.9639493024062128
aF0.9294223303599116
aF0.8962886264527454
aF0.9086411433377282
aF0.9102662262594055
aF0.897465872718283
aF0.8884192351148832
aF0.813046442773336
aF0.7000651467304495
aF0.8094215396865205
aF0.8082655289493936
aF0.7346419620895273
aF0.8545698523303982
aF0.7381703327084019
aF0.8339593270726741
aF0.9275406206098369
aF0.7617148924757031
aF0.7556997064373717
aF0.9375096337263849
aF0.8532166183883758
aF0.8522241792615951
aF0.784254384609546
aF0.7950966439676879
aF0.6866813062058875
aF0.8410622157942371
aF0.7138608035141221
aF0.8590614326561103
aF0.7607312528266469
aF0.9727453265446908
aF0.8038762125597773
aF0.8177752526576512
aF0.923457990475826
aF0.8571684331539268
aF0.8908158238247504
aF0.8486687540864836
aF0.7868934469242771
aF0.7850637191197811
aF0.896685824419008
aF0.8518464294160338
aF0.8512558547581237
aF0.877383198853043
aF0.8835646204438358
aF0.9568610905134914
aF0.7837917123377487
aF0.9108805367073669
aF0.8507141754064529
aF0.9129138463106629
aF0.8735706207114182
aF0.7977135772473033
aF0.8201760041359027
aF0.7669196259147744
aF0.838829772114476
aF0.890699383119456
aF0.7485413898601669
aF0.8642285873169274
aF0.8368494096287417
aF0.8744734510077673
aF0.7558026741051597
aF0.8552314758303258
aF0.86034965882497
aF0.7679395177959449
aF0.8371449785457592
aF0.7288271425056378
aF0.8544640978910032
aF0.8208395875225423
aF0.7881093689889519
aF0.8226306758649352
aF0.6610254757089424
aa(lp7
S'SWAY5_10000'
p8
aF0.5817899449828476
aF0.5978166268625491
aF0.4622718605850517
aF0.5130534985610433
aF0.5605656853717235
aF0.6064603002157675
aF0.5138119070247523
aF0.529444611327184
aF0.5293979322117348
aF0.6707897253120514
aF0.5253069902273898
aF0.6096473519387561
aF0.6248532345432638
aF0.5297946101222343
aF0.6241796246561147
aF0.6859993873155525
aF0.5455397593578327
aF0.49213052049570316
aF0.5351117446591577
aF0.5429464166056251
aF0.5923809233177132
aF0.5863336510072891
aF0.6149985489831912
aF0.6314620408731721
aF0.6265943862368143
aF0.4918174888619353
aF0.5272374682980395
aF0.5199755190215887
aF0.6155204971485515
aF0.5401663123006142
aF0.5225507678358948
aF0.5831333124378149
aF0.5768124891389742
aF0.5794325310561248
aF0.5600799888351338
aF0.544149398090269
aF0.6949721271609376
aF0.5472951164311991
aF0.4915134370274672
aF0.4893971388758535
aF0.5530120031536293
aF0.5509853974730607
aF0.5841138512895021
aF0.5739636722925143
aF0.5480119476512882
aF0.6021768463634034
aF0.5332109022312798
aF0.4900639294848898
aF0.4448782846852773
aF0.5912142572262196
aF0.5840985434496857
aF0.5373184548341667
aF0.5273087270928903
aF0.5470904023911268
aF0.5410006336288413
aF0.425763021439885
aF0.545997193406899
aF0.5490748532114101
aF0.6464071569480488
aF0.48374748315504007
aF0.4766746396725634
aF0.4975647552478789
aF0.6297695744394575
aF0.5142622495998825
aF0.5145714403359168
aF0.6368758764816012
aF0.6110169235289531
aF0.6428889667751089
aF0.6020545522964985
aF0.6163736547895513
aF0.6314001551904506
aF0.5919984640993563
aF0.694052428599534
aF0.5787017466718896
aF0.542575690624472
aF0.6180342180965938
aF0.6356803935295687
aF0.5645725602307671
aF0.5541237610021503
aF0.6375632575356209
aF0.5990819574240507
aF0.617329301260451
aF0.7802122381622753
aF0.4784865517276876
aa(lp9
S'SPEA2_100'
p10
aF0.7844999009762307
aF0.864415832804267
aF0.7223873125043889
aF0.7341917014431346
aF0.8666291298267842
aF0.8557634973169335
aF0.7229810698709718
aF0.7675271182406735
aF0.814976699454928
aF0.8657761807785489
aF0.7743501858866265
aF0.7321191428185851
aF0.8107823133280412
aF0.8167559609869621
aF0.8741456403100865
aF0.7500633873479304
aF0.7527389968806397
aF0.7539419525869672
aF0.783750162680416
aF0.8181515111955329
aF0.7814041216922504
aF0.8009559604976877
aF0.8046336772040887
aF0.7854659366245929
aF0.8103417567299374
aF0.8131823506310873
aF0.9508147453198016
aF0.8508636209604981
aF0.9400138995747587
aF0.8704760311059724
aF0.7937226928250117
aF0.9150009397667656
aF0.8301135290841607
aF0.8732327437127213
aF0.8567711350163121
aF0.8677680744446361
aF0.8512184637444087
aF0.8556629225456654
aF0.9563437104504642
aF0.8496258797314971
aF0.8368646699533695
aF0.8751762544969285
aF0.7815440308507537
aF0.7473588754298222
aF0.7622111612194367
aF0.759581622437822
aF0.7848249896803553
aF0.7811011604982623
aF0.7722367111852961
aF0.8419683093468577
aF0.7100644153622792
aF0.769697541183483
aF0.7775839182262886
aF0.8862230594137127
aF0.8242526518432081
aF0.7339929399934433
aF0.822777790425262
aF0.736397598712537
aF0.7637441200503006
aF0.8791078543068859
aF0.8528511907457159
aF0.8018123505421544
aF0.6813127589811682
aF0.8085787962205007
aF0.8163340695601394
aF0.7616997028205233
aF0.9199630979569395
aF0.9142943925412479
aF0.8231421657011926
aF0.7737094124541771
aF0.8714706679951842
aF0.7422637067642902
aF0.9054793781776895
aF0.7815308905313552
aF0.7191531241737564
aF0.8667207483691324
aF0.8329221782832359
aF0.8864440409163717
aF0.8515274113068981
aF0.7811096125143421
aF0.8580956397965729
aF0.834925096592842
aF0.843512489836069
aF0.7118164525841667
aasS'HV'
p11
(lp12
(lp13
S'NSGAII_100'
p14
aF1309930.2589
aF1317215.1213
aF1286880.5268
aF1298961.3077
aF1274792.4612
aF1243436.5029
aF1250533.2323
aF1247936.8471
aF1306468.917
aF1246675.1095
aF1242784.6678
aF1275943.6114
aF1301422.8074
aF1255625.6906
aF1269393.224
aF1240959.7582
aF1234822.582
aF1269197.4392
aF1265815.8825
aF1253313.5156
aF1274412.8067
aF1317234.4133
aF1302195.3262
aF1310682.0707
aF1324002.6482
aF1309604.3875
aF1299072.7641
aF1313932.061
aF1317304.5723
aF1292064.6749
aF1324143.2735
aF1303222.8396
aF1329043.5103
aF1320443.5904
aF1303976.2086
aF1321560.55
aF1318672.3672
aF1314809.3424
aF1321712.9484
aF1293615.5052
aF1293769.1924
aF1294521.1311
aF1326321.1907
aF1312269.4726
aF1284986.0551
aF1307759.6675
aF1289675.6095
aF1267144.1989
aF1305330.3873
aF1279807.5775
aF1286863.2222
aF1271062.758
aF1268393.9244
aF1299027.0891
aF1265228.396
aF1266115.5646
aF1265254.3679
aF1280221.6365
aF1318445.8277
aF1271306.1543
aF1307678.6545
aF1283377.2455
aF1283618.1811
aF1291967.717
aF1298245.6614
aF1268806.4711
aF1262956.889
aF1306813.9258
aF1309947.6358
aF1285079.3718
aF1282989.4963
aF1312099.1543
aF1286405.4141
aF1268221.6998
aF1270333.1792
aF1269097.453
aF1314056.019
aF1307303.9486
aF1284166.0812
aF1319246.3966
aF1274014.3037
aF1288181.9486
aF1288162.0996
aF1317582.715
aa(lp15
S'SWAY5_10000'
p16
aF1135144.737
aF1185558.2594
aF1081241.9745
aF1173742.0174
aF1217920.3511
aF1129365.12
aF1231130.267
aF1169124.4414
aF1115532.9195
aF1138143.945
aF1112460.8867
aF1143024.328
aF1085456.5073
aF1144404.9021
aF1146853.7952
aF1216362.6716
aF1140540.4802
aF1157668.0399
aF1190479.7016
aF1244151.9242
aF1125170.2695
aF1215457.014
aF1199725.8049
aF1201419.1511
aF1232129.9139
aF1276366.9534
aF1249949.4056
aF1185588.8463
aF1204424.8208
aF1164647.2638
aF1097237.5808
aF1191143.481
aF1201269.366
aF1133826.8954
aF1217644.3207
aF1248724.8801
aF1109518.8216
aF1061642.7803
aF1142802.2827
aF1166716.1289
aF1159190.4927
aF1180913.4252
aF1235506.5138
aF1238521.8838
aF1139083.5335
aF1282154.3124
aF1222056.1764
aF1180811.7331
aF1133555.2052
aF1241643.3863
aF1193068.3068
aF1203463.3183
aF1227238.494
aF1191188.7456
aF1197823.7487
aF1226313.2631
aF1269988.2925
aF1206085.6414
aF1154963.3574
aF1214744.1017
aF1202349.6548
aF1254684.8607
aF1208049.2633
aF1234970.8571
aF1141815.6196
aF1158656.2567
aF1177397.392
aF1247575.1631
aF1164727.563
aF1200703.1971
aF1191892.1683
aF1198811.4307
aF1205861.3551
aF1256023.3714
aF1216013.3311
aF1189415.6725
aF1172162.0369
aF1147207.0464
aF1202646.5701
aF1180553.4861
aF1193514.7292
aF1178655.2528
aF1154722.57
aF1154940.4542
aa(lp17
S'SPEA2_100'
p18
aF1281926.8274
aF1315702.9659
aF1271065.6153
aF1288125.4841
aF1272326.3716
aF1303336.5914
aF1288098.162
aF1260097.5451
aF1273046.2982
aF1323140.6497
aF1249127.251
aF1306749.099
aF1316030.8108
aF1309330.0419
aF1258254.2228
aF1290998.1666
aF1294287.8336
aF1252619.0585
aF1300190.6351
aF1260679.0423
aF1277291.4047
aF1323326.1748
aF1283959.204
aF1291635.3441
aF1252204.6255
aF1252448.4455
aF1250404.297
aF1257624.4721
aF1255820.5017
aF1305642.3912
aF1248128.58
aF1291382.5876
aF1269357.638
aF1243577.2869
aF1241689.6315
aF1251077.3787
aF1290518.813
aF1276306.8067
aF1261190.9372
aF1244277.5202
aF1298558.4021
aF1264814.1111
aF1311125.9236
aF1262153.3838
aF1301287.7574
aF1313955.3859
aF1292157.5661
aF1259225.7394
aF1315184.605
aF1278414.9394
aF1319802.1972
aF1310824.3112
aF1280160.4916
aF1311804.1968
aF1327390.4734
aF1312356.0372
aF1273880.4996
aF1318394.7435
aF1299397.0288
aF1277427.3359
aF1313540.0889
aF1295863.8742
aF1273197.351
aF1293073.335
aF1310880.9157
aF1306847.603
aF1303233.5641
aF1322037.3713
aF1325469.5754
aF1309522.1574
aF1305817.5559
aF1315169.9267
aF1287793.9958
aF1323157.017
aF1293345.7624
aF1328168.6485
aF1302885.6769
aF1315990.2682
aF1325683.261
aF1322685.2937
aF1310493.3267
aF1302149.5123
aF1295553.5301
aF1322578.3969
aass.