(dp0
S'POM3C'
p1
(dp2
S'Spread'
p3
(lp4
(lp5
S'SPEA2_100'
p6
aF0.5671296832516046
aF0.7017619965236288
aF0.6439338717856885
aF0.5906079242011915
aF0.6268121210640596
aF0.6753168057355506
aF0.6159295873245868
aF0.6180515843945252
aF0.59828645114423
aF0.6035471400960616
aF0.6732100610004509
aF0.6093848669406704
aF0.7275187686905881
aF0.687372152799364
aF0.6362590837102374
aF0.7476022385883784
aF0.6316726589522199
aF0.6651550214135629
aF0.5938894687816972
aF0.6466893992391403
aa(lp7
S'SPEA2SC-1225_100'
p8
aF0.6639524516399179
aF0.5579136031891304
aF0.5661908868122971
aF0.6422805422934009
aF0.6183862086455628
aF0.5870362259186608
aF0.6357496297180282
aF0.6801406736129719
aF0.7107758621678304
aF0.6280560859414963
aF0.5835837951641428
aF0.6576847631756862
aF0.5650088680765307
aF0.5696104514245455
aF0.5911399899317535
aF0.597438706968372
aF0.631346229723597
aF0.6924218871508345
aF0.6262294192804038
aF0.6767940205334091
aa(lp9
S'SWAY5_1225'
p10
aF0.43275323193507076
aF0.48891233905300446
aF0.4073783677784398
aF0.432888461307868
aF0.5448157269035812
aF0.49570905451523023
aF0.4917902033961096
aF0.5486829279563463
aF0.40941169962461654
aF0.4270074344799159
aF0.4040062225756642
aF0.49303844151183346
aF0.6010460333434666
aF0.4833245471083837
aF0.5446294147463523
aF0.569919467572108
aF0.4588318432236825
aF0.449548871226051
aF0.5417429969642971
aF0.3876560263978221
aa(lp11
S'SWAY5_5000'
p12
aF0.4359203868335366
aF0.44964088453213086
aF0.5236287389903275
aF0.491613270230087
aF0.41994718742452514
aF0.4694995534807281
aF0.4690571766564282
aF0.5101450387983846
aF0.47129804064477065
aF0.451788249175059
aF0.3969648476990566
aF0.4195732764703871
aF0.4584913432580906
aF0.4975493191425034
aF0.5222388352788334
aF0.4122737948705089
aF0.39342724811174234
aF0.47823208623004937
aF0.42681799851975843
aF0.5548059448222311
aa(lp13
S'NSGAIISC-5000_100'
p14
aF0.5570658351081245
aF0.5113024033099547
aF0.49866106094539403
aF0.6467953153042857
aF0.5767331225734659
aF0.6192571791561976
aF0.6502063398777044
aF0.6190575268432007
aF0.7171725451028432
aF0.4316306196644748
aF0.5754341722793841
aF0.6383889035540301
aF0.5611803864792242
aF0.6592415079558276
aF0.760833657767166
aF0.6463008508340496
aF0.6441845180146535
aF0.5303925905338666
aF0.50409518307084
aF0.6466662931162265
aa(lp15
S'SWAY5_2500'
p16
aF0.39169195870803103
aF0.5360984595909568
aF0.5218719335363781
aF0.5076825163280013
aF0.5337302815362371
aF0.5037197718488833
aF0.5130002388732942
aF0.44917968845241807
aF0.4858514836341203
aF0.4659808196906121
aF0.48528775688528925
aF0.4629494509924494
aF0.5657279914998088
aF0.4134887423927338
aF0.45869996916634037
aF0.4984831570966673
aF0.4287104228169503
aF0.5029734341059412
aF0.5907302309807819
aF0.45308856478677223
aa(lp17
S'NSGAIISC-1225_100'
p18
aF0.6979521884098341
aF0.4756114624554121
aF0.6661253475833905
aF0.5826596705492557
aF0.6218970533259711
aF0.6019740660460351
aF0.5319065997035751
aF0.5286142221538378
aF0.6427479382502133
aF0.5227663545069513
aF0.672664715347789
aF0.6415460301971473
aF0.5931456945938288
aF0.6134318107767868
aF0.6927603149059067
aF0.6078149364737335
aF0.5752857371648469
aF0.6244478075994113
aF0.679676770069261
aF0.633537563271092
aa(lp19
S'SPEA2SC-5000_100'
p20
aF0.5870206945994834
aF0.6108638849307495
aF0.6421281370012941
aF0.6189996516414296
aF0.5932901072606022
aF0.696025953024743
aF0.5874485691672094
aF0.6281103885707032
aF0.619819258245707
aF0.6578530725774507
aF0.6489643865885981
aF0.6617362474060071
aF0.6214152112889912
aF0.6135259853693426
aF0.7215932772353975
aF0.6855810782496092
aF0.6114525441914694
aF0.64455665011171
aF0.6735481699304551
aF0.5607411826351263
aa(lp21
S'SWAY5_10000'
p22
aF0.4509940343733295
aF0.4038414052054025
aF0.577097887106066
aF0.5132590473242699
aF0.44965782496504725
aF0.4208315675210013
aF0.45645670530252064
aF0.5027277077647463
aF0.43330140752686086
aF0.5093782386514726
aF0.534520673010461
aF0.4186491407855158
aF0.5958153748282823
aF0.4268504625157391
aF0.40831687305566533
aF0.43521816912309075
aF0.42880479784046277
aF0.43217256441264057
aF0.569836465397774
aF0.47484850692809305
aa(lp23
S'NSGAIISC-10000_100'
p24
aF0.5049571145262766
aF0.5782301170115096
aF0.5440186998317452
aF0.6560639812633174
aF0.7054227451638518
aF0.6290491801549152
aF0.4942000616280655
aF0.5324206456958316
aF0.5928898904763634
aF0.5574737849278121
aF0.6973680642479062
aF0.5610575459523217
aF0.7134002365898859
aF0.7291596014471926
aF0.5474304668628946
aF0.5425647398800315
aF0.5581466773497149
aF0.5882349625666264
aF0.6065881059435764
aF0.546985500515132
aa(lp25
S'NSGAII_100'
p26
aF0.5148973427482223
aF0.5279069334205071
aF0.6138941647484893
aF0.6494575390109008
aF0.6457413582446432
aF0.5914407501516813
aF0.6753125994843264
aF0.7325552421757154
aF0.5850398108667136
aF0.6296824967118425
aF0.5360962656417504
aF0.5508742160243819
aF0.530990321070181
aF0.5501675098583733
aF0.639776957263311
aF0.45302551113270234
aF0.5488474197411918
aF0.6547560396556489
aF0.43668904646890794
aF0.5905035947514276
aa(lp27
S'SPEA2SC-2500_100'
p28
aF0.6717151115483508
aF0.7104643554256509
aF0.607755955721475
aF0.6160946185870441
aF0.5831412989289575
aF0.6842731428571888
aF0.7193841926812734
aF0.679062538390758
aF0.7210897270692428
aF0.6475070571698182
aF0.6671262460574161
aF0.6333843902335543
aF0.6390612514760401
aF0.719140382864302
aF0.6659941395273177
aF0.7071814611413108
aF0.625207913371487
aF0.6226086202645104
aF0.6973357991302513
aF0.6441235397426534
aa(lp29
S'SPEA2SC-10000_100'
p30
aF0.6403813995848776
aF0.48631484416339127
aF0.6244811957357411
aF0.6344435223834165
aF0.7323133519855212
aF0.6667021881584952
aF0.6759787077172749
aF0.6338820186586709
aF0.5819232037775203
aF0.6428173958279614
aF0.6234190924686969
aF0.5767844420368043
aF0.6399229530132937
aF0.6235927330677586
aF0.6697839374653342
aF0.5843393890458516
aF0.6550466867679593
aF0.6652522507723883
aF0.6416116033623078
aF0.7877184574106696
aa(lp31
S'NSGAIISC-2500_100'
p32
aF0.5324465830890995
aF0.6199408915317166
aF0.5663153995414363
aF0.6665264399418761
aF0.6412669447225264
aF0.4577782154790545
aF0.6241825713742647
aF0.5594207585797809
aF0.45185403267568985
aF0.5740938141306362
aF0.5844982114192631
aF0.6974282818074741
aF0.4956390016964175
aF0.6474272530352166
aF0.6178174799053218
aF0.5199784092251857
aF0.5021216129154796
aF0.4738310461174389
aF0.6307855787095225
aF0.5273431544750374
aasS'HV'
p33
(lp34
(lp35
S'SPEA2_100'
p36
aF1121644.1111
aF1159678.8774
aF1110580.9489
aF1126826.709
aF1156474.6742
aF1162857.7795
aF1134407.0977
aF1113941.5085
aF1110241.2369
aF1132239.9907
aF1137851.7457
aF1144395.6122
aF1106561.2571
aF1171452.2201
aF1124692.4656
aF1132022.9175
aF1150622.4929
aF1133021.6543
aF1161319.491
aF1124217.8869
aa(lp37
S'SPEA2SC-1225_100'
p38
aF1170112.6951
aF1147717.5019
aF1106882.5963
aF1126074.7289
aF1095087.292
aF1085413.2532
aF1133939.18
aF1162426.6302
aF1165347.2493
aF1142760.6996
aF1125023.673
aF1134701.3011
aF1120519.0774
aF1169570.5139
aF1149796.0669
aF1164583.6386
aF1121165.6606
aF1161965.5469
aF1190482.5603
aF1116884.4784
aa(lp39
S'SWAY5_1225'
p40
aF694377.4109
aF682788.1924
aF712942.8817
aF897103.8468
aF601512.9781
aF715524.134
aF691508.0303
aF768075.4787
aF867968.0476
aF657614.7161
aF618446.8509
aF742212.8702
aF903399.2865
aF849641.1208
aF760966.6075
aF788595.0394
aF896833.4977
aF896617.5911
aF789618.5702
aF692336.2951
aa(lp41
S'SWAY5_5000'
p42
aF648315.4266
aF796211.2703
aF823814.3486
aF746510.3481
aF835097.2749
aF760004.7318
aF942810.835
aF851509.22
aF750064.4215
aF823650.7464
aF710509.1319
aF829244.1742
aF770407.5057
aF874066.2346
aF668982.9988
aF802233.3963
aF689879.3671
aF833313.4762
aF846348.2881
aF858357.1089
aa(lp43
S'NSGAIISC-5000_100'
p44
aF1119554.482
aF1128977.3214
aF1170849.0826
aF1137323.9054
aF1120321.5003
aF1136502.7401
aF1151993.8949
aF1118825.1452
aF1137065.2237
aF1138559.2486
aF1151999.2021
aF1099628.7632
aF1142853.2253
aF1137210.9322
aF1118690.5948
aF1124278.8719
aF1149361.786
aF1146011.5659
aF1107793.4458
aF1117539.0875
aa(lp45
S'SWAY5_2500'
p46
aF852343.735
aF768170.499
aF830983.0965
aF807554.7002
aF778812.0479
aF801122.205
aF773181.394
aF786242.6673
aF715449.0788
aF748667.3174
aF826383.2739
aF754570.9548
aF843633.1893
aF769731.3487
aF619303.3447
aF840200.3605
aF779079.1763
aF848264.5573
aF762699.7117
aF765196.5897
aa(lp47
S'NSGAIISC-1225_100'
p48
aF1163031.1297
aF1127414.4167
aF1141533.6678
aF1111136.6825
aF1179992.5419
aF1132377.0267
aF1127386.9187
aF1131352.9556
aF1151139.28
aF1157727.0158
aF1190017.632
aF1180112.2706
aF1139978.6104
aF1154600.1692
aF1108485.5187
aF1117585.5103
aF1103904.5237
aF1139032.138
aF1138238.9734
aF1128557.8524
aa(lp49
S'SPEA2SC-5000_100'
p50
aF1118868.7187
aF1145218.1767
aF1115017.3941
aF1132641.257
aF1124815.5105
aF1121493.4887
aF1153951.884
aF1088743.7255
aF1146482.0342
aF1123624.2962
aF1163806.8253
aF1106775.9252
aF1110751.0584
aF1090312.1503
aF1180328.5494
aF1122329.2159
aF1158000.1319
aF1155360.975
aF1147126.5091
aF1166948.0921
aa(lp51
S'SWAY5_10000'
p52
aF944700.6188
aF895930.4433
aF768944.017
aF887789.9706
aF858961.0747
aF793753.8651
aF843612.6291
aF745941.2373
aF732296.2765
aF661119.2341
aF749545.2318
aF889515.1218
aF858488.4764
aF789867.8984
aF898764.0151
aF870941.1411
aF942727.9607
aF860390.3779
aF803166.7128
aF942984.4481
aa(lp53
S'NSGAIISC-10000_100'
p54
aF1139393.657
aF1089962.4835
aF1120230.3363
aF1186622.7395
aF1121046.3903
aF1114120.988
aF1125788.1936
aF1095918.392
aF1146711.7719
aF1116179.2363
aF1112604.9785
aF1201689.7162
aF1129938.7269
aF1085718.3352
aF1202707.0894
aF1152069.2176
aF1137538.0154
aF1178567.1409
aF1121516.3418
aF1167754.564
aa(lp55
S'NSGAII_100'
p56
aF1154759.7886
aF1130282.7264
aF1158703.2702
aF1124365.9627
aF1137426.231
aF1201084.6393
aF1149314.4024
aF1100759.9905
aF1157664.0813
aF1153541.0901
aF1179918.4639
aF1140170.8562
aF1116884.2096
aF1144303.3321
aF1135984.4277
aF1140546.077
aF1156428.2845
aF1112475.8032
aF1141976.5476
aF1086130.889
aa(lp57
S'SPEA2SC-2500_100'
p58
aF1136741.0965
aF1171951.2508
aF1140433.1293
aF1144831.8388
aF1119198.0112
aF1136307.7762
aF1170594.8245
aF1214387.6513
aF1125659.0472
aF1133132.5701
aF1110210.0663
aF1183983.3018
aF1099985.0323
aF1103896.6626
aF1118418.0862
aF1146898.2683
aF1193778.9151
aF1164185.9723
aF1170359.2782
aF1124970.014
aa(lp59
S'SPEA2SC-10000_100'
p60
aF1147688.1596
aF1138169.7366
aF1153185.341
aF1158048.4941
aF1121930.3517
aF1159934.9436
aF1136744.3085
aF1116229.9058
aF1139681.1216
aF1115427.5759
aF1111099.6638
aF1198477.6972
aF1113126.9845
aF1217973.3516
aF1202381.1722
aF1122291.6215
aF1167862.302
aF1127209.5261
aF1124398.6122
aF1136749.504
aa(lp61
S'NSGAIISC-2500_100'
p62
aF1101961.5119
aF1137336.435
aF1130111.1339
aF1089045.768
aF1087893.044
aF1081634.7545
aF1161709.7823
aF1145260.4055
aF1131118.1233
aF1141583.9795
aF1134187.489
aF1139773.3116
aF1158994.0748
aF1110500.3707
aF1129993.1494
aF1084856.0921
aF1180238.2062
aF1110441.6589
aF1112011.5327
aF1118999.7824
aass.