(dp0
S'SWAY5_2500'
p1
(iGraphics.simplified_new
SolutionHolder
p2
(dp3
S'problem'
p4
S'POM3D'
p5
sS'repeats'
p6
(lp7
(iGraphics.simplified_new
Scores
p8
(dp9
S'pfs'
p10
I21
sS'spread'
p11
F0.5435734481132044
sS'hv'
p12
F1215185.9314
sS'igd'
p13
Nsba(iGraphics.simplified_new
Scores
p14
(dp15
g10
I26
sg11
F0.6541252105933854
sg12
F1181473.5869
sg13
Nsba(iGraphics.simplified_new
Scores
p16
(dp17
g10
I39
sg11
F0.4971020224461958
sg12
F1228710.1762
sg13
Nsba(iGraphics.simplified_new
Scores
p18
(dp19
g10
I44
sg11
F0.5062483779938068
sg12
F1188744.5887
sg13
Nsba(iGraphics.simplified_new
Scores
p20
(dp21
g10
I19
sg11
F0.5831187766226111
sg12
F1273400.5302
sg13
Nsba(iGraphics.simplified_new
Scores
p22
(dp23
g10
I36
sg11
F0.5151978117009827
sg12
F1224174.2821
sg13
Nsba(iGraphics.simplified_new
Scores
p24
(dp25
g10
I31
sg11
F0.5038109439803762
sg12
F1221678.3101
sg13
Nsba(iGraphics.simplified_new
Scores
p26
(dp27
g10
I39
sg11
F0.4398671909567491
sg12
F1124399.4628
sg13
Nsba(iGraphics.simplified_new
Scores
p28
(dp29
g10
I45
sg11
F0.5357251760519267
sg12
F1212001.8191
sg13
Nsba(iGraphics.simplified_new
Scores
p30
(dp31
g10
I29
sg11
F0.56876558263676
sg12
F1168785.9324
sg13
Nsba(iGraphics.simplified_new
Scores
p32
(dp33
g10
I30
sg11
F0.5452140568889072
sg12
F1228814.2277
sg13
Nsba(iGraphics.simplified_new
Scores
p34
(dp35
g10
I44
sg11
F0.5108319029314958
sg12
F1205344.605
sg13
Nsba(iGraphics.simplified_new
Scores
p36
(dp37
g10
I39
sg11
F0.5968852788172122
sg12
F1196700.2389
sg13
Nsba(iGraphics.simplified_new
Scores
p38
(dp39
g10
I28
sg11
F0.5103844581429445
sg12
F1199337.8666
sg13
Nsba(iGraphics.simplified_new
Scores
p40
(dp41
g10
I26
sg11
F0.406120283291997
sg12
F1152253.771
sg13
Nsba(iGraphics.simplified_new
Scores
p42
(dp43
g10
I30
sg11
F0.6666059618353329
sg12
F1217191.8206
sg13
Nsba(iGraphics.simplified_new
Scores
p44
(dp45
g10
I39
sg11
F0.6094041434739325
sg12
F1227105.104
sg13
Nsba(iGraphics.simplified_new
Scores
p46
(dp47
g10
I30
sg11
F0.5317068274039278
sg12
F1215740.247
sg13
Nsba(iGraphics.simplified_new
Scores
p48
(dp49
g10
I36
sg11
F0.5359128147324135
sg12
F1197844.6649
sg13
Nsba(iGraphics.simplified_new
Scores
p50
(dp51
g10
I33
sg11
F0.5551730456799367
sg12
F1218692.8038
sg13
NsbasS'algorithm'
p52
S'SWAY5'
p53
sbsS'SWAY5_10000'
p54
(iGraphics.simplified_new
SolutionHolder
p55
(dp56
g4
g5
sg6
(lp57
(iGraphics.simplified_new
Scores
p58
(dp59
g10
I78
sg11
F0.5004236645554733
sg12
F1211035.2761
sg13
Nsba(iGraphics.simplified_new
Scores
p60
(dp61
g10
I73
sg11
F0.5229141361188263
sg12
F1224910.9342
sg13
Nsba(iGraphics.simplified_new
Scores
p62
(dp63
g10
I38
sg11
F0.5277211661399324
sg12
F1223589.7228
sg13
Nsba(iGraphics.simplified_new
Scores
p64
(dp65
g10
I78
sg11
F0.5212356223006991
sg12
F1228588.5119
sg13
Nsba(iGraphics.simplified_new
Scores
p66
(dp67
g10
I58
sg11
F0.5409621890830785
sg12
F1186506.6711
sg13
Nsba(iGraphics.simplified_new
Scores
p68
(dp69
g10
I88
sg11
F0.5088083628454085
sg12
F1125074.82
sg13
Nsba(iGraphics.simplified_new
Scores
p70
(dp71
g10
I78
sg11
F0.4801575118909398
sg12
F1205410.5949
sg13
Nsba(iGraphics.simplified_new
Scores
p72
(dp73
g10
I58
sg11
F0.48136083442645533
sg12
F1207224.5746
sg13
Nsba(iGraphics.simplified_new
Scores
p74
(dp75
g10
I78
sg11
F0.5281334813980343
sg12
F1230009.0381
sg13
Nsba(iGraphics.simplified_new
Scores
p76
(dp77
g10
I36
sg11
F0.5340731134030707
sg12
F1212352.485
sg13
Nsba(iGraphics.simplified_new
Scores
p78
(dp79
g10
I28
sg11
F0.5426084906796061
sg12
F1099029.5807
sg13
Nsba(iGraphics.simplified_new
Scores
p80
(dp81
g10
I27
sg11
F0.5169341196251109
sg12
F1224231.8677
sg13
Nsba(iGraphics.simplified_new
Scores
p82
(dp83
g10
I88
sg11
F0.409730360527388
sg12
F1226388.751
sg13
Nsba(iGraphics.simplified_new
Scores
p84
(dp85
g10
I52
sg11
F0.44296822190052193
sg12
F1169108.6961
sg13
Nsba(iGraphics.simplified_new
Scores
p86
(dp87
g10
I99
sg11
F0.5273930209484555
sg12
F1209663.143
sg13
Nsba(iGraphics.simplified_new
Scores
p88
(dp89
g10
I93
sg11
F0.42236690454607884
sg12
F1201107.9
sg13
Nsba(iGraphics.simplified_new
Scores
p90
(dp91
g10
I73
sg11
F0.4601950201749433
sg12
F1192697.8663
sg13
Nsba(iGraphics.simplified_new
Scores
p92
(dp93
g10
I58
sg11
F0.550020070200206
sg12
F1160475.7826
sg13
Nsba(iGraphics.simplified_new
Scores
p94
(dp95
g10
I78
sg11
F0.4437751040239054
sg12
F1295103.6966
sg13
Nsba(iGraphics.simplified_new
Scores
p96
(dp97
g10
I66
sg11
F0.5262333318035354
sg12
F1211148.2925
sg13
Nsbasg52
S'SWAY5'
p98
sbsS'SWAY5_1225'
p99
(iGraphics.simplified_new
SolutionHolder
p100
(dp101
g4
g5
sg6
(lp102
(iGraphics.simplified_new
Scores
p103
(dp104
g10
I25
sg11
F0.5216980911290277
sg12
F1171725.6752
sg13
Nsba(iGraphics.simplified_new
Scores
p105
(dp106
g10
I21
sg11
F0.5483782763570271
sg12
F1139754.1278
sg13
Nsba(iGraphics.simplified_new
Scores
p107
(dp108
g10
I28
sg11
F0.5359527966186746
sg12
F1175983.3368
sg13
Nsba(iGraphics.simplified_new
Scores
p109
(dp110
g10
I32
sg11
F0.5321400991811331
sg12
F1166721.9844
sg13
Nsba(iGraphics.simplified_new
Scores
p111
(dp112
g10
I19
sg11
F0.5380997255633807
sg12
F1127592.3288
sg13
Nsba(iGraphics.simplified_new
Scores
p113
(dp114
g10
I19
sg11
F0.5613877816581426
sg12
F1030266.4655
sg13
Nsba(iGraphics.simplified_new
Scores
p115
(dp116
g10
I29
sg11
F0.642746552488165
sg12
F1157014.4841
sg13
Nsba(iGraphics.simplified_new
Scores
p117
(dp118
g10
I19
sg11
F0.5690379291478526
sg12
F1099542.3052
sg13
Nsba(iGraphics.simplified_new
Scores
p119
(dp120
g10
I33
sg11
F0.5694077959406568
sg12
F1157435.6275
sg13
Nsba(iGraphics.simplified_new
Scores
p121
(dp122
g10
I28
sg11
F0.5639070210400944
sg12
F1176485.8793
sg13
Nsba(iGraphics.simplified_new
Scores
p123
(dp124
g10
I19
sg11
F0.7192202502081687
sg12
F1170880.7345
sg13
Nsba(iGraphics.simplified_new
Scores
p125
(dp126
g10
I28
sg11
F0.5760949368525691
sg12
F1207615.3749
sg13
Nsba(iGraphics.simplified_new
Scores
p127
(dp128
g10
I21
sg11
F0.5464543781499419
sg12
F1216337.5984
sg13
Nsba(iGraphics.simplified_new
Scores
p129
(dp130
g10
I28
sg11
F0.6436824737941098
sg12
F1217458.7609
sg13
Nsba(iGraphics.simplified_new
Scores
p131
(dp132
g10
I29
sg11
F0.5187448227756178
sg12
F1164178.7132
sg13
Nsba(iGraphics.simplified_new
Scores
p133
(dp134
g10
I19
sg11
F0.5807634691774604
sg12
F1180364.2048
sg13
Nsba(iGraphics.simplified_new
Scores
p135
(dp136
g10
I19
sg11
F0.589066901651304
sg12
F1194418.3858
sg13
Nsba(iGraphics.simplified_new
Scores
p137
(dp138
g10
I19
sg11
F0.5784242753393574
sg12
F1141881.8148
sg13
Nsba(iGraphics.simplified_new
Scores
p139
(dp140
g10
I28
sg11
F0.557812573216189
sg12
F1137557.3265
sg13
Nsba(iGraphics.simplified_new
Scores
p141
(dp142
g10
I19
sg11
F0.7111699908333762
sg12
F1195789.1132
sg13
Nsbasg52
S'SWAY5'
p143
sbsS'SWAY5_5000'
p144
(iGraphics.simplified_new
SolutionHolder
p145
(dp146
g4
g5
sg6
(lp147
(iGraphics.simplified_new
Scores
p148
(dp149
g10
I68
sg11
F0.44963887024330607
sg12
F1159149.0179
sg13
Nsba(iGraphics.simplified_new
Scores
p150
(dp151
g10
I59
sg11
F0.5666125836750306
sg12
F1231357.6418
sg13
Nsba(iGraphics.simplified_new
Scores
p152
(dp153
g10
I66
sg11
F0.5615409898977428
sg12
F1184255.3862
sg13
Nsba(iGraphics.simplified_new
Scores
p154
(dp155
g10
I39
sg11
F0.5439910395806933
sg12
F1203971.322
sg13
Nsba(iGraphics.simplified_new
Scores
p156
(dp157
g10
I37
sg11
F0.5412757180245805
sg12
F1084795.6457
sg13
Nsba(iGraphics.simplified_new
Scores
p158
(dp159
g10
I39
sg11
F0.5640677712794716
sg12
F1216859.2213
sg13
Nsba(iGraphics.simplified_new
Scores
p160
(dp161
g10
I36
sg11
F0.5882454604372255
sg12
F1221445.1708
sg13
Nsba(iGraphics.simplified_new
Scores
p162
(dp163
g10
I62
sg11
F0.49869036682495804
sg12
F1216152.4607
sg13
Nsba(iGraphics.simplified_new
Scores
p164
(dp165
g10
I57
sg11
F0.5281886011458502
sg12
F1204810.2084
sg13
Nsba(iGraphics.simplified_new
Scores
p166
(dp167
g10
I59
sg11
F0.51353253912482
sg12
F1169762.0829
sg13
Nsba(iGraphics.simplified_new
Scores
p168
(dp169
g10
I58
sg11
F0.4627697800235153
sg12
F1167536.7653
sg13
Nsba(iGraphics.simplified_new
Scores
p170
(dp171
g10
I68
sg11
F0.619861490563645
sg12
F1199366.5183
sg13
Nsba(iGraphics.simplified_new
Scores
p172
(dp173
g10
I58
sg11
F0.4682483598108838
sg12
F1086981.2245
sg13
Nsba(iGraphics.simplified_new
Scores
p174
(dp175
g10
I58
sg11
F0.5187344098513752
sg12
F1200868.6437
sg13
Nsba(iGraphics.simplified_new
Scores
p176
(dp177
g10
I39
sg11
F0.6132141844123514
sg12
F1089964.7457
sg13
Nsba(iGraphics.simplified_new
Scores
p178
(dp179
g10
I39
sg11
F0.5792289237716011
sg12
F1314326.7192
sg13
Nsba(iGraphics.simplified_new
Scores
p180
(dp181
g10
I44
sg11
F0.515108177492218
sg12
F1192218.9216
sg13
Nsba(iGraphics.simplified_new
Scores
p182
(dp183
g10
I34
sg11
F0.48756624835389745
sg12
F1198510.6245
sg13
Nsba(iGraphics.simplified_new
Scores
p184
(dp185
g10
I66
sg11
F0.5633760811571162
sg12
F1176518.5284
sg13
Nsba(iGraphics.simplified_new
Scores
p186
(dp187
g10
I44
sg11
F0.561548386287252
sg12
F1164729.0425
sg13
Nsbasg52
S'SWAY5'
p188
sbs.