(dp0
S'SPEA2_100'
p1
(iGraphics.simplified_new
SolutionHolder
p2
(dp3
S'problem'
p4
S'POM3C'
p5
sS'repeats'
p6
(lp7
(iGraphics.simplified_new
Scores
p8
(dp9
S'pfs'
p10
I100
sS'spread'
p11
F0.5660121691305323
sS'hv'
p12
F1131655.0513
sS'igd'
p13
Nsba(iGraphics.simplified_new
Scores
p14
(dp15
g10
I100
sg11
F0.7039194952186839
sg12
F1170419.8455
sg13
Nsba(iGraphics.simplified_new
Scores
p16
(dp17
g10
I100
sg11
F0.6462701819938071
sg12
F1120544.3112
sg13
Nsba(iGraphics.simplified_new
Scores
p18
(dp19
g10
I100
sg11
F0.5854231119393286
sg12
F1136629.3253
sg13
Nsba(iGraphics.simplified_new
Scores
p20
(dp21
g10
I100
sg11
F0.6271019555149709
sg12
F1165880.1806
sg13
Nsba(iGraphics.simplified_new
Scores
p22
(dp23
g10
I100
sg11
F0.6740293653770337
sg12
F1173149.4183
sg13
Nsba(iGraphics.simplified_new
Scores
p24
(dp25
g10
I100
sg11
F0.6186272362312802
sg12
F1143995.2137
sg13
Nsba(iGraphics.simplified_new
Scores
p26
(dp27
g10
I100
sg11
F0.6168532465772226
sg12
F1123434.3153
sg13
Nsba(iGraphics.simplified_new
Scores
p28
(dp29
g10
I100
sg11
F0.5944613388255329
sg12
F1120287.0596
sg13
Nsba(iGraphics.simplified_new
Scores
p30
(dp31
g10
I100
sg11
F0.6097106581300367
sg12
F1142681.5841
sg13
Nsba(iGraphics.simplified_new
Scores
p32
(dp33
g10
I100
sg11
F0.6717782657448352
sg12
F1147687.8232
sg13
Nsba(iGraphics.simplified_new
Scores
p34
(dp35
g10
I100
sg11
F0.6113504775574808
sg12
F1154696.3832
sg13
Nsba(iGraphics.simplified_new
Scores
p36
(dp37
g10
I100
sg11
F0.7276770605548163
sg12
F1115706.3046
sg13
Nsba(iGraphics.simplified_new
Scores
p38
(dp39
g10
I100
sg11
F0.6883774128201822
sg12
F1182375.0068
sg13
Nsba(iGraphics.simplified_new
Scores
p40
(dp41
g10
I100
sg11
F0.6366601802404814
sg12
F1134697.3738
sg13
Nsba(iGraphics.simplified_new
Scores
p42
(dp43
g10
I100
sg11
F0.743208753579876
sg12
F1141953.5968
sg13
Nsba(iGraphics.simplified_new
Scores
p44
(dp45
g10
I100
sg11
F0.6323224694848603
sg12
F1160605.1984
sg13
Nsba(iGraphics.simplified_new
Scores
p46
(dp47
g10
I100
sg11
F0.6670267989415496
sg12
F1142711.9855
sg13
Nsba(iGraphics.simplified_new
Scores
p48
(dp49
g10
I100
sg11
F0.593679180538378
sg12
F1171641.9317
sg13
Nsba(iGraphics.simplified_new
Scores
p50
(dp51
g10
I100
sg11
F0.6460944867370955
sg12
F1134006.2149
sg13
NsbasS'algorithm'
p52
S'SPEA2'
p53
sbsS'SWAY5_1225'
p54
(iGraphics.simplified_new
SolutionHolder
p55
(dp56
g4
g5
sg6
(lp57
(iGraphics.simplified_new
Scores
p58
(dp59
g10
I19
sg11
F0.418342703018321
sg12
F693915.8019
sg13
Nsba(iGraphics.simplified_new
Scores
p60
(dp61
g10
I21
sg11
F0.47173055797714347
sg12
F684274.698
sg13
Nsba(iGraphics.simplified_new
Scores
p62
(dp63
g10
I19
sg11
F0.3951410265581956
sg12
F714558.9037
sg13
Nsba(iGraphics.simplified_new
Scores
p64
(dp65
g10
I31
sg11
F0.4256566038479625
sg12
F901837.7054
sg13
Nsba(iGraphics.simplified_new
Scores
p66
(dp67
g10
I19
sg11
F0.5473653465573973
sg12
F601769.8693
sg13
Nsba(iGraphics.simplified_new
Scores
p68
(dp69
g10
I19
sg11
F0.49209542211039337
sg12
F716731.8452
sg13
Nsba(iGraphics.simplified_new
Scores
p70
(dp71
g10
I20
sg11
F0.4789886822286028
sg12
F691396.6507
sg13
Nsba(iGraphics.simplified_new
Scores
p72
(dp73
g10
I25
sg11
F0.5300089889516868
sg12
F772258.3678
sg13
Nsba(iGraphics.simplified_new
Scores
p74
(dp75
g10
I28
sg11
F0.40825401221708935
sg12
F872254.6624
sg13
Nsba(iGraphics.simplified_new
Scores
p76
(dp77
g10
I29
sg11
F0.4152722776934743
sg12
F660344.3105
sg13
Nsba(iGraphics.simplified_new
Scores
p78
(dp79
g10
I19
sg11
F0.40576137915747146
sg12
F617421.8876
sg13
Nsba(iGraphics.simplified_new
Scores
p80
(dp81
g10
I17
sg11
F0.49697401447052486
sg12
F743986.9044
sg13
Nsba(iGraphics.simplified_new
Scores
p82
(dp83
g10
I19
sg11
F0.6004819113342805
sg12
F909314.1753
sg13
Nsba(iGraphics.simplified_new
Scores
p84
(dp85
g10
I29
sg11
F0.47698318707808973
sg12
F855039.2177
sg13
Nsba(iGraphics.simplified_new
Scores
p86
(dp87
g10
I18
sg11
F0.5443186993350776
sg12
F764361.0948
sg13
Nsba(iGraphics.simplified_new
Scores
p88
(dp89
g10
I23
sg11
F0.5733645445062312
sg12
F789460.9616
sg13
Nsba(iGraphics.simplified_new
Scores
p90
(dp91
g10
I19
sg11
F0.44912995868635636
sg12
F901207.7754
sg13
Nsba(iGraphics.simplified_new
Scores
p92
(dp93
g10
I28
sg11
F0.4512230605503663
sg12
F900233.9469
sg13
Nsba(iGraphics.simplified_new
Scores
p94
(dp95
g10
I32
sg11
F0.5321200127512001
sg12
F792840.1011
sg13
Nsba(iGraphics.simplified_new
Scores
p96
(dp97
g10
I24
sg11
F0.3865162558275018
sg12
F693696.5347
sg13
Nsbasg52
S'SWAY5'
p98
sbsS'SWAY5_5000'
p99
(iGraphics.simplified_new
SolutionHolder
p100
(dp101
g4
g5
sg6
(lp102
(iGraphics.simplified_new
Scores
p103
(dp104
g10
I68
sg11
F0.43449466512649176
sg12
F649924.5301
sg13
Nsba(iGraphics.simplified_new
Scores
p105
(dp106
g10
I39
sg11
F0.44787684199101935
sg12
F799155.98
sg13
Nsba(iGraphics.simplified_new
Scores
p107
(dp108
g10
I51
sg11
F0.5228767512715768
sg12
F828290.2069
sg13
Nsba(iGraphics.simplified_new
Scores
p109
(dp110
g10
I58
sg11
F0.4865267521987436
sg12
F749086.1651
sg13
Nsba(iGraphics.simplified_new
Scores
p111
(dp112
g10
I29
sg11
F0.41042644782599613
sg12
F835453.8112
sg13
Nsba(iGraphics.simplified_new
Scores
p113
(dp114
g10
I22
sg11
F0.48463345426812093
sg12
F760498.2314
sg13
Nsba(iGraphics.simplified_new
Scores
p115
(dp116
g10
I59
sg11
F0.47122822501537115
sg12
F948525.5242
sg13
Nsba(iGraphics.simplified_new
Scores
p117
(dp118
g10
I19
sg11
F0.5152343909085776
sg12
F856483.6451
sg13
Nsba(iGraphics.simplified_new
Scores
p119
(dp120
g10
I39
sg11
F0.4524739978671755
sg12
F754453.3086
sg13
Nsba(iGraphics.simplified_new
Scores
p121
(dp122
g10
I39
sg11
F0.453668118990452
sg12
F827849.3829
sg13
Nsba(iGraphics.simplified_new
Scores
p123
(dp124
g10
I39
sg11
F0.38987883991783706
sg12
F711905.0851
sg13
Nsba(iGraphics.simplified_new
Scores
p125
(dp126
g10
I29
sg11
F0.42173511421460996
sg12
F833218.9722
sg13
Nsba(iGraphics.simplified_new
Scores
p127
(dp128
g10
I38
sg11
F0.45593616994821234
sg12
F775293.8732
sg13
Nsba(iGraphics.simplified_new
Scores
p129
(dp130
g10
I39
sg11
F0.5035441397784302
sg12
F878006.0275
sg13
Nsba(iGraphics.simplified_new
Scores
p131
(dp132
g10
I39
sg11
F0.5153067635595705
sg12
F672695.0359
sg13
Nsba(iGraphics.simplified_new
Scores
p133
(dp134
g10
I58
sg11
F0.40647715747525587
sg12
F805960.6459
sg13
Nsba(iGraphics.simplified_new
Scores
p135
(dp136
g10
I61
sg11
F0.3902879213087743
sg12
F689916.0344
sg13
Nsba(iGraphics.simplified_new
Scores
p137
(dp138
g10
I59
sg11
F0.47894987139830464
sg12
F836669.1975
sg13
Nsba(iGraphics.simplified_new
Scores
p139
(dp140
g10
I51
sg11
F0.4275956719175438
sg12
F850641.5641
sg13
Nsba(iGraphics.simplified_new
Scores
p141
(dp142
g10
I19
sg11
F0.5649117856429942
sg12
F863326.8583
sg13
Nsbasg52
S'SWAY5'
p143
sbsS'SWAY5_2500'
p144
(iGraphics.simplified_new
SolutionHolder
p145
(dp146
g4
g5
sg6
(lp147
(iGraphics.simplified_new
Scores
p148
(dp149
g10
I33
sg11
F0.4037748707237287
sg12
F853837.5083
sg13
Nsba(iGraphics.simplified_new
Scores
p150
(dp151
g10
I30
sg11
F0.5496640775977939
sg12
F771645.3326
sg13
Nsba(iGraphics.simplified_new
Scores
p152
(dp153
g10
I29
sg11
F0.5217124712703719
sg12
F835612.1405
sg13
Nsba(iGraphics.simplified_new
Scores
p154
(dp155
g10
I44
sg11
F0.5079806706144797
sg12
F811048.8731
sg13
Nsba(iGraphics.simplified_new
Scores
p156
(dp157
g10
I25
sg11
F0.5389564403845061
sg12
F780419.5216
sg13
Nsba(iGraphics.simplified_new
Scores
p158
(dp159
g10
I17
sg11
F0.4987015722182152
sg12
F801573.404
sg13
Nsba(iGraphics.simplified_new
Scores
p160
(dp161
g10
I29
sg11
F0.5208976687733571
sg12
F776944.8547
sg13
Nsba(iGraphics.simplified_new
Scores
p162
(dp163
g10
I26
sg11
F0.43161274239548775
sg12
F790567.2872
sg13
Nsba(iGraphics.simplified_new
Scores
p164
(dp165
g10
I45
sg11
F0.47981520230421637
sg12
F715183.1902
sg13
Nsba(iGraphics.simplified_new
Scores
p166
(dp167
g10
I29
sg11
F0.44348252112535197
sg12
F753120.4974
sg13
Nsba(iGraphics.simplified_new
Scores
p168
(dp169
g10
I37
sg11
F0.4849431102459521
sg12
F829275.6679
sg13
Nsba(iGraphics.simplified_new
Scores
p170
(dp171
g10
I39
sg11
F0.46232904939929564
sg12
F756518.3102
sg13
Nsba(iGraphics.simplified_new
Scores
p172
(dp173
g10
I19
sg11
F0.5606443653944799
sg12
F848937.37
sg13
Nsba(iGraphics.simplified_new
Scores
p174
(dp175
g10
I36
sg11
F0.4120105250926094
sg12
F772370.0851
sg13
Nsba(iGraphics.simplified_new
Scores
p176
(dp177
g10
I39
sg11
F0.4454878964296557
sg12
F618820.8728
sg13
Nsba(iGraphics.simplified_new
Scores
p178
(dp179
g10
I44
sg11
F0.4999499029872425
sg12
F845467.1776
sg13
Nsba(iGraphics.simplified_new
Scores
p180
(dp181
g10
I44
sg11
F0.42753409050949537
sg12
F782962.2744
sg13
Nsba(iGraphics.simplified_new
Scores
p182
(dp183
g10
I39
sg11
F0.4942690269019699
sg12
F852042.2401
sg13
Nsba(iGraphics.simplified_new
Scores
p184
(dp185
g10
I29
sg11
F0.583268994339485
sg12
F764309.6468
sg13
Nsba(iGraphics.simplified_new
Scores
p186
(dp187
g10
I33
sg11
F0.4448367363175263
sg12
F765582.3979
sg13
Nsbasg52
S'SWAY5'
p188
sbsS'SWAY5_10000'
p189
(iGraphics.simplified_new
SolutionHolder
p190
(dp191
g4
g5
sg6
(lp192
(iGraphics.simplified_new
Scores
p193
(dp194
g10
I87
sg11
F0.4499488915008872
sg12
F951850.1578
sg13
Nsba(iGraphics.simplified_new
Scores
p195
(dp196
g10
I58
sg11
F0.406232375033066
sg12
F902635.9368
sg13
Nsba(iGraphics.simplified_new
Scores
p197
(dp198
g10
I25
sg11
F0.577683533426106
sg12
F771979.7101
sg13
Nsba(iGraphics.simplified_new
Scores
p199
(dp200
g10
I59
sg11
F0.5148048273407454
sg12
F892994.4113
sg13
Nsba(iGraphics.simplified_new
Scores
p201
(dp202
g10
I49
sg11
F0.44586385809711193
sg12
F864095.2411
sg13
Nsba(iGraphics.simplified_new
Scores
p203
(dp204
g10
I68
sg11
F0.41978093910559966
sg12
F795392.8087
sg13
Nsba(iGraphics.simplified_new
Scores
p205
(dp206
g10
I48
sg11
F0.4548710247366636
sg12
F848364.8986
sg13
Nsba(iGraphics.simplified_new
Scores
p207
(dp208
g10
I78
sg11
F0.4991133077524548
sg12
F749563.2324
sg13
Nsba(iGraphics.simplified_new
Scores
p209
(dp210
g10
I64
sg11
F0.42539257300941696
sg12
F736777.525
sg13
Nsba(iGraphics.simplified_new
Scores
p211
(dp212
g10
I29
sg11
F0.49520887533437513
sg12
F664489.606
sg13
Nsba(iGraphics.simplified_new
Scores
p213
(dp214
g10
I29
sg11
F0.5286718846131557
sg12
F754232.6253
sg13
Nsba(iGraphics.simplified_new
Scores
p215
(dp216
g10
I62
sg11
F0.4160433439072896
sg12
F895021.3927
sg13
Nsba(iGraphics.simplified_new
Scores
p217
(dp218
g10
I68
sg11
F0.5914037580342338
sg12
F861866.9029
sg13
Nsba(iGraphics.simplified_new
Scores
p219
(dp220
g10
I68
sg11
F0.4185317163480063
sg12
F793938.3885
sg13
Nsba(iGraphics.simplified_new
Scores
p221
(dp222
g10
I62
sg11
F0.41021285804062524
sg12
F902314.23
sg13
Nsba(iGraphics.simplified_new
Scores
p223
(dp224
g10
I51
sg11
F0.4313711340029458
sg12
F875795.7993
sg13
Nsba(iGraphics.simplified_new
Scores
p225
(dp226
g10
I78
sg11
F0.42817905220937463
sg12
F950089.814
sg13
Nsba(iGraphics.simplified_new
Scores
p227
(dp228
g10
I99
sg11
F0.42624535045859824
sg12
F863856.8794
sg13
Nsba(iGraphics.simplified_new
Scores
p229
(dp230
g10
I60
sg11
F0.5651937472567811
sg12
F808197.1335
sg13
Nsba(iGraphics.simplified_new
Scores
p231
(dp232
g10
I78
sg11
F0.4731981701019836
sg12
F948217.9499
sg13
Nsbasg52
S'SWAY5'
p233
sbsS'NSGAII_100'
p234
(iGraphics.simplified_new
SolutionHolder
p235
(dp236
g4
g5
sg6
(lp237
(iGraphics.simplified_new
Scores
p238
(dp239
g10
I100
sg11
F0.5167430332905114
sg12
F1164571.5413
sg13
Nsba(iGraphics.simplified_new
Scores
p240
(dp241
g10
I100
sg11
F0.5248807097803725
sg12
F1140555.8303
sg13
Nsba(iGraphics.simplified_new
Scores
p242
(dp243
g10
I100
sg11
F0.613583897046947
sg12
F1169184.5874
sg13
Nsba(iGraphics.simplified_new
Scores
p244
(dp245
g10
I100
sg11
F0.6497218149359896
sg12
F1134524.4896
sg13
Nsba(iGraphics.simplified_new
Scores
p246
(dp247
g10
I100
sg11
F0.6486484251196001
sg12
F1147388.7608
sg13
Nsba(iGraphics.simplified_new
Scores
p248
(dp249
g10
I100
sg11
F0.5942611466837442
sg12
F1212148.3123
sg13
Nsba(iGraphics.simplified_new
Scores
p250
(dp251
g10
I100
sg11
F0.6724395088820592
sg12
F1159477.8911
sg13
Nsba(iGraphics.simplified_new
Scores
p252
(dp253
g10
I100
sg11
F0.7365865118796983
sg12
F1111097.3176
sg13
Nsba(iGraphics.simplified_new
Scores
p254
(dp255
g10
I100
sg11
F0.586072637663404
sg12
F1168057.5305
sg13
Nsba(iGraphics.simplified_new
Scores
p256
(dp257
g10
I100
sg11
F0.6284274507771631
sg12
F1164391.9328
sg13
Nsba(iGraphics.simplified_new
Scores
p258
(dp259
g10
I100
sg11
F0.5405128942208125
sg12
F1190651.2051
sg13
Nsba(iGraphics.simplified_new
Scores
p260
(dp261
g10
I100
sg11
F0.5535656669169747
sg12
F1150236.7145
sg13
Nsba(iGraphics.simplified_new
Scores
p262
(dp263
g10
I100
sg11
F0.533061855089647
sg12
F1126990.3068
sg13
Nsba(iGraphics.simplified_new
Scores
p264
(dp265
g10
I100
sg11
F0.5490358957090128
sg12
F1155117.5557
sg13
Nsba(iGraphics.simplified_new
Scores
p266
(dp267
g10
I100
sg11
F0.6429302087399936
sg12
F1146151.3887
sg13
Nsba(iGraphics.simplified_new
Scores
p268
(dp269
g10
I100
sg11
F0.4577380924170867
sg12
F1150143.9962
sg13
Nsba(iGraphics.simplified_new
Scores
p270
(dp271
g10
I100
sg11
F0.5487825756242195
sg12
F1166479.5889
sg13
Nsba(iGraphics.simplified_new
Scores
p272
(dp273
g10
I100
sg11
F0.6562090888459423
sg12
F1122389.486
sg13
Nsba(iGraphics.simplified_new
Scores
p274
(dp275
g10
I100
sg11
F0.44553451392961385
sg12
F1152170.4301
sg13
Nsba(iGraphics.simplified_new
Scores
p276
(dp277
g10
I100
sg11
F0.585159154920892
sg12
F1095035.4543
sg13
Nsbasg52
S'NSGAII'
p278
sbs.