(dp0
S'POM3A'
p1
(dp2
S'Spread'
p3
(lp4
(lp5
S'NSGAII_100'
p6
aF0.6594702116958765
aF0.5906282762320101
aF0.7083506022147574
aF0.6555938835070214
aF0.6323417334181829
aF0.6799822821980281
aF0.6394478436061863
aF0.6742246168443633
aF0.6270132538674165
aF0.6436765875825657
aF0.6415392074946923
aF0.5833105668006764
aF0.7525025054356933
aF0.6734521704373431
aF0.6899001149415673
aF0.6604066992683523
aF0.7082781306063466
aF0.6191236122453926
aF0.6796972479908588
aF0.6935806523866762
aasS'HV'
p7
(lp8
(lp9
S'NSGAII_100'
p10
aF1312337.74
aF1321854.2096
aF1314958.884
aF1312159.041
aF1316500.8151
aF1310617.5347
aF1317489.9574
aF1312732.2308
aF1317346.6306
aF1329805.7934
aF1317128.4349
aF1320489.7217
aF1313473.8327
aF1312140.1825
aF1319976.1933
aF1317806.6629
aF1322559.8579
aF1314599.6449
aF1310866.5928
aF1320328.9717
aass.