(dp0
S'POM3B(S)'
p1
(dp2
S'Spread'
p3
(lp4
(lp5
S'NSGAII_100'
p6
aF0.6071488558989713
aF0.6851112835487851
aF0.642960085078799
aF0.6829888966985764
aF0.6651157261781911
aF0.5671834006198716
aF0.8142645570601067
aF0.5283584803338793
aF0.5713688339176134
aF0.6540438997167353
aF0.6887784634698291
aF0.6557611630714497
aF0.6521633808655468
aF0.6714144818187068
aF0.6676996477904598
aF0.6541454371961335
aF0.6388546853025147
aF0.6834613518494521
aF0.6015077007414495
aF0.5981987059868601
aF0.5856149942296692
aa(lp7
S'SWAY5_10000'
p8
aF0.35739793483800786
aF0.39544824710183796
aF0.541042308231141
aF0.4490756294104398
aF0.47715395734999255
aF0.43448629871882466
aF0.40976272320449736
aF0.5003257118711719
aF0.4412052279501468
aF0.5043669794948431
aF0.4118365986687123
aF0.45762282547712346
aF0.47846062698347686
aF0.4864115467710252
aF0.42520724441330765
aF0.4630260427238671
aF0.4662858259253055
aF0.4573168045830348
aF0.3914998507678542
aF0.4590292249030608
aF0.4722205778524916
aa(lp9
S'SPEA2_100'
p10
aF0.5717260053046845
aF0.568552640235919
aF0.5904635331780482
aF0.6424329285134245
aF0.5650103699442276
aF0.6228623837216708
aF0.6049365226197297
aF0.5782217876093941
aF0.5084427826076474
aF0.5901318065556861
aF0.5463874183501533
aF0.6260347412079228
aF0.627327627157936
aF0.6456409554362994
aF0.5811358849664199
aF0.5744683836670292
aF0.6274352991169941
aF0.5665955095817861
aF0.5908430675974606
aF0.5750560821236076
aF0.6536591559253613
aasS'HV'
p11
(lp12
(lp13
S'NSGAII_100'
p14
aF1290057.7319
aF1316165.3768
aF1242927.4024
aF1277499.3475
aF1274633.3425
aF1223782.53
aF1225041.9807
aF1227716.9985
aF1265066.1121
aF1229510.2612
aF1240177.8176
aF1239784.35
aF1235288.0124
aF1227679.5554
aF1239029.1193
aF1220882.3059
aF1264023.0594
aF1224356.3591
aF1277602.5276
aF1246470.3659
aF1264235.769
aa(lp15
S'SWAY5_10000'
p16
aF1070659.3901
aF781086.86
aF886211.3285
aF834945.9094
aF1003997.3351
aF877872.2067
aF956539.8133
aF779969.1663
aF832898.3201
aF729063.4024
aF875265.6737
aF987186.8307
aF1038817.117
aF1069607.6366
aF897833.9402
aF973495.7141
aF779662.8058
aF856822.4423
aF978568.6738
aF830503.3848
aF964294.0845
aa(lp17
S'SPEA2_100'
p18
aF1244549.4841
aF1255758.0116
aF1280133.9334
aF1318886.211
aF1218843.4457
aF1239882.1029
aF1220927.3994
aF1221062.4389
aF1230492.0746
aF1263205.2544
aF1236637.6668
aF1278299.5394
aF1235623.4779
aF1261627.7837
aF1218239.6027
aF1310097.1066
aF1255414.64
aF1272141.1039
aF1232893.6144
aF1241084.1664
aF1231275.7567
aass.