(dp0
S'SWAY5_100'
p1
(iGraphics.simplified_new
SolutionHolder
p2
(dp3
S'problem'
p4
S'POM3A(S)'
p5
sS'repeats'
p6
(lp7
(iGraphics.simplified_new
Scores
p8
(dp9
S'pfs'
p10
I6
sS'spread'
p11
F0.4464489658342416
sS'hv'
p12
F351223.7929
sS'igd'
p13
Nsba(iGraphics.simplified_new
Scores
p14
(dp15
g10
I6
sg11
F0.3508120923181801
sg12
F1059372.1518
sg13
Nsba(iGraphics.simplified_new
Scores
p16
(dp17
g10
I6
sg11
F0.5442172314036076
sg12
F587755.6815
sg13
Nsba(iGraphics.simplified_new
Scores
p18
(dp19
g10
I9
sg11
F0.27739268683308504
sg12
F597320.8264
sg13
Nsba(iGraphics.simplified_new
Scores
p20
(dp21
g10
I6
sg11
F0.581576348514921
sg12
F1134999.7732
sg13
Nsba(iGraphics.simplified_new
Scores
p22
(dp23
g10
I6
sg11
F0.4564757176357111
sg12
F1331000.0
sg13
Nsba(iGraphics.simplified_new
Scores
p24
(dp25
g10
I6
sg11
F0.39212354996020776
sg12
F716193.4301
sg13
Nsba(iGraphics.simplified_new
Scores
p26
(dp27
g10
I9
sg11
F0.5480481904512041
sg12
F725086.2147
sg13
Nsba(iGraphics.simplified_new
Scores
p28
(dp29
g10
I6
sg11
F0.5181988484555177
sg12
F626520.8655
sg13
Nsba(iGraphics.simplified_new
Scores
p30
(dp31
g10
I6
sg11
F0.6961413297717026
sg12
F489376.4665
sg13
Nsba(iGraphics.simplified_new
Scores
p32
(dp33
g10
I9
sg11
F0.4453315627071081
sg12
F782838.5206
sg13
NsbasS'algorithm'
p34
S'SWAY5'
p35
sbs.