(dp0
S'SWAY5_100'
p1
(iGraphics.simplified_new
SolutionHolder
p2
(dp3
S'problem'
p4
S'POM3A(S)'
p5
sS'repeats'
p6
(lp7
(iGraphics.simplified_new
Scores
p8
(dp9
S'pfs'
p10
I5
sS'spread'
p11
F0.524170421468843
sS'hv'
p12
F679269.3144
sS'igd'
p13
Nsba(iGraphics.simplified_new
Scores
p14
(dp15
g10
I6
sg11
F0.6712182603762088
sg12
F554249.4049
sg13
Nsba(iGraphics.simplified_new
Scores
p16
(dp17
g10
I6
sg11
F0.6854409321231277
sg12
F478105.4411
sg13
Nsba(iGraphics.simplified_new
Scores
p18
(dp19
g10
I7
sg11
F0.3999989288959174
sg12
F706579.8693
sg13
Nsba(iGraphics.simplified_new
Scores
p20
(dp21
g10
I9
sg11
F0.42213313040332306
sg12
F886322.8858
sg13
Nsba(iGraphics.simplified_new
Scores
p22
(dp23
g10
I9
sg11
F0.36041118353413687
sg12
F445763.8162
sg13
Nsba(iGraphics.simplified_new
Scores
p24
(dp25
g10
I6
sg11
F0.4939404514873449
sg12
F463310.838
sg13
Nsba(iGraphics.simplified_new
Scores
p26
(dp27
g10
I6
sg11
F0.3472899777413041
sg12
F1087939.5821
sg13
Nsba(iGraphics.simplified_new
Scores
p28
(dp29
g10
I6
sg11
F0.3859148445805475
sg12
F818441.2888
sg13
Nsba(iGraphics.simplified_new
Scores
p30
(dp31
g10
I7
sg11
F0.3729523011586894
sg12
F1070862.1685
sg13
NsbasS'algorithm'
p32
S'SWAY5'
p33
sbs.