(dp0
S'POM3C(M)'
p1
(dp2
S'Spread'
p3
(lp4
(lp5
S'NSGAII_100'
p6
aF0.5550145523264273
aF0.4734052066116912
aF0.6581675966004197
aF0.4986328068852808
aF0.45206287625194397
aF0.5916032116227365
aF0.5096673533216597
aF0.5894470367112757
aF0.46913321399100466
aF0.4543249247936938
aF0.49484501388787927
aF0.5105335872052039
aF0.4835534822621262
aF0.49544470581928446
aF0.5412071900785845
aF0.5191485310624337
aF0.5423261073492346
aF0.4966889420641181
aF0.5061258133821666
aF0.5963155248490392
aF0.5032831074791156
aa(lp7
S'SWAY5_10000'
p8
aF0.4472812139385082
aF0.40603016695942606
aF0.5416685114727181
aF0.45604068757245475
aF0.4627535340503161
aF0.45854360192640614
aF0.497581809523747
aF0.4340061785266112
aF0.38887247673557535
aF0.5213944318495702
aF0.4401462052839562
aF0.4449547908672811
aF0.4767354552477012
aF0.3646144461428215
aF0.4354780296641321
aF0.41237382777412446
aF0.5102827603431752
aF0.4096298347422151
aF0.4443671595943453
aF0.4390510075351493
aF0.4396437595985476
aa(lp9
S'SPEA2_100'
p10
aF0.6051983682184233
aF0.6199318833666512
aF0.5519759899760355
aF0.6360353481878163
aF0.5579713903494554
aF0.5151172378282821
aF0.6533694800752631
aF0.6151409576114749
aF0.6000645736288129
aF0.6554357778757798
aF0.626602627060092
aF0.6532332132016415
aF0.6011218392554315
aF0.5946459586484855
aF0.5439342163584207
aF0.6294040583459902
aF0.5910203617036043
aF0.5491554628213668
aF0.6462336252965399
aF0.6291983625915015
aF0.6963143436399075
aasS'HV'
p11
(lp12
(lp13
S'NSGAII_100'
p14
aF1087874.7533
aF1134282.3565
aF1111737.5459
aF1048424.4462
aF1072401.7154
aF1099518.3249
aF1043921.6578
aF1082883.3031
aF1055829.7232
aF1109148.4616
aF1116003.9096
aF1104639.1203
aF1072870.111
aF1083607.7638
aF1092835.769
aF1071901.7187
aF1072758.5515
aF1090397.2239
aF1076811.8627
aF1053939.8485
aF1045032.0389
aa(lp15
S'SWAY5_10000'
p16
aF853867.2303
aF778040.1216
aF778785.0215
aF697271.5877
aF692849.7952
aF620207.184
aF766406.1994
aF640639.4064
aF708745.601
aF881358.7656
aF784358.841
aF686792.7378
aF895061.2485
aF771907.7612
aF756477.8965
aF686373.7831
aF707512.0007
aF873795.7234
aF675762.1405
aF765923.16
aF735753.9378
aa(lp17
S'SPEA2_100'
p18
aF1064336.5028
aF1129441.4448
aF1073317.2441
aF1097900.94
aF1049564.2416
aF1082856.0404
aF1084768.0987
aF1099105.492
aF1081874.5731
aF1137400.8937
aF1087736.7684
aF1058152.8339
aF1083536.8583
aF1101050.5432
aF1062817.599
aF1057574.2786
aF1086342.0941
aF1091361.6983
aF1094725.5792
aF1099569.7133
aF1131761.6519
aass.