(dp0
S'POM3B'
p1
(dp2
S'Spread'
p3
(lp4
(lp5
S'SPEA2_100'
p6
aF0.6894257704954125
aF0.6288758822468389
aF0.6150853093877323
aF0.7713665415617803
aF0.650797159499602
aF0.6180163095086477
aF0.70929294050951
aF0.612571440256991
aF0.7513143712406173
aF0.6538231060260487
aF0.6297968533095585
aF0.673094672591004
aF0.762816227059277
aF0.6845010478334396
aF0.6925692859075732
aF0.77890915908388
aF0.6465654696710089
aF0.5436928620486474
aF0.6190452635215227
aF0.6221624179024802
aa(lp7
S'SWAY5_1225'
p8
aF0.4113414424549697
aF0.5046726762583208
aF0.4514918703778742
aF0.4086846677149391
aF0.6077958725389114
aF0.4932315140737811
aF0.3257240878811875
aF0.4917335945380597
aF0.4673667230131013
aF0.5892184512062382
aF0.43246729792216393
aF0.4615046618566736
aF0.5250564640512779
aF0.35424899983607755
aF0.5955399623854868
aF0.4373631903788657
aF0.5017985642512972
aF0.6380063271775371
aF0.4045324393687846
aF0.5619664110972936
aa(lp9
S'SWAY5_5000'
p10
aF0.45699243914307336
aF0.4856812882952328
aF0.45728979166333505
aF0.42350924797217887
aF0.393733745274621
aF0.4019804409155042
aF0.5823623011878899
aF0.3831466435983415
aF0.4352181549046888
aF0.3872743444571147
aF0.4081997222057966
aF0.43495998690564064
aF0.5521422298827573
aF0.5456437682810672
aF0.4656034341281751
aF0.5062009272470124
aF0.4146263885839891
aF0.502349755009397
aF0.38393761744551597
aF0.4484848075880486
aa(lp11
S'SWAY5_2500'
p12
aF0.39526903708967004
aF0.39870381057862003
aF0.4735357818256623
aF0.41314096110734727
aF0.4035587907295824
aF0.5154061536433212
aF0.46903716531656464
aF0.5271630092018598
aF0.4583814627972633
aF0.5951343133167634
aF0.4608532929520362
aF0.5086669453472267
aF0.41258601978111503
aF0.5098759509072033
aF0.511039534100403
aF0.48744566584035814
aF0.4144815119747148
aF0.5727616521709981
aF0.5868085899817762
aF0.5010730426073423
aa(lp13
S'SWAY5_10000'
p14
aF0.42645870395297486
aF0.4759548046458129
aF0.4020849969910075
aF0.42597753462766025
aF0.4916261846301098
aF0.39720016364964544
aF0.360805382752074
aF0.4443521301719952
aF0.46601109576229555
aF0.4944592436426235
aF0.3921303026394731
aF0.40736990958386665
aF0.432707204339192
aF0.579317507819071
aF0.3930638040302924
aF0.4682366918909863
aF0.40569426548506343
aF0.4793619440403166
aF0.45459009120503185
aF0.45624031649899327
aa(lp15
S'NSGAII_100'
p16
aF0.6826933745997086
aF0.622527109953924
aF0.6918286907040105
aF0.6800474973339694
aF0.7165676358935734
aF0.5340027065232132
aF0.6866716362507644
aF0.631958680627219
aF0.6509339612481956
aF0.703109017540773
aF0.5560000640496537
aF0.7397425029289146
aF0.6252605077423158
aF0.7515127794099714
aF0.6283800017619694
aF0.71285540799501
aF0.5625167026850143
aF0.6401518100940812
aF0.6790919337225005
aF0.6392727420543087
aasS'HV'
p17
(lp18
(lp19
S'SPEA2_100'
p20
aF1312994.729
aF1309323.0533
aF1303417.6023
aF1314476.5899
aF1313506.5522
aF1316579.2074
aF1305546.3679
aF1303337.723
aF1316926.5831
aF1302517.601
aF1307365.7643
aF1317442.1299
aF1326179.06
aF1309880.5057
aF1306428.3249
aF1310648.2738
aF1305620.813
aF1300963.6973
aF1315571.9846
aF1304920.0061
aa(lp21
S'SWAY5_1225'
p22
aF1127149.8799
aF822957.8893
aF1272505.7203
aF1164935.1582
aF1239129.2196
aF1116062.7006
aF1090483.7491
aF1024716.2527
aF1002373.4259
aF1086272.4012
aF990838.1554
aF1165216.6491
aF1218212.4994
aF1144704.8484
aF1113153.7519
aF890698.5327
aF1174611.9742
aF1175286.5881
aF1207237.5241
aF1190373.5517
aa(lp23
S'SWAY5_5000'
p24
aF1063571.0161
aF1167609.3992
aF1216418.1283
aF1226530.0823
aF1255868.018
aF1090707.0753
aF1154877.4591
aF1183064.8723
aF1239755.0589
aF1191167.45
aF1252175.9062
aF1225084.5624
aF1249550.0762
aF1151696.5082
aF1260811.0109
aF1101940.6279
aF1249049.6514
aF1014309.0229
aF1248242.7284
aF1252024.3589
aa(lp25
S'SWAY5_2500'
p26
aF1201672.454
aF1184085.5614
aF1195655.8935
aF1237711.3117
aF1129323.853
aF1255183.5753
aF1119366.9728
aF1225436.8419
aF1250580.5154
aF1138614.506
aF1176312.8804
aF1209431.3023
aF1019216.1757
aF1211835.4784
aF977061.1371
aF1077683.4339
aF1206122.5602
aF1228794.6489
aF1133840.8691
aF1155988.0652
aa(lp27
S'SWAY5_10000'
p28
aF1235833.5593
aF1235232.4133
aF1283556.2223
aF1035224.1096
aF1272056.6009
aF1188947.245
aF1218396.227
aF1266011.3533
aF1111570.422
aF1211810.406
aF1197446.991
aF1189398.8603
aF1265912.1042
aF1027702.9671
aF1153898.5819
aF1244462.1406
aF1133455.0278
aF1166827.7655
aF1131643.8635
aF1083770.2285
aa(lp29
S'NSGAII_100'
p30
aF1319276.073
aF1310347.1651
aF1327712.0753
aF1314079.9204
aF1305697.6611
aF1302514.8331
aF1300848.5944
aF1312982.7104
aF1318026.894
aF1307639.3291
aF1310705.6318
aF1310668.9384
aF1309540.3466
aF1308623.7663
aF1306508.6893
aF1312483.3797
aF1306609.5514
aF1307821.1205
aF1305274.7876
aF1314479.6663
aass.