(dp0
S'SWAY5_2500'
p1
(iGraphics.simplified_new
SolutionHolder
p2
(dp3
S'problem'
p4
S'POM3B'
p5
sS'repeats'
p6
(lp7
(iGraphics.simplified_new
Scores
p8
(dp9
S'pfs'
p10
I29
sS'spread'
p11
F0.3507809343145008
sS'hv'
p12
F1217249.6036
sS'igd'
p13
Nsba(iGraphics.simplified_new
Scores
p14
(dp15
g10
I39
sg11
F0.38013936133643833
sg12
F1187142.1977
sg13
Nsba(iGraphics.simplified_new
Scores
p16
(dp17
g10
I39
sg11
F0.4572646412662557
sg12
F1206136.7179
sg13
Nsba(iGraphics.simplified_new
Scores
p18
(dp19
g10
I29
sg11
F0.38276800389604554
sg12
F1251550.7094
sg13
Nsba(iGraphics.simplified_new
Scores
p20
(dp21
g10
I30
sg11
F0.3871335417613084
sg12
F1132756.3686
sg13
Nsba(iGraphics.simplified_new
Scores
p22
(dp23
g10
I36
sg11
F0.5018584107362204
sg12
F1273866.3839
sg13
Nsba(iGraphics.simplified_new
Scores
p24
(dp25
g10
I25
sg11
F0.43101609185253786
sg12
F1116832.1217
sg13
Nsba(iGraphics.simplified_new
Scores
p26
(dp27
g10
I39
sg11
F0.5059580443133602
sg12
F1237874.8828
sg13
Nsba(iGraphics.simplified_new
Scores
p28
(dp29
g10
I44
sg11
F0.4456109406184251
sg12
F1267204.0878
sg13
Nsba(iGraphics.simplified_new
Scores
p30
(dp31
g10
I28
sg11
F0.5740337388703017
sg12
F1140666.8539
sg13
Nsba(iGraphics.simplified_new
Scores
p32
(dp33
g10
I29
sg11
F0.43044857336067954
sg12
F1183729.8657
sg13
Nsba(iGraphics.simplified_new
Scores
p34
(dp35
g10
I29
sg11
F0.48191867361261226
sg12
F1219673.0945
sg13
Nsba(iGraphics.simplified_new
Scores
p36
(dp37
g10
I22
sg11
F0.4024993198560833
sg12
F1009026.7108
sg13
Nsba(iGraphics.simplified_new
Scores
p38
(dp39
g10
I29
sg11
F0.48647522120824593
sg12
F1224138.5857
sg13
Nsba(iGraphics.simplified_new
Scores
p40
(dp41
g10
I26
sg11
F0.5014146418354974
sg12
F955093.9477
sg13
Nsba(iGraphics.simplified_new
Scores
p42
(dp43
g10
I24
sg11
F0.47468636663316466
sg12
F1073226.1835
sg13
Nsba(iGraphics.simplified_new
Scores
p44
(dp45
g10
I30
sg11
F0.3974600601980834
sg12
F1217378.3195
sg13
Nsba(iGraphics.simplified_new
Scores
p46
(dp47
g10
I26
sg11
F0.5431816461841843
sg12
F1240673.1644
sg13
Nsba(iGraphics.simplified_new
Scores
p48
(dp49
g10
I17
sg11
F0.5335695607474041
sg12
F1139823.6593
sg13
Nsba(iGraphics.simplified_new
Scores
p50
(dp51
g10
I37
sg11
F0.4825350272242191
sg12
F1166537.4104
sg13
NsbasS'algorithm'
p52
S'SWAY5'
p53
sbsS'SWAY5_10000'
p54
(iGraphics.simplified_new
SolutionHolder
p55
(dp56
g4
g5
sg6
(lp57
(iGraphics.simplified_new
Scores
p58
(dp59
g10
I55
sg11
F0.4135464924293085
sg12
F1248899.9307
sg13
Nsba(iGraphics.simplified_new
Scores
p60
(dp61
g10
I38
sg11
F0.45697491235961396
sg12
F1249208.1567
sg13
Nsba(iGraphics.simplified_new
Scores
p62
(dp63
g10
I88
sg11
F0.3998454619006942
sg12
F1304174.9638
sg13
Nsba(iGraphics.simplified_new
Scores
p64
(dp65
g10
I85
sg11
F0.42955718590653147
sg12
F1021188.6658
sg13
Nsba(iGraphics.simplified_new
Scores
p66
(dp67
g10
I78
sg11
F0.4876106474678208
sg12
F1290440.328
sg13
Nsba(iGraphics.simplified_new
Scores
p68
(dp69
g10
I82
sg11
F0.39407306264600206
sg12
F1195575.5918
sg13
Nsba(iGraphics.simplified_new
Scores
p70
(dp71
g10
I87
sg11
F0.3502782542115378
sg12
F1233497.1121
sg13
Nsba(iGraphics.simplified_new
Scores
p72
(dp73
g10
I78
sg11
F0.435992410456789
sg12
F1282250.4447
sg13
Nsba(iGraphics.simplified_new
Scores
p74
(dp75
g10
I73
sg11
F0.45632111689890953
sg12
F1104232.308
sg13
Nsba(iGraphics.simplified_new
Scores
p76
(dp77
g10
I27
sg11
F0.4765668363190032
sg12
F1224516.0817
sg13
Nsba(iGraphics.simplified_new
Scores
p78
(dp79
g10
I76
sg11
F0.3955893159726097
sg12
F1203524.0212
sg13
Nsba(iGraphics.simplified_new
Scores
p80
(dp81
g10
I39
sg11
F0.40087290261243563
sg12
F1196677.4763
sg13
Nsba(iGraphics.simplified_new
Scores
p82
(dp83
g10
I56
sg11
F0.42295344672346824
sg12
F1284229.3863
sg13
Nsba(iGraphics.simplified_new
Scores
p84
(dp85
g10
I29
sg11
F0.5665658841380513
sg12
F1001435.7
sg13
Nsba(iGraphics.simplified_new
Scores
p86
(dp87
g10
I51
sg11
F0.38250074759889513
sg12
F1154964.7268
sg13
Nsba(iGraphics.simplified_new
Scores
p88
(dp89
g10
I68
sg11
F0.45864166617362334
sg12
F1260006.5448
sg13
Nsba(iGraphics.simplified_new
Scores
p90
(dp91
g10
I59
sg11
F0.38553093302812075
sg12
F1140399.7291
sg13
Nsba(iGraphics.simplified_new
Scores
p92
(dp93
g10
I78
sg11
F0.47035520855929214
sg12
F1169689.1288
sg13
Nsba(iGraphics.simplified_new
Scores
p94
(dp95
g10
I68
sg11
F0.44713535769580537
sg12
F1137372.7641
sg13
Nsba(iGraphics.simplified_new
Scores
p96
(dp97
g10
I40
sg11
F0.4385427178712167
sg12
F1083723.8143
sg13
Nsbasg52
S'SWAY5'
p98
sbsS'SWAY5_1225'
p99
(iGraphics.simplified_new
SolutionHolder
p100
(dp101
g4
g5
sg6
(lp102
(iGraphics.simplified_new
Scores
p103
(dp104
g10
I19
sg11
F0.38113312365818247
sg12
F1123914.7311
sg13
Nsba(iGraphics.simplified_new
Scores
p105
(dp106
g10
I19
sg11
F0.4872061483945482
sg12
F778470.0613
sg13
Nsba(iGraphics.simplified_new
Scores
p107
(dp108
g10
I19
sg11
F0.42398443065534325
sg12
F1292928.4734
sg13
Nsba(iGraphics.simplified_new
Scores
p109
(dp110
g10
I33
sg11
F0.39011817715619024
sg12
F1171416.4179
sg13
Nsba(iGraphics.simplified_new
Scores
p111
(dp112
g10
I19
sg11
F0.5828211932282574
sg12
F1252209.0961
sg13
Nsba(iGraphics.simplified_new
Scores
p113
(dp114
g10
I32
sg11
F0.480068992968565
sg12
F1110158.5222
sg13
Nsba(iGraphics.simplified_new
Scores
p115
(dp116
g10
I19
sg11
F0.3177593911356452
sg12
F1087941.7073
sg13
Nsba(iGraphics.simplified_new
Scores
p117
(dp118
g10
I19
sg11
F0.440682077343806
sg12
F990806.3721
sg13
Nsba(iGraphics.simplified_new
Scores
p119
(dp120
g10
I29
sg11
F0.4552995295454318
sg12
F975038.1729
sg13
Nsba(iGraphics.simplified_new
Scores
p121
(dp122
g10
I19
sg11
F0.5676417271807755
sg12
F1080629.1216
sg13
Nsba(iGraphics.simplified_new
Scores
p123
(dp124
g10
I19
sg11
F0.3967970030161586
sg12
F960701.2949
sg13
Nsba(iGraphics.simplified_new
Scores
p125
(dp126
g10
I29
sg11
F0.4354815416864558
sg12
F1181113.1031
sg13
Nsba(iGraphics.simplified_new
Scores
p127
(dp128
g10
I30
sg11
F0.5035087186815497
sg12
F1225425.6781
sg13
Nsba(iGraphics.simplified_new
Scores
p129
(dp130
g10
I29
sg11
F0.32680817493082737
sg12
F1145255.8475
sg13
Nsba(iGraphics.simplified_new
Scores
p131
(dp132
g10
I30
sg11
F0.5729115932673632
sg12
F1110263.249
sg13
Nsba(iGraphics.simplified_new
Scores
p133
(dp134
g10
I29
sg11
F0.41643063335213815
sg12
F857384.9716
sg13
Nsba(iGraphics.simplified_new
Scores
p135
(dp136
g10
I19
sg11
F0.45712318423303433
sg12
F1180877.1238
sg13
Nsba(iGraphics.simplified_new
Scores
p137
(dp138
g10
I22
sg11
F0.6098045836984441
sg12
F1185025.632
sg13
Nsba(iGraphics.simplified_new
Scores
p139
(dp140
g10
I21
sg11
F0.38749335255517975
sg12
F1217585.4633
sg13
Nsba(iGraphics.simplified_new
Scores
p141
(dp142
g10
I22
sg11
F0.5279844190518991
sg12
F1195826.7621
sg13
Nsbasg52
S'SWAY5'
p143
sbsS'SWAY5_5000'
p144
(iGraphics.simplified_new
SolutionHolder
p145
(dp146
g4
g5
sg6
(lp147
(iGraphics.simplified_new
Scores
p148
(dp149
g10
I39
sg11
F0.45143053143398115
sg12
F1049443.1146
sg13
Nsba(iGraphics.simplified_new
Scores
p150
(dp151
g10
I67
sg11
F0.4844141766846394
sg12
F1171232.2464
sg13
Nsba(iGraphics.simplified_new
Scores
p152
(dp153
g10
I51
sg11
F0.44299589449728777
sg12
F1227912.3782
sg13
Nsba(iGraphics.simplified_new
Scores
p154
(dp155
g10
I39
sg11
F0.39001636104729553
sg12
F1239627.2438
sg13
Nsba(iGraphics.simplified_new
Scores
p156
(dp157
g10
I68
sg11
F0.38440391647119476
sg12
F1272616.7694
sg13
Nsba(iGraphics.simplified_new
Scores
p158
(dp159
g10
I36
sg11
F0.38616610558853964
sg12
F1084883.8611
sg13
Nsba(iGraphics.simplified_new
Scores
p160
(dp161
g10
I19
sg11
F0.5492418915152508
sg12
F1148494.004
sg13
Nsba(iGraphics.simplified_new
Scores
p162
(dp163
g10
I39
sg11
F0.37572503409140234
sg12
F1192229.559
sg13
Nsba(iGraphics.simplified_new
Scores
p164
(dp165
g10
I39
sg11
F0.4124593158440185
sg12
F1256452.8994
sg13
Nsba(iGraphics.simplified_new
Scores
p166
(dp167
g10
I58
sg11
F0.3745849729825757
sg12
F1200593.734
sg13
Nsba(iGraphics.simplified_new
Scores
p168
(dp169
g10
I58
sg11
F0.3920277301446594
sg12
F1270095.6447
sg13
Nsba(iGraphics.simplified_new
Scores
p170
(dp171
g10
I57
sg11
F0.4257319685292989
sg12
F1233443.8062
sg13
Nsba(iGraphics.simplified_new
Scores
p172
(dp173
g10
I39
sg11
F0.5344086389989955
sg12
F1266196.6281
sg13
Nsba(iGraphics.simplified_new
Scores
p174
(dp175
g10
I28
sg11
F0.5200626210981255
sg12
F1152536.8633
sg13
Nsba(iGraphics.simplified_new
Scores
p176
(dp177
g10
I44
sg11
F0.4387392642534168
sg12
F1278535.1733
sg13
Nsba(iGraphics.simplified_new
Scores
p178
(dp179
g10
I59
sg11
F0.49865848191360446
sg12
F1093413.6642
sg13
Nsba(iGraphics.simplified_new
Scores
p180
(dp181
g10
I57
sg11
F0.4012693997681282
sg12
F1264794.3239
sg13
Nsba(iGraphics.simplified_new
Scores
p182
(dp183
g10
I27
sg11
F0.47652520806126597
sg12
F994924.0466
sg13
Nsba(iGraphics.simplified_new
Scores
p184
(dp185
g10
I39
sg11
F0.36641083041398387
sg12
F1262278.494
sg13
Nsba(iGraphics.simplified_new
Scores
p186
(dp187
g10
I58
sg11
F0.43490475385808836
sg12
F1268674.2877
sg13
Nsbasg52
S'SWAY5'
p188
sbs.