(dp0
S'POM3D'
p1
(dp2
S'Spread'
p3
(lp4
(lp5
S'SPEA2_100'
p6
aF0.8327301030451728
aF0.6697510779026168
aF0.7774476646790716
aF0.7502315147675755
aF0.7802499122783032
aF0.8031896112471247
aF0.8352196797150235
aF0.8803940182935417
aF0.830124157541845
aF0.8292510112444035
aF0.7548923735087771
aF0.8331591771891235
aF0.8498760360780644
aF0.7331062037355875
aF0.7808523791866452
aF0.765882952242459
aF0.8614772432620785
aF0.8613185505024417
aF0.7598457570405894
aF0.9277341603417013
aa(lp7
S'SPEA2SC-1225_100'
p8
aF0.847088470555977
aF0.8403645623137475
aF0.8208572669995006
aF0.7311106783937035
aF0.7326402799303858
aF0.8595653429479145
aF0.8824444834790213
aF0.8130677357257893
aF0.7557273216072675
aF0.8517725286008017
aF0.8155899908380336
aF0.7274302212004211
aF0.864069856126842
aF0.7454778139856569
aF0.7895697900734032
aF0.7857836500818213
aF0.8898285117735265
aF0.8802773402831565
aF0.8419419696330264
aF0.7095258025879432
aa(lp9
S'SWAY5_1225'
p10
aF0.5284634502149813
aF0.575856230399735
aF0.5539140617266046
aF0.5779240087631655
aF0.5894873350812337
aF0.5839068761694817
aF0.6629957933600527
aF0.6200462500585767
aF0.5887726156693147
aF0.5756754604824302
aF0.7385482259519649
aF0.6073885396058585
aF0.5706062806879819
aF0.6468018358184171
aF0.543829339624215
aF0.6127553865942018
aF0.6092333275876013
aF0.6025498705140926
aF0.5879648288995843
aF0.7196847116320734
aa(lp11
S'SWAY5_5000'
p12
aF0.48409055783533333
aF0.5794478267500264
aF0.5849424347862193
aF0.5622800052090118
aF0.5660831055586261
aF0.5799329899435631
aF0.6053632726517344
aF0.5230916912983202
aF0.5475951318285244
aF0.5262489348309503
aF0.4865738054133433
aF0.6356441094731163
aF0.4971907147560449
aF0.5473861669885566
aF0.6367841523830308
aF0.5922381798685279
aF0.5513884099341592
aF0.5114491836812802
aF0.5926633850500383
aF0.5864372237755863
aa(lp13
S'NSGAIISC-5000_100'
p14
aF0.8000225273468999
aF0.8628417766512247
aF0.8261645036485088
aF0.85037906052998
aF0.8725955708525281
aF0.6562979114467993
aF0.8987276052676146
aF0.7305188889318875
aF0.8252203258870837
aF0.7204143442486748
aF0.8557116667145455
aF0.8054323358577701
aF0.9014996209880345
aF0.8438512081743511
aF0.7992800994105151
aF0.9044238664447931
aF0.7251511919768505
aF0.863358290479252
aF0.7874152446053787
aF0.7944940749346383
aa(lp15
S'SWAY5_2500'
p16
aF0.5587369421208641
aF0.6660110264490123
aF0.5219918035904496
aF0.5205509514651115
aF0.6030684959696393
aF0.5309099039227393
aF0.5278028667050326
aF0.46595959702017276
aF0.5470731134170237
aF0.5942513701024049
aF0.553640731374883
aF0.549022174227547
aF0.6134899474923007
aF0.5409059267437585
aF0.43002752075017764
aF0.6829680769954479
aF0.625210337309842
aF0.548082477050916
aF0.545076110244934
aF0.5970905953541139
aa(lp17
S'NSGAIISC-1225_100'
p18
aF0.7565185159140473
aF0.7877977880011252
aF0.7983946677603462
aF0.9273169329937784
aF0.8399576299534681
aF0.8594124736975937
aF0.8830461688719115
aF0.7642358381261201
aF0.823240001168061
aF0.896962011846518
aF0.8032898038193769
aF0.8447805484477166
aF0.8096224462094981
aF0.8017153243307477
aF0.7776204128134794
aF1.055707229526864
aF0.7761683886262137
aF0.7640489783933103
aF0.8459500889889358
aF0.7848737413232831
aa(lp19
S'SPEA2SC-5000_100'
p20
aF0.9146196870260125
aF0.8423017156092563
aF0.7796286480733875
aF0.8756607960661417
aF0.7790559708989162
aF0.7180554942796217
aF0.951209845971326
aF0.9674025154522369
aF0.7024965020505576
aF0.8029775056942552
aF0.8074190672976397
aF0.7775378038377537
aF0.7832718463860164
aF0.8625120894856748
aF0.8557291779080028
aF0.8397841724923409
aF0.7852254497569675
aF0.777652300453686
aF0.8264320949096258
aF0.8780829423368985
aa(lp21
S'SWAY5_10000'
p22
aF0.5168740311004529
aF0.553542860071323
aF0.5439406437697357
aF0.5398620045832446
aF0.5705391034529393
aF0.5544146653270885
aF0.5008016777960319
aF0.5125470399660279
aF0.5459289055771958
aF0.554247153256824
aF0.5685401942566846
aF0.5413533300281619
aF0.43540092666723307
aF0.45645017446648756
aF0.5520157536512245
aF0.45840328797096447
aF0.47805466867399604
aF0.5652872247669785
aF0.4611439181216141
aF0.547456305765936
aa(lp23
S'NSGAIISC-10000_100'
p24
aF0.7187567279410868
aF0.8510027660651862
aF0.8677794035403064
aF0.8262107675367952
aF0.8736769880125919
aF0.847962085776711
aF0.8550048568864023
aF0.9115642059930749
aF0.8614226036543259
aF0.8561829502217975
aF0.8074098672731963
aF0.8552620170855452
aF0.6931850274330673
aF0.7163648387379099
aF0.8714588388329827
aF0.8847656077995116
aF0.7026510001819641
aF0.8901061862122532
aF0.788565256720212
aF0.9671288708895385
aa(lp25
S'NSGAII_100'
p26
aF1.0128902420290216
aF0.7334549905584935
aF0.7932503427152764
aF0.7615895287174843
aF0.8924208932906719
aF0.7085123975075795
aF0.7642188223166766
aF0.737882793835651
aF0.8815377626184766
aF0.9650641314770847
aF0.7954470246814835
aF0.7749794356596749
aF0.8729590082135991
aF0.789725958623685
aF0.8011250890373246
aF0.7425422561066131
aF0.6766157536062575
aF0.8053778372797478
aF0.7832595289262732
aF0.8075821735012643
aa(lp27
S'SPEA2SC-2500_100'
p28
aF0.8044055840999359
aF0.8797104239808365
aF0.8061455177911415
aF0.7669641785221808
aF0.7668291948781418
aF0.7563966462964032
aF0.7256236070365881
aF0.8269978389719079
aF0.8872492939376804
aF0.6852717100779676
aF0.7673204421768077
aF0.7646625870423978
aF0.8594526590695963
aF0.8210517219583442
aF0.876067806261638
aF0.910940816367796
aF0.861154370973121
aF0.8420305024951651
aF0.8365726775742519
aF0.7650536197558109
aa(lp29
S'SPEA2SC-10000_100'
p30
aF0.8380280708664359
aF0.7590153112793558
aF0.7267216683275223
aF0.7906894439771585
aF0.8239695115759657
aF0.7981897851854532
aF0.7648240866987588
aF1.0162257016455758
aF0.824282281925243
aF0.8546935695988638
aF0.7808736520796793
aF0.7393910638054486
aF0.816794265033134
aF0.8348956830676686
aF0.8844223374132014
aF0.7521207474174479
aF0.8412267532088629
aF0.6720331055625641
aF0.8712139853113173
aF0.8474517361038342
aa(lp31
S'NSGAIISC-2500_100'
p32
aF0.7608021260621607
aF0.8349485821947759
aF0.7968384942728672
aF0.8177215368713506
aF0.9186829233674734
aF0.8643629981997508
aF0.7377381248707461
aF0.8208124597740659
aF0.8175815357618978
aF0.7950957839496036
aF0.7720502499054606
aF0.8392117989115538
aF0.9024265827459996
aF0.8305730963728216
aF0.8203752074671007
aF0.9142538126830562
aF0.8825687530037679
aF0.7501111123217385
aF0.8850173658205254
aF0.8436783233157724
aasS'HV'
p33
(lp34
(lp35
S'SPEA2_100'
p36
aF1317317.73
aF1306696.8227
aF1307800.0695
aF1297875.3852
aF1307659.6624
aF1310409.4219
aF1323409.407
aF1322818.5924
aF1293253.8798
aF1302699.3087
aF1293484.0578
aF1312920.1318
aF1291996.1566
aF1298803.5054
aF1324459.0889
aF1292048.2216
aF1314691.3981
aF1321356.3308
aF1295670.972
aF1311296.6628
aa(lp37
S'SPEA2SC-1225_100'
p38
aF1316687.4981
aF1307149.477
aF1296531.5459
aF1312760.7862
aF1309374.7293
aF1309792.1863
aF1310848.9307
aF1323452.5516
aF1324771.8143
aF1308461.7806
aF1310237.9512
aF1318877.4906
aF1295450.9275
aF1320013.9509
aF1294988.6388
aF1305712.293
aF1325347.3291
aF1321102.0887
aF1313830.6134
aF1322944.3157
aa(lp39
S'SWAY5_1225'
p40
aF1219810.0197
aF1191249.0945
aF1220264.1575
aF1210515.3786
aF1181051.7723
aF1110254.4506
aF1200837.9811
aF1161367.1593
aF1198236.0579
aF1217307.1311
aF1215146.9638
aF1239369.6765
aF1247500.8102
aF1246582.6722
aF1206258.8497
aF1216178.7159
aF1228542.5752
aF1193849.0375
aF1190866.687
aF1232701.8643
aa(lp41
S'SWAY5_5000'
p42
aF1206546.7664
aF1260226.35
aF1218671.2375
aF1238271.8238
aF1147098.3779
aF1248078.5665
aF1249139.1331
aF1248082.7913
aF1236710.6511
aF1209133.2048
aF1208089.9929
aF1231878.7185
aF1156287.0587
aF1236271.9906
aF1153671.8072
aF1317171.3413
aF1229355.6825
aF1233646.4353
aF1215179.102
aF1212140.5663
aa(lp43
S'NSGAIISC-5000_100'
p44
aF1306364.9475
aF1329348.2074
aF1317469.9119
aF1324349.2426
aF1298963.1032
aF1309820.2265
aF1297053.7399
aF1313147.8765
aF1327079.1596
aF1305579.0489
aF1294936.13
aF1304528.2852
aF1313449.1922
aF1320139.5089
aF1327155.4963
aF1298401.8452
aF1327483.0289
aF1302664.0606
aF1321782.194
aF1326232.0655
aa(lp45
S'SWAY5_2500'
p46
aF1248738.9566
aF1223452.3745
aF1253415.9986
aF1221755.2368
aF1290225.8999
aF1255123.251
aF1248401.2548
aF1183390.5583
aF1239054.8042
aF1213635.1451
aF1254918.3019
aF1238713.6373
aF1234766.2385
aF1235734.7109
aF1187918.7749
aF1247458.855
aF1256664.9827
aF1247684.3987
aF1226143.9829
aF1249012.1473
aa(lp47
S'NSGAIISC-1225_100'
p48
aF1320967.0679
aF1320911.1081
aF1299525.5251
aF1319087.2291
aF1311731.9963
aF1297172.1268
aF1320988.345
aF1321444.0905
aF1302795.8668
aF1319821.4609
aF1306511.9645
aF1313156.9698
aF1297032.6355
aF1318063.4719
aF1323480.5776
aF1312102.8873
aF1322725.7863
aF1306745.2177
aF1323109.1717
aF1319236.2912
aa(lp49
S'SPEA2SC-5000_100'
p50
aF1302122.8478
aF1322134.0676
aF1324356.8019
aF1322775.787
aF1317929.8523
aF1326511.8261
aF1308240.5511
aF1318088.6375
aF1314070.3555
aF1302293.3073
aF1324293.8455
aF1308594.2065
aF1310931.4628
aF1327772.8305
aF1321610.7908
aF1325875.8535
aF1306213.2253
aF1317043.1566
aF1314750.753
aF1313653.4666
aa(lp51
S'SWAY5_10000'
p52
aF1242702.387
aF1255646.4843
aF1254779.3519
aF1254065.9573
aF1220755.1168
aF1182824.8288
aF1238262.199
aF1243478.1824
aF1255473.0247
aF1242655.9029
aF1164362.5091
aF1252819.5167
aF1254728.5558
aF1212567.2883
aF1245632.3603
aF1238782.199
aF1230193.5477
aF1208377.4897
aF1302836.0837
aF1240364.1297
aa(lp53
S'NSGAIISC-10000_100'
p54
aF1325775.4601
aF1311601.7666
aF1304735.0591
aF1302041.4741
aF1296727.6055
aF1313482.5266
aF1315392.5725
aF1316215.2981
aF1325887.0348
aF1322709.4261
aF1316284.5435
aF1306322.0409
aF1295243.6371
aF1322957.9716
aF1301570.139
aF1315249.6051
aF1314063.1955
aF1326640.041
aF1304362.0381
aF1314204.7383
aa(lp55
S'NSGAII_100'
p56
aF1316587.0975
aF1302005.1563
aF1326045.5596
aF1310379.8934
aF1327374.8807
aF1305403.7193
aF1301683.7374
aF1312785.2799
aF1297911.0669
aF1320856.8763
aF1326041.3465
aF1315759.8325
aF1311668.683
aF1294297.9112
aF1309335.3765
aF1315422.2458
aF1296345.346
aF1311872.8596
aF1295611.0145
aF1312788.012
aa(lp57
S'SPEA2SC-2500_100'
p58
aF1292087.1619
aF1314676.1617
aF1322683.308
aF1305476.3808
aF1302121.7146
aF1301931.5696
aF1324276.6024
aF1299705.3313
aF1321913.3632
aF1321384.2166
aF1315966.6824
aF1310065.9301
aF1304575.9752
aF1295526.1079
aF1320961.5603
aF1299045.5056
aF1324150.2976
aF1325934.3697
aF1310741.8727
aF1312875.2036
aa(lp59
S'SPEA2SC-10000_100'
p60
aF1299926.2234
aF1291632.6301
aF1325555.9849
aF1319821.7485
aF1326114.9789
aF1315918.4915
aF1299363.8314
aF1327831.324
aF1326325.359
aF1306244.855
aF1310780.2373
aF1302159.894
aF1308371.4872
aF1323605.1636
aF1324805.2136
aF1298959.7381
aF1316777.6395
aF1314654.159
aF1304480.4625
aF1309737.3301
aa(lp61
S'NSGAIISC-2500_100'
p62
aF1321133.292
aF1309952.9615
aF1320797.8655
aF1315853.2417
aF1323518.9604
aF1316153.2804
aF1326642.2992
aF1318948.3378
aF1308118.8381
aF1323115.2769
aF1314701.2226
aF1324961.7328
aF1308281.4468
aF1302833.2313
aF1316003.9078
aF1312199.8362
aF1324981.4113
aF1303501.7476
aF1328234.458
aF1311979.1958
aass.