(dp0
S'SPEA2_100'
p1
(iGraphics.simplified_new
SolutionHolder
p2
(dp3
S'problem'
p4
S'POM3A'
p5
sS'repeats'
p6
(lp7
(iGraphics.simplified_new
Scores
p8
(dp9
S'pfs'
p10
I100
sS'spread'
p11
F0.5649087514275257
sS'hv'
p12
F1314402.9829
sS'igd'
p13
Nsba(iGraphics.simplified_new
Scores
p14
(dp15
g10
I100
sg11
F0.6510078011360763
sg12
F1319739.3705
sg13
Nsba(iGraphics.simplified_new
Scores
p16
(dp17
g10
I100
sg11
F0.6279596652535102
sg12
F1315039.9335
sg13
Nsba(iGraphics.simplified_new
Scores
p18
(dp19
g10
I100
sg11
F0.6557287860722534
sg12
F1315682.1902
sg13
Nsba(iGraphics.simplified_new
Scores
p20
(dp21
g10
I100
sg11
F0.6724661167535381
sg12
F1313041.5152
sg13
Nsba(iGraphics.simplified_new
Scores
p22
(dp23
g10
I100
sg11
F0.7663559675466178
sg12
F1312459.895
sg13
Nsba(iGraphics.simplified_new
Scores
p24
(dp25
g10
I100
sg11
F0.7652463142402929
sg12
F1320291.1124
sg13
Nsba(iGraphics.simplified_new
Scores
p26
(dp27
g10
I100
sg11
F0.7084733468952614
sg12
F1319144.0079
sg13
Nsba(iGraphics.simplified_new
Scores
p28
(dp29
g10
I100
sg11
F0.7163245356914569
sg12
F1309786.1988
sg13
Nsba(iGraphics.simplified_new
Scores
p30
(dp31
g10
I100
sg11
F0.6897977965380199
sg12
F1318536.2223
sg13
Nsba(iGraphics.simplified_new
Scores
p32
(dp33
g10
I100
sg11
F0.7800386895926619
sg12
F1316375.5715
sg13
Nsba(iGraphics.simplified_new
Scores
p34
(dp35
g10
I100
sg11
F0.6580618210099513
sg12
F1312654.2643
sg13
Nsba(iGraphics.simplified_new
Scores
p36
(dp37
g10
I100
sg11
F0.6606534576393833
sg12
F1308530.3495
sg13
Nsba(iGraphics.simplified_new
Scores
p38
(dp39
g10
I100
sg11
F0.8063252364366145
sg12
F1317805.4855
sg13
Nsba(iGraphics.simplified_new
Scores
p40
(dp41
g10
I100
sg11
F0.7827926891471931
sg12
F1314327.5123
sg13
Nsba(iGraphics.simplified_new
Scores
p42
(dp43
g10
I100
sg11
F0.622516749419158
sg12
F1315753.8725
sg13
Nsba(iGraphics.simplified_new
Scores
p44
(dp45
g10
I100
sg11
F0.7510174830374229
sg12
F1318915.0867
sg13
Nsba(iGraphics.simplified_new
Scores
p46
(dp47
g10
I100
sg11
F0.6746199627402768
sg12
F1314349.1758
sg13
Nsba(iGraphics.simplified_new
Scores
p48
(dp49
g10
I100
sg11
F0.6844796604667015
sg12
F1310083.6303
sg13
Nsba(iGraphics.simplified_new
Scores
p50
(dp51
g10
I100
sg11
F0.62974261014316
sg12
F1310906.5052
sg13
NsbasS'algorithm'
p52
S'SPEA2'
p53
sbsS'SWAY5_1225'
p54
(iGraphics.simplified_new
SolutionHolder
p55
(dp56
g4
g5
sg6
(lp57
(iGraphics.simplified_new
Scores
p58
(dp59
g10
I33
sg11
F0.47004852190675095
sg12
F1249289.4073
sg13
Nsba(iGraphics.simplified_new
Scores
p60
(dp61
g10
I19
sg11
F0.5583496371330305
sg12
F1050592.7133
sg13
Nsba(iGraphics.simplified_new
Scores
p62
(dp63
g10
I34
sg11
F0.49109181960399206
sg12
F1141817.667
sg13
Nsba(iGraphics.simplified_new
Scores
p64
(dp65
g10
I33
sg11
F0.39898800645351995
sg12
F1183092.7183
sg13
Nsba(iGraphics.simplified_new
Scores
p66
(dp67
g10
I25
sg11
F0.4006675706568707
sg12
F1148445.6223
sg13
Nsba(iGraphics.simplified_new
Scores
p68
(dp69
g10
I22
sg11
F0.4626324009948441
sg12
F996988.3577
sg13
Nsba(iGraphics.simplified_new
Scores
p70
(dp71
g10
I29
sg11
F0.49701632608035934
sg12
F1215669.3884
sg13
Nsba(iGraphics.simplified_new
Scores
p72
(dp73
g10
I22
sg11
F0.5942586841856227
sg12
F1187747.3645
sg13
Nsba(iGraphics.simplified_new
Scores
p74
(dp75
g10
I30
sg11
F0.3687230126764562
sg12
F1193702.9587
sg13
Nsba(iGraphics.simplified_new
Scores
p76
(dp77
g10
I34
sg11
F0.5435692584447476
sg12
F1212581.8629
sg13
Nsba(iGraphics.simplified_new
Scores
p78
(dp79
g10
I19
sg11
F0.5530815184771711
sg12
F1213495.1081
sg13
Nsba(iGraphics.simplified_new
Scores
p80
(dp81
g10
I19
sg11
F0.4546196982327708
sg12
F1270266.2535
sg13
Nsba(iGraphics.simplified_new
Scores
p82
(dp83
g10
I19
sg11
F0.49211721863407787
sg12
F1099921.6506
sg13
Nsba(iGraphics.simplified_new
Scores
p84
(dp85
g10
I29
sg11
F0.5294289122656971
sg12
F975928.7802
sg13
Nsba(iGraphics.simplified_new
Scores
p86
(dp87
g10
I29
sg11
F0.46809335332093416
sg12
F1181914.4392
sg13
Nsba(iGraphics.simplified_new
Scores
p88
(dp89
g10
I28
sg11
F0.5248635959693395
sg12
F1098406.2218
sg13
Nsba(iGraphics.simplified_new
Scores
p90
(dp91
g10
I29
sg11
F0.4588413493096931
sg12
F1188967.2156
sg13
Nsba(iGraphics.simplified_new
Scores
p92
(dp93
g10
I19
sg11
F0.5721316416028163
sg12
F945914.3652
sg13
Nsba(iGraphics.simplified_new
Scores
p94
(dp95
g10
I25
sg11
F0.39646787068453254
sg12
F1180884.8316
sg13
Nsba(iGraphics.simplified_new
Scores
p96
(dp97
g10
I19
sg11
F0.3654673797982927
sg12
F1048422.2716
sg13
Nsbasg52
S'SWAY5'
p98
sbsS'SWAY5_5000'
p99
(iGraphics.simplified_new
SolutionHolder
p100
(dp101
g4
g5
sg6
(lp102
(iGraphics.simplified_new
Scores
p103
(dp104
g10
I68
sg11
F0.44391554969101504
sg12
F1216439.7472
sg13
Nsba(iGraphics.simplified_new
Scores
p105
(dp106
g10
I18
sg11
F0.5865429561050961
sg12
F1006992.3907
sg13
Nsba(iGraphics.simplified_new
Scores
p107
(dp108
g10
I68
sg11
F0.43203459851084125
sg12
F1189070.3381
sg13
Nsba(iGraphics.simplified_new
Scores
p109
(dp110
g10
I18
sg11
F0.5126203139195695
sg12
F1020875.5678
sg13
Nsba(iGraphics.simplified_new
Scores
p111
(dp112
g10
I59
sg11
F0.40364640953018116
sg12
F1236466.7593
sg13
Nsba(iGraphics.simplified_new
Scores
p113
(dp114
g10
I19
sg11
F0.5547145245565032
sg12
F1213871.6211
sg13
Nsba(iGraphics.simplified_new
Scores
p115
(dp116
g10
I58
sg11
F0.43997801764092026
sg12
F1239036.2996
sg13
Nsba(iGraphics.simplified_new
Scores
p117
(dp118
g10
I61
sg11
F0.42709540208787516
sg12
F1246274.6847
sg13
Nsba(iGraphics.simplified_new
Scores
p119
(dp120
g10
I68
sg11
F0.42096488254205594
sg12
F1212744.4826
sg13
Nsba(iGraphics.simplified_new
Scores
p121
(dp122
g10
I68
sg11
F0.3983926623470171
sg12
F1223844.1264
sg13
Nsba(iGraphics.simplified_new
Scores
p123
(dp124
g10
I64
sg11
F0.39170303520122196
sg12
F1232524.5796
sg13
Nsba(iGraphics.simplified_new
Scores
p125
(dp126
g10
I59
sg11
F0.4099285725450007
sg12
F1238927.9496
sg13
Nsba(iGraphics.simplified_new
Scores
p127
(dp128
g10
I55
sg11
F0.3637474787502056
sg12
F1209371.5413
sg13
Nsba(iGraphics.simplified_new
Scores
p129
(dp130
g10
I68
sg11
F0.4379540521641706
sg12
F1094444.98
sg13
Nsba(iGraphics.simplified_new
Scores
p131
(dp132
g10
I18
sg11
F0.442070675949023
sg12
F1124540.8242
sg13
Nsba(iGraphics.simplified_new
Scores
p133
(dp134
g10
I36
sg11
F0.440145365839698
sg12
F1164923.3612
sg13
Nsba(iGraphics.simplified_new
Scores
p135
(dp136
g10
I39
sg11
F0.3864626736079672
sg12
F1153358.2266
sg13
Nsba(iGraphics.simplified_new
Scores
p137
(dp138
g10
I66
sg11
F0.3861881215658541
sg12
F1169478.4373
sg13
Nsba(iGraphics.simplified_new
Scores
p139
(dp140
g10
I48
sg11
F0.4462931192772847
sg12
F1187839.5478
sg13
Nsba(iGraphics.simplified_new
Scores
p141
(dp142
g10
I44
sg11
F0.4451998964300024
sg12
F1158088.3943
sg13
Nsbasg52
S'SWAY5'
p143
sbsS'SWAY5_2500'
p144
(iGraphics.simplified_new
SolutionHolder
p145
(dp146
g4
g5
sg6
(lp147
(iGraphics.simplified_new
Scores
p148
(dp149
g10
I44
sg11
F0.45115276930517434
sg12
F1225237.2029
sg13
Nsba(iGraphics.simplified_new
Scores
p150
(dp151
g10
I27
sg11
F0.6373017309274173
sg12
F1221905.0532
sg13
Nsba(iGraphics.simplified_new
Scores
p152
(dp153
g10
I39
sg11
F0.3600643049274999
sg12
F1140477.301
sg13
Nsba(iGraphics.simplified_new
Scores
p154
(dp155
g10
I29
sg11
F0.3691149982695528
sg12
F1243949.5135
sg13
Nsba(iGraphics.simplified_new
Scores
p156
(dp157
g10
I27
sg11
F0.41089894513496367
sg12
F1205547.743
sg13
Nsba(iGraphics.simplified_new
Scores
p158
(dp159
g10
I36
sg11
F0.49894806474132014
sg12
F1188657.855
sg13
Nsba(iGraphics.simplified_new
Scores
p160
(dp161
g10
I29
sg11
F0.528838945918017
sg12
F1226925.4796
sg13
Nsba(iGraphics.simplified_new
Scores
p162
(dp163
g10
I29
sg11
F0.4016164600196777
sg12
F1158582.1458
sg13
Nsba(iGraphics.simplified_new
Scores
p164
(dp165
g10
I39
sg11
F0.39202720655183415
sg12
F1222792.6405
sg13
Nsba(iGraphics.simplified_new
Scores
p166
(dp167
g10
I19
sg11
F0.5192934536264201
sg12
F1003707.3735
sg13
Nsba(iGraphics.simplified_new
Scores
p168
(dp169
g10
I39
sg11
F0.5333585288940831
sg12
F1257621.982
sg13
Nsba(iGraphics.simplified_new
Scores
p170
(dp171
g10
I30
sg11
F0.41876761702853943
sg12
F1142405.934
sg13
Nsba(iGraphics.simplified_new
Scores
p172
(dp173
g10
I33
sg11
F0.4563282002935342
sg12
F1218412.5432
sg13
Nsba(iGraphics.simplified_new
Scores
p174
(dp175
g10
I29
sg11
F0.4485805876119397
sg12
F1209000.4462
sg13
Nsba(iGraphics.simplified_new
Scores
p176
(dp177
g10
I39
sg11
F0.3862309080879091
sg12
F1177719.3477
sg13
Nsba(iGraphics.simplified_new
Scores
p178
(dp179
g10
I39
sg11
F0.45274200804240583
sg12
F1212157.21
sg13
Nsba(iGraphics.simplified_new
Scores
p180
(dp181
g10
I48
sg11
F0.45389401913593075
sg12
F990287.4677
sg13
Nsba(iGraphics.simplified_new
Scores
p182
(dp183
g10
I32
sg11
F0.3688348497920954
sg12
F1228915.0385
sg13
Nsba(iGraphics.simplified_new
Scores
p184
(dp185
g10
I34
sg11
F0.4900218691143555
sg12
F1037015.0729
sg13
Nsba(iGraphics.simplified_new
Scores
p186
(dp187
g10
I36
sg11
F0.5539221391744218
sg12
F1240600.4948
sg13
Nsbasg52
S'SWAY5'
p188
sbsS'SWAY5_10000'
p189
(iGraphics.simplified_new
SolutionHolder
p190
(dp191
g4
g5
sg6
(lp192
(iGraphics.simplified_new
Scores
p193
(dp194
g10
I36
sg11
F0.44354816260227586
sg12
F1250067.7919
sg13
Nsba(iGraphics.simplified_new
Scores
p195
(dp196
g10
I68
sg11
F0.4717948555755015
sg12
F866048.6052
sg13
Nsba(iGraphics.simplified_new
Scores
p197
(dp198
g10
I39
sg11
F0.47415036934814253
sg12
F1164907.19
sg13
Nsba(iGraphics.simplified_new
Scores
p199
(dp200
g10
I39
sg11
F0.485399551114072
sg12
F1070031.3827
sg13
Nsba(iGraphics.simplified_new
Scores
p201
(dp202
g10
I75
sg11
F0.46325080396950163
sg12
F1238845.4683
sg13
Nsba(iGraphics.simplified_new
Scores
p203
(dp204
g10
I55
sg11
F0.4551165320527247
sg12
F1238463.4717
sg13
Nsba(iGraphics.simplified_new
Scores
p205
(dp206
g10
I68
sg11
F0.3661251337957408
sg12
F1256917.6664
sg13
Nsba(iGraphics.simplified_new
Scores
p207
(dp208
g10
I59
sg11
F0.4032670916726517
sg12
F1177319.7449
sg13
Nsba(iGraphics.simplified_new
Scores
p209
(dp210
g10
I48
sg11
F0.5295145714109948
sg12
F1222890.9584
sg13
Nsba(iGraphics.simplified_new
Scores
p211
(dp212
g10
I76
sg11
F0.4780826297346572
sg12
F1266277.0926
sg13
Nsba(iGraphics.simplified_new
Scores
p213
(dp214
g10
I78
sg11
F0.4138123320724144
sg12
F1241973.9161
sg13
Nsba(iGraphics.simplified_new
Scores
p215
(dp216
g10
I27
sg11
F0.4169005063403791
sg12
F1071714.994
sg13
Nsba(iGraphics.simplified_new
Scores
p217
(dp218
g10
I69
sg11
F0.4261835450206117
sg12
F1166336.6812
sg13
Nsba(iGraphics.simplified_new
Scores
p219
(dp220
g10
I66
sg11
F0.47060002456421307
sg12
F1242051.499
sg13
Nsba(iGraphics.simplified_new
Scores
p221
(dp222
g10
I64
sg11
F0.47380947468509843
sg12
F1259591.8345
sg13
Nsba(iGraphics.simplified_new
Scores
p223
(dp224
g10
I25
sg11
F0.5674804840528316
sg12
F1175946.5552
sg13
Nsba(iGraphics.simplified_new
Scores
p225
(dp226
g10
I29
sg11
F0.44967638628290146
sg12
F1245019.5743
sg13
Nsba(iGraphics.simplified_new
Scores
p227
(dp228
g10
I96
sg11
F0.450281582979765
sg12
F1228451.7363
sg13
Nsba(iGraphics.simplified_new
Scores
p229
(dp230
g10
I78
sg11
F0.3184861288601609
sg12
F1270026.2134
sg13
Nsba(iGraphics.simplified_new
Scores
p231
(dp232
g10
I66
sg11
F0.4229422700955874
sg12
F1237156.3611
sg13
Nsbasg52
S'SWAY5'
p233
sbsS'NSGAII_100'
p234
(iGraphics.simplified_new
SolutionHolder
p235
(dp236
g4
g5
sg6
(lp237
(iGraphics.simplified_new
Scores
p238
(dp239
g10
I100
sg11
F0.7270861468287794
sg12
F1323780.4843
sg13
Nsba(iGraphics.simplified_new
Scores
p240
(dp241
g10
I100
sg11
F0.5605828751313384
sg12
F1312180.8707
sg13
Nsba(iGraphics.simplified_new
Scores
p242
(dp243
g10
I100
sg11
F0.7021270943403364
sg12
F1326376.4216
sg13
Nsba(iGraphics.simplified_new
Scores
p244
(dp245
g10
I100
sg11
F0.8126041423911268
sg12
F1316723.755
sg13
Nsba(iGraphics.simplified_new
Scores
p246
(dp247
g10
I100
sg11
F0.6498477514262061
sg12
F1319156.1954
sg13
Nsba(iGraphics.simplified_new
Scores
p248
(dp249
g10
I100
sg11
F0.6215399506112778
sg12
F1323010.2408
sg13
Nsba(iGraphics.simplified_new
Scores
p250
(dp251
g10
I100
sg11
F0.6348285081468976
sg12
F1320881.7038
sg13
Nsba(iGraphics.simplified_new
Scores
p252
(dp253
g10
I100
sg11
F0.6705563972258262
sg12
F1311245.9327
sg13
Nsba(iGraphics.simplified_new
Scores
p254
(dp255
g10
I100
sg11
F0.7447293791064714
sg12
F1317008.5296
sg13
Nsba(iGraphics.simplified_new
Scores
p256
(dp257
g10
I100
sg11
F0.6832323430434899
sg12
F1316045.6701
sg13
Nsba(iGraphics.simplified_new
Scores
p258
(dp259
g10
I100
sg11
F0.7530837700836696
sg12
F1321356.5786
sg13
Nsba(iGraphics.simplified_new
Scores
p260
(dp261
g10
I100
sg11
F0.6492100038701798
sg12
F1313602.2505
sg13
Nsba(iGraphics.simplified_new
Scores
p262
(dp263
g10
I100
sg11
F0.6217996578052979
sg12
F1317357.9927
sg13
Nsba(iGraphics.simplified_new
Scores
p264
(dp265
g10
I100
sg11
F0.5722269253131747
sg12
F1313407.7939
sg13
Nsba(iGraphics.simplified_new
Scores
p266
(dp267
g10
I100
sg11
F0.7000156581994031
sg12
F1310987.5721
sg13
Nsba(iGraphics.simplified_new
Scores
p268
(dp269
g10
I100
sg11
F0.6710985023205837
sg12
F1319075.1007
sg13
Nsba(iGraphics.simplified_new
Scores
p270
(dp271
g10
I100
sg11
F0.7411481974072974
sg12
F1309105.7433
sg13
Nsba(iGraphics.simplified_new
Scores
p272
(dp273
g10
I100
sg11
F0.8156202547077017
sg12
F1314761.3067
sg13
Nsba(iGraphics.simplified_new
Scores
p274
(dp275
g10
I100
sg11
F0.629381887316801
sg12
F1314386.9435
sg13
Nsba(iGraphics.simplified_new
Scores
p276
(dp277
g10
I100
sg11
F0.7093436245476826
sg12
F1311764.0288
sg13
Nsbasg52
S'NSGAII'
p278
sbs.