(dp0
S'xomo_ground'
p1
(dp2
S'Spread'
p3
(lp4
(lp5
S'SPEA2_100'
p6
aF0.6883807436029417
aF0.7966355238431214
aF0.6796746425685802
aF0.7103838295163569
aF0.7393386667577543
aF0.7398296153725508
aF0.6422017004752907
aF0.6955327393862867
aF0.6747338193497376
aF0.6659985467026376
aF0.7806263493868086
aF0.7170542928304898
aF0.7377990351277335
aF0.7190022066479925
aF0.6654837530262179
aF0.7067544861938029
aF0.6687794334755026
aF0.669263222062478
aF0.7112697098010103
aF0.7578233564550036
aa(lp7
S'SWAY5_1225'
p8
aF0.5366429362561349
aF0.5268507150063054
aF0.5696292810810891
aF0.4984843709549955
aF0.557188836826865
aF0.6195167207858162
aF0.5130206960562804
aF0.5922415815245076
aF0.3826750613880123
aF0.33528021079906195
aF0.5794718200445327
aF0.6462919599324196
aF0.51068589635996
aF0.4907950059878556
aF0.5357684656351261
aF0.4742000759351142
aF0.4754610782409643
aF0.48703037274435784
aF0.43235905363842375
aF0.4484495448870198
aa(lp9
S'SWAY5_5000'
p10
aF0.4909012712237533
aF0.4479910602542109
aF0.4975010981402755
aF0.46655942457378113
aF0.4628544733371402
aF0.4804866809910001
aF0.5098545846910514
aF0.4029914843408547
aF0.45546051385279185
aF0.45737011416476925
aF0.39964944105947703
aF0.48382922238578147
aF0.49862580353346037
aF0.4054305591460228
aF0.3808187646451555
aF0.46725939012467177
aF0.4179268782927125
aF0.42027571251117934
aF0.5616491423964267
aF0.40721747742498937
aa(lp11
S'SWAY5_2500'
p12
aF0.35091717184844096
aF0.5986574613606349
aF0.678672919170189
aF0.43054799824576956
aF0.5205766469292123
aF0.43878295631379144
aF0.4882072244885109
aF0.5287677949886758
aF0.4179525587235653
aF0.452334979322506
aF0.43980131502787007
aF0.41160377933118897
aF0.5921892241896817
aF0.508314939139812
aF0.5210727741419832
aF0.48773036096686123
aF0.488546228035972
aF0.5284598063850967
aF0.47393876790436773
aF0.4638980343464335
aa(lp13
S'SWAY5_10000'
p14
aF0.4525710884111107
aF0.43025469473535227
aF0.4453037546551257
aF0.41591399800987555
aF0.392183238459854
aF0.4868148692728242
aF0.45921170045551996
aF0.40615706356934805
aF0.5276304885029263
aF0.4906353219998264
aF0.5242718632052287
aF0.49362201264482086
aF0.4337715270406529
aF0.42656227421606135
aF0.4029521153695922
aF0.4904608405785306
aF0.4611738392443969
aF0.4081543233602379
aF0.46377993414727897
aF0.42274493252919165
aa(lp15
S'NSGAII_100'
p16
aF0.7240672576878214
aF0.7658151333495404
aF0.6672603250934522
aF0.667723366870462
aF0.7349080907237949
aF0.6160512499618326
aF0.7170238012331704
aF0.6714101776089205
aF0.7932910746323177
aF0.6825895343359416
aF0.6665745551998604
aF0.5931078211789517
aF0.7218168067643885
aF0.6744778949580292
aF0.7023570026006773
aF0.7029887836524259
aF0.6637436450463934
aF0.7076355663713725
aF0.8099457558569542
aF0.7577434112371505
aasS'HV'
p17
(lp18
(lp19
S'SPEA2_100'
p20
aF143337801.722
aF142756126.5741
aF144391658.9253
aF144733088.2726
aF143501563.6393
aF142955249.8243
aF141822764.1987
aF144721098.6784
aF143058853.381
aF144593222.48
aF145029770.6335
aF145502451.9513
aF143845842.9745
aF142770544.0604
aF143283900.2599
aF144603611.9165
aF143628782.6625
aF143051620.819
aF142509074.8735
aF140913344.8961
aa(lp21
S'SWAY5_1225'
p22
aF132468347.7785
aF129314888.7064
aF126106374.0288
aF131115427.8428
aF117028423.4943
aF115047561.2874
aF136002614.2702
aF120441420.1028
aF134584459.4074
aF136272954.8485
aF120971886.4674
aF118648114.807
aF117877621.7962
aF109144412.4957
aF129996623.2897
aF130479946.215
aF125154870.5338
aF132708696.186
aF128624873.5243
aF123360290.0701
aa(lp23
S'SWAY5_5000'
p24
aF130426670.6361
aF137385070.5888
aF126929343.2996
aF134997811.0655
aF140627821.146
aF134829707.6859
aF134410063.5043
aF132960493.8749
aF137624292.556
aF125535034.3192
aF129649164.8128
aF127861486.68
aF131375580.0705
aF125944252.5795
aF135494865.2828
aF131205850.4553
aF131435289.1298
aF128090211.5263
aF136690739.5666
aF129100393.1129
aa(lp25
S'SWAY5_2500'
p26
aF134449266.154
aF125728748.6539
aF114493994.7199
aF128243201.7805
aF134164101.596
aF118935628.0059
aF132847427.7195
aF126478465.2019
aF128957970.9312
aF133918807.8714
aF125887241.7096
aF135874440.2296
aF129099799.5177
aF137046191.7523
aF123447090.6483
aF127040362.6346
aF126447981.2393
aF133678537.3227
aF128034591.8249
aF133277125.8497
aa(lp27
S'SWAY5_10000'
p28
aF133113478.4769
aF138711925.3873
aF133695308.7601
aF134395991.5795
aF134984082.1571
aF130382334.2377
aF136915300.6644
aF136560409.6026
aF139072988.0436
aF137415981.3539
aF130966330.5097
aF129826478.8637
aF140055492.4443
aF134664378.2014
aF135072035.2071
aF128921849.9607
aF137179852.3872
aF131392960.1391
aF131327590.7949
aF139016276.9107
aa(lp29
S'NSGAII_100'
p30
aF142127621.2096
aF145715192.1075
aF141524809.5168
aF143333380.437
aF143472067.9894
aF143497096.0904
aF143201837.1791
aF142371297.1154
aF142985078.4722
aF143371887.8306
aF143770978.9356
aF144231936.1911
aF142768036.6511
aF143091797.7979
aF144438221.3973
aF144302718.5366
aF144158533.1238
aF143188146.2674
aF144520916.4701
aF143819574.2496
aass.