(dp0
S'SPEA2_100'
p1
(iGraphics.simplified_new
SolutionHolder
p2
(dp3
S'problem'
p4
S'xomo_all'
p5
sS'repeats'
p6
(lp7
(iGraphics.simplified_new
Scores
p8
(dp9
S'pfs'
p10
I100
sS'spread'
p11
F0.7307341200404455
sS'hv'
p12
F144448648.6822
sS'igd'
p13
Nsba(iGraphics.simplified_new
Scores
p14
(dp15
g10
I100
sg11
F0.6847085199885589
sg12
F143078854.5188
sg13
Nsba(iGraphics.simplified_new
Scores
p16
(dp17
g10
I100
sg11
F0.6142958974032611
sg12
F143067989.6228
sg13
Nsba(iGraphics.simplified_new
Scores
p18
(dp19
g10
I100
sg11
F0.672284702723676
sg12
F145700833.1864
sg13
Nsba(iGraphics.simplified_new
Scores
p20
(dp21
g10
I100
sg11
F0.7285654504534174
sg12
F142571663.601
sg13
Nsba(iGraphics.simplified_new
Scores
p22
(dp23
g10
I100
sg11
F0.7430204915519152
sg12
F143507697.0906
sg13
Nsba(iGraphics.simplified_new
Scores
p24
(dp25
g10
I100
sg11
F0.6735496496286494
sg12
F143699323.615
sg13
Nsba(iGraphics.simplified_new
Scores
p26
(dp27
g10
I100
sg11
F0.6154199118144118
sg12
F141654074.5683
sg13
Nsba(iGraphics.simplified_new
Scores
p28
(dp29
g10
I100
sg11
F0.7332966132697158
sg12
F143677665.3914
sg13
Nsba(iGraphics.simplified_new
Scores
p30
(dp31
g10
I100
sg11
F0.7318527349864872
sg12
F144265769.8969
sg13
Nsba(iGraphics.simplified_new
Scores
p32
(dp33
g10
I100
sg11
F0.6769046247360343
sg12
F143762973.6139
sg13
Nsba(iGraphics.simplified_new
Scores
p34
(dp35
g10
I100
sg11
F0.6964787938605242
sg12
F143187816.7066
sg13
Nsba(iGraphics.simplified_new
Scores
p36
(dp37
g10
I100
sg11
F0.7066516523499389
sg12
F143830973.2669
sg13
Nsba(iGraphics.simplified_new
Scores
p38
(dp39
g10
I100
sg11
F0.7089899349705941
sg12
F145366983.243
sg13
Nsba(iGraphics.simplified_new
Scores
p40
(dp41
g10
I100
sg11
F0.7502414435822987
sg12
F144811467.8713
sg13
Nsba(iGraphics.simplified_new
Scores
p42
(dp43
g10
I100
sg11
F0.6239317938195603
sg12
F142753179.6788
sg13
Nsba(iGraphics.simplified_new
Scores
p44
(dp45
g10
I100
sg11
F0.7670160825932779
sg12
F144016836.408
sg13
Nsba(iGraphics.simplified_new
Scores
p46
(dp47
g10
I100
sg11
F0.6414085537072851
sg12
F144597414.0861
sg13
Nsba(iGraphics.simplified_new
Scores
p48
(dp49
g10
I100
sg11
F0.7381479661058549
sg12
F142753010.9671
sg13
Nsba(iGraphics.simplified_new
Scores
p50
(dp51
g10
I100
sg11
F0.7430624267700441
sg12
F143066740.8814
sg13
NsbasS'algorithm'
p52
S'SPEA2'
p53
sbsS'SWAY5_8192'
p54
(iGraphics.simplified_new
SolutionHolder
p55
(dp56
g4
g5
sg6
(lp57
(iGraphics.simplified_new
Scores
p58
(dp59
g10
I72
sg11
F0.40474370115271263
sg12
F130015830.9775
sg13
Nsba(iGraphics.simplified_new
Scores
p60
(dp61
g10
I36
sg11
F0.48423454464159754
sg12
F125976989.763
sg13
Nsba(iGraphics.simplified_new
Scores
p62
(dp63
g10
I84
sg11
F0.40728784373992344
sg12
F135686557.8069
sg13
Nsba(iGraphics.simplified_new
Scores
p64
(dp65
g10
I31
sg11
F0.5094255499637668
sg12
F139205620.1277
sg13
Nsba(iGraphics.simplified_new
Scores
p66
(dp67
g10
I54
sg11
F0.5077055146847871
sg12
F138750577.2516
sg13
Nsba(iGraphics.simplified_new
Scores
p68
(dp69
g10
I31
sg11
F0.571957982587176
sg12
F134366139.4656
sg13
Nsba(iGraphics.simplified_new
Scores
p70
(dp71
g10
I36
sg11
F0.515143021322017
sg12
F124197030.869
sg13
Nsba(iGraphics.simplified_new
Scores
p72
(dp73
g10
I48
sg11
F0.4618061124715752
sg12
F134481804.3029
sg13
Nsba(iGraphics.simplified_new
Scores
p74
(dp75
g10
I63
sg11
F0.4762005018387077
sg12
F133768087.9169
sg13
Nsba(iGraphics.simplified_new
Scores
p76
(dp77
g10
I63
sg11
F0.46461980460917973
sg12
F127938066.9884
sg13
Nsba(iGraphics.simplified_new
Scores
p78
(dp79
g10
I86
sg11
F0.37486506381842455
sg12
F137713907.7985
sg13
Nsba(iGraphics.simplified_new
Scores
p80
(dp81
g10
I62
sg11
F0.44504010414776046
sg12
F136036506.7174
sg13
Nsba(iGraphics.simplified_new
Scores
p82
(dp83
g10
I46
sg11
F0.4596941502833044
sg12
F130824095.2102
sg13
Nsba(iGraphics.simplified_new
Scores
p84
(dp85
g10
I71
sg11
F0.5670750014523563
sg12
F137179056.5455
sg13
Nsba(iGraphics.simplified_new
Scores
p86
(dp87
g10
I36
sg11
F0.5513969848216496
sg12
F120468919.5857
sg13
Nsba(iGraphics.simplified_new
Scores
p88
(dp89
g10
I45
sg11
F0.4411107396842675
sg12
F129478948.478
sg13
Nsba(iGraphics.simplified_new
Scores
p90
(dp91
g10
I48
sg11
F0.44471628477427166
sg12
F141142344.8064
sg13
Nsba(iGraphics.simplified_new
Scores
p92
(dp93
g10
I72
sg11
F0.4707045896016698
sg12
F135024870.8868
sg13
Nsba(iGraphics.simplified_new
Scores
p94
(dp95
g10
I64
sg11
F0.37853185337475753
sg12
F134831098.3762
sg13
Nsba(iGraphics.simplified_new
Scores
p96
(dp97
g10
I63
sg11
F0.4226888086136558
sg12
F124930175.6331
sg13
Nsbasg52
S'SWAY5'
p98
sbsS'SWAY5_1024'
p99
(iGraphics.simplified_new
SolutionHolder
p100
(dp101
g4
g5
sg6
(lp102
(iGraphics.simplified_new
Scores
p103
(dp104
g10
I28
sg11
F0.5924589438458938
sg12
F133306251.8662
sg13
Nsba(iGraphics.simplified_new
Scores
p105
(dp106
g10
I16
sg11
F0.4115973687521161
sg12
F128099545.8885
sg13
Nsba(iGraphics.simplified_new
Scores
p107
(dp108
g10
I21
sg11
F0.47616260971029145
sg12
F128660867.1322
sg13
Nsba(iGraphics.simplified_new
Scores
p109
(dp110
g10
I28
sg11
F0.5458734892638338
sg12
F133376127.2005
sg13
Nsba(iGraphics.simplified_new
Scores
p111
(dp112
g10
I18
sg11
F0.6848239136505859
sg12
F125552313.5812
sg13
Nsba(iGraphics.simplified_new
Scores
p113
(dp114
g10
I31
sg11
F0.53152040342117
sg12
F120114287.9254
sg13
Nsba(iGraphics.simplified_new
Scores
p115
(dp116
g10
I28
sg11
F0.4947600804906136
sg12
F129970031.157
sg13
Nsba(iGraphics.simplified_new
Scores
p117
(dp118
g10
I28
sg11
F0.44328644049604027
sg12
F132380495.3789
sg13
Nsba(iGraphics.simplified_new
Scores
p119
(dp120
g10
I31
sg11
F0.48665532538838685
sg12
F128991811.3069
sg13
Nsba(iGraphics.simplified_new
Scores
p121
(dp122
g10
I24
sg11
F0.618056539843173
sg12
F136993494.701
sg13
Nsba(iGraphics.simplified_new
Scores
p123
(dp124
g10
I31
sg11
F0.563955389725157
sg12
F139186743.027
sg13
Nsba(iGraphics.simplified_new
Scores
p125
(dp126
g10
I16
sg11
F0.5112063085704575
sg12
F121021986.9631
sg13
Nsba(iGraphics.simplified_new
Scores
p127
(dp128
g10
I16
sg11
F0.5054472517409853
sg12
F122121648.3366
sg13
Nsba(iGraphics.simplified_new
Scores
p129
(dp130
g10
I24
sg11
F0.5007396211392988
sg12
F130340937.7402
sg13
Nsba(iGraphics.simplified_new
Scores
p131
(dp132
g10
I18
sg11
F0.5570814152634403
sg12
F128390139.1928
sg13
Nsba(iGraphics.simplified_new
Scores
p133
(dp134
g10
I24
sg11
F0.4878544853701698
sg12
F131490310.1001
sg13
Nsba(iGraphics.simplified_new
Scores
p135
(dp136
g10
I31
sg11
F0.5251768685863863
sg12
F139068650.318
sg13
Nsba(iGraphics.simplified_new
Scores
p137
(dp138
g10
I16
sg11
F0.6102662476424651
sg12
F116516057.5904
sg13
Nsba(iGraphics.simplified_new
Scores
p139
(dp140
g10
I27
sg11
F0.5431845673881174
sg12
F123445093.9071
sg13
Nsba(iGraphics.simplified_new
Scores
p141
(dp142
g10
I19
sg11
F0.5537335086803653
sg12
F133449046.7615
sg13
Nsbasg52
S'SWAY5'
p143
sbsS'SWAY5_2048'
p144
(iGraphics.simplified_new
SolutionHolder
p145
(dp146
g4
g5
sg6
(lp147
(iGraphics.simplified_new
Scores
p148
(dp149
g10
I32
sg11
F0.4635326153667966
sg12
F126864551.9592
sg13
Nsba(iGraphics.simplified_new
Scores
p150
(dp151
g10
I24
sg11
F0.46142577299934767
sg12
F130251188.9119
sg13
Nsba(iGraphics.simplified_new
Scores
p152
(dp153
g10
I36
sg11
F0.5974260505534079
sg12
F131264024.9715
sg13
Nsba(iGraphics.simplified_new
Scores
p154
(dp155
g10
I32
sg11
F0.4725241409896495
sg12
F135929781.9132
sg13
Nsba(iGraphics.simplified_new
Scores
p156
(dp157
g10
I27
sg11
F0.378286207494706
sg12
F128720307.0943
sg13
Nsba(iGraphics.simplified_new
Scores
p158
(dp159
g10
I23
sg11
F0.40356256678825186
sg12
F136446050.8744
sg13
Nsba(iGraphics.simplified_new
Scores
p160
(dp161
g10
I24
sg11
F0.42155699809724995
sg12
F120228649.35
sg13
Nsba(iGraphics.simplified_new
Scores
p162
(dp163
g10
I27
sg11
F0.47102593507655816
sg12
F131159914.6418
sg13
Nsba(iGraphics.simplified_new
Scores
p164
(dp165
g10
I24
sg11
F0.4253160715497161
sg12
F131576451.3126
sg13
Nsba(iGraphics.simplified_new
Scores
p166
(dp167
g10
I28
sg11
F0.5223830688911786
sg12
F124110172.7795
sg13
Nsba(iGraphics.simplified_new
Scores
p168
(dp169
g10
I24
sg11
F0.4870750887569664
sg12
F131159430.3755
sg13
Nsba(iGraphics.simplified_new
Scores
p170
(dp171
g10
I31
sg11
F0.5298303993158676
sg12
F130232970.1632
sg13
Nsba(iGraphics.simplified_new
Scores
p172
(dp173
g10
I16
sg11
F0.5405332615215
sg12
F130811499.5486
sg13
Nsba(iGraphics.simplified_new
Scores
p174
(dp175
g10
I32
sg11
F0.42728237638657346
sg12
F136743266.1141
sg13
Nsba(iGraphics.simplified_new
Scores
p176
(dp177
g10
I31
sg11
F0.41950300121226136
sg12
F121727794.3204
sg13
Nsba(iGraphics.simplified_new
Scores
p178
(dp179
g10
I42
sg11
F0.42207177331654905
sg12
F128913206.6137
sg13
Nsba(iGraphics.simplified_new
Scores
p180
(dp181
g10
I24
sg11
F0.4144996048528876
sg12
F129908110.0323
sg13
Nsba(iGraphics.simplified_new
Scores
p182
(dp183
g10
I42
sg11
F0.4373577304726501
sg12
F133723650.5216
sg13
Nsba(iGraphics.simplified_new
Scores
p184
(dp185
g10
I34
sg11
F0.43997487935331275
sg12
F130662489.8757
sg13
Nsba(iGraphics.simplified_new
Scores
p186
(dp187
g10
I27
sg11
F0.4613217384673277
sg12
F127313694.4417
sg13
Nsbasg52
S'SWAY5'
p188
sbsS'SWAY5_10000'
p189
(iGraphics.simplified_new
SolutionHolder
p190
(dp191
g4
g5
sg6
(lp192
(iGraphics.simplified_new
Scores
p193
(dp194
g10
I73
sg11
F0.4552921506319725
sg12
F129821996.7577
sg13
Nsba(iGraphics.simplified_new
Scores
p195
(dp196
g10
I31
sg11
F0.4830986165450189
sg12
F122361522.0959
sg13
Nsba(iGraphics.simplified_new
Scores
p197
(dp198
g10
I34
sg11
F0.6159771547457906
sg12
F132073688.9582
sg13
Nsba(iGraphics.simplified_new
Scores
p199
(dp200
g10
I63
sg11
F0.469832739241951
sg12
F136880356.4611
sg13
Nsba(iGraphics.simplified_new
Scores
p201
(dp202
g10
I58
sg11
F0.4382459615137752
sg12
F133717586.1034
sg13
Nsba(iGraphics.simplified_new
Scores
p203
(dp204
g10
I51
sg11
F0.48635156811743585
sg12
F139185229.2674
sg13
Nsba(iGraphics.simplified_new
Scores
p205
(dp206
g10
I31
sg11
F0.413084392559859
sg12
F134829396.7528
sg13
Nsba(iGraphics.simplified_new
Scores
p207
(dp208
g10
I82
sg11
F0.45478889274585105
sg12
F136907662.0039
sg13
Nsba(iGraphics.simplified_new
Scores
p209
(dp210
g10
I39
sg11
F0.49278958273652834
sg12
F133078935.0701
sg13
Nsba(iGraphics.simplified_new
Scores
p211
(dp212
g10
I68
sg11
F0.40091212983713714
sg12
F136470303.629
sg13
Nsba(iGraphics.simplified_new
Scores
p213
(dp214
g10
I82
sg11
F0.39776112592002705
sg12
F139844120.5406
sg13
Nsba(iGraphics.simplified_new
Scores
p215
(dp216
g10
I73
sg11
F0.4889737289914091
sg12
F133731679.0921
sg13
Nsba(iGraphics.simplified_new
Scores
p217
(dp218
g10
I96
sg11
F0.4941963311941438
sg12
F135030229.4475
sg13
Nsba(iGraphics.simplified_new
Scores
p219
(dp220
g10
I88
sg11
F0.4980857398451389
sg12
F138934297.8616
sg13
Nsba(iGraphics.simplified_new
Scores
p221
(dp222
g10
I39
sg11
F0.5279095663601053
sg12
F134361448.7674
sg13
Nsba(iGraphics.simplified_new
Scores
p223
(dp224
g10
I59
sg11
F0.5705232121427625
sg12
F131001882.2884
sg13
Nsba(iGraphics.simplified_new
Scores
p225
(dp226
g10
I39
sg11
F0.5134533908944642
sg12
F128360752.0348
sg13
Nsba(iGraphics.simplified_new
Scores
p227
(dp228
g10
I78
sg11
F0.45929151733490237
sg12
F134486678.4049
sg13
Nsba(iGraphics.simplified_new
Scores
p229
(dp230
g10
I58
sg11
F0.4615689128349264
sg12
F136428009.3407
sg13
Nsba(iGraphics.simplified_new
Scores
p231
(dp232
g10
I78
sg11
F0.4488295210895966
sg12
F137427055.6964
sg13
Nsbasg52
S'SWAY5'
p233
sbsS'SWAY5_4096'
p234
(iGraphics.simplified_new
SolutionHolder
p235
(dp236
g4
g5
sg6
(lp237
(iGraphics.simplified_new
Scores
p238
(dp239
g10
I56
sg11
F0.5322773168596929
sg12
F142158522.1371
sg13
Nsba(iGraphics.simplified_new
Scores
p240
(dp241
g10
I18
sg11
F0.5714857047318628
sg12
F124507024.5734
sg13
Nsba(iGraphics.simplified_new
Scores
p242
(dp243
g10
I45
sg11
F0.4468086629093148
sg12
F131221403.7135
sg13
Nsba(iGraphics.simplified_new
Scores
p244
(dp245
g10
I56
sg11
F0.46167244212768727
sg12
F137160945.5397
sg13
Nsba(iGraphics.simplified_new
Scores
p246
(dp247
g10
I48
sg11
F0.4733233969778922
sg12
F132885236.7239
sg13
Nsba(iGraphics.simplified_new
Scores
p248
(dp249
g10
I24
sg11
F0.4593781686498867
sg12
F135091524.4995
sg13
Nsba(iGraphics.simplified_new
Scores
p250
(dp251
g10
I16
sg11
F0.5488018188382676
sg12
F140990665.0863
sg13
Nsba(iGraphics.simplified_new
Scores
p252
(dp253
g10
I42
sg11
F0.4947123982911025
sg12
F136763332.6573
sg13
Nsba(iGraphics.simplified_new
Scores
p254
(dp255
g10
I18
sg11
F0.5923705471776269
sg12
F134684630.0138
sg13
Nsba(iGraphics.simplified_new
Scores
p256
(dp257
g10
I48
sg11
F0.4812587116922234
sg12
F130975160.6647
sg13
Nsba(iGraphics.simplified_new
Scores
p258
(dp259
g10
I32
sg11
F0.44672717677367774
sg12
F134169112.9848
sg13
Nsba(iGraphics.simplified_new
Scores
p260
(dp261
g10
I60
sg11
F0.5123331903917276
sg12
F134619439.1885
sg13
Nsba(iGraphics.simplified_new
Scores
p262
(dp263
g10
I16
sg11
F0.6254699680632249
sg12
F118534147.2978
sg13
Nsba(iGraphics.simplified_new
Scores
p264
(dp265
g10
I48
sg11
F0.49076848885381325
sg12
F131157410.0567
sg13
Nsba(iGraphics.simplified_new
Scores
p266
(dp267
g10
I42
sg11
F0.43056029007753965
sg12
F141064267.9598
sg13
Nsba(iGraphics.simplified_new
Scores
p268
(dp269
g10
I40
sg11
F0.432902949353181
sg12
F130326093.2011
sg13
Nsba(iGraphics.simplified_new
Scores
p270
(dp271
g10
I54
sg11
F0.41964298644015985
sg12
F134357320.2486
sg13
Nsba(iGraphics.simplified_new
Scores
p272
(dp273
g10
I31
sg11
F0.4077759312436472
sg12
F132305382.8907
sg13
Nsba(iGraphics.simplified_new
Scores
p274
(dp275
g10
I27
sg11
F0.46201569135840526
sg12
F133545228.185
sg13
Nsba(iGraphics.simplified_new
Scores
p276
(dp277
g10
I63
sg11
F0.4826789413770875
sg12
F133459533.1996
sg13
Nsbasg52
S'SWAY5'
p278
sbsS'SWAY5_512'
p279
(iGraphics.simplified_new
SolutionHolder
p280
(dp281
g4
g5
sg6
(lp282
(iGraphics.simplified_new
Scores
p283
(dp284
g10
I13
sg11
F0.46315490050472646
sg12
F122978932.6142
sg13
Nsba(iGraphics.simplified_new
Scores
p285
(dp286
g10
I16
sg11
F0.5573904282942814
sg12
F122542278.5779
sg13
Nsba(iGraphics.simplified_new
Scores
p287
(dp288
g10
I16
sg11
F0.43538021030953317
sg12
F118931002.7081
sg13
Nsba(iGraphics.simplified_new
Scores
p289
(dp290
g10
I16
sg11
F0.5789753480531205
sg12
F119752832.627
sg13
Nsba(iGraphics.simplified_new
Scores
p291
(dp292
g10
I12
sg11
F0.6087125909969641
sg12
F119045417.4397
sg13
Nsba(iGraphics.simplified_new
Scores
p293
(dp294
g10
I15
sg11
F0.5950931085228456
sg12
F125389323.2255
sg13
Nsba(iGraphics.simplified_new
Scores
p295
(dp296
g10
I16
sg11
F0.7743524185790691
sg12
F133393587.2881
sg13
Nsba(iGraphics.simplified_new
Scores
p297
(dp298
g10
I16
sg11
F0.4562917426925949
sg12
F123081954.8768
sg13
Nsba(iGraphics.simplified_new
Scores
p299
(dp300
g10
I12
sg11
F0.6159296722832611
sg12
F128841586.0037
sg13
Nsba(iGraphics.simplified_new
Scores
p301
(dp302
g10
I16
sg11
F0.5109989830736069
sg12
F123236175.2965
sg13
Nsba(iGraphics.simplified_new
Scores
p303
(dp304
g10
I16
sg11
F0.38581279452987977
sg12
F118291737.2401
sg13
Nsba(iGraphics.simplified_new
Scores
p305
(dp306
g10
I15
sg11
F0.5269007557276979
sg12
F123448735.8648
sg13
Nsba(iGraphics.simplified_new
Scores
p307
(dp308
g10
I18
sg11
F0.5424089330415021
sg12
F118436411.7234
sg13
Nsba(iGraphics.simplified_new
Scores
p309
(dp310
g10
I12
sg11
F0.47351882862113687
sg12
F126847064.1199
sg13
Nsba(iGraphics.simplified_new
Scores
p311
(dp312
g10
I16
sg11
F0.4980840679449562
sg12
F115697940.4536
sg13
Nsba(iGraphics.simplified_new
Scores
p313
(dp314
g10
I16
sg11
F0.4736716046282427
sg12
F116501566.4675
sg13
Nsba(iGraphics.simplified_new
Scores
p315
(dp316
g10
I16
sg11
F0.5488449483434991
sg12
F117113115.8051
sg13
Nsba(iGraphics.simplified_new
Scores
p317
(dp318
g10
I16
sg11
F0.689045014310127
sg12
F123121277.0157
sg13
Nsba(iGraphics.simplified_new
Scores
p319
(dp320
g10
I12
sg11
F0.6125646033233328
sg12
F126262141.5514
sg13
Nsba(iGraphics.simplified_new
Scores
p321
(dp322
g10
I14
sg11
F0.48380325652355116
sg12
F125024917.3002
sg13
Nsbasg52
S'SWAY5'
p323
sbsS'SWAY5_100'
p324
(iGraphics.simplified_new
SolutionHolder
p325
(dp326
g4
g5
sg6
(lp327
(iGraphics.simplified_new
Scores
p328
(dp329
g10
I6
sg11
F0.6727492276687745
sg12
F115359050.5011
sg13
Nsba(iGraphics.simplified_new
Scores
p330
(dp331
g10
I6
sg11
F0.5769879153646816
sg12
F116897759.943
sg13
Nsba(iGraphics.simplified_new
Scores
p332
(dp333
g10
I6
sg11
F0.8686003100163064
sg12
F113632251.3705
sg13
Nsba(iGraphics.simplified_new
Scores
p334
(dp335
g10
I6
sg11
F0.6181292600475025
sg12
F121883211.264
sg13
Nsba(iGraphics.simplified_new
Scores
p336
(dp337
g10
I6
sg11
F0.49685001555402664
sg12
F123268652.9949
sg13
Nsba(iGraphics.simplified_new
Scores
p338
(dp339
g10
I6
sg11
F0.6067347206701561
sg12
F128945146.126
sg13
Nsba(iGraphics.simplified_new
Scores
p340
(dp341
g10
I6
sg11
F0.777663840053776
sg12
F117775018.8085
sg13
Nsba(iGraphics.simplified_new
Scores
p342
(dp343
g10
I7
sg11
F0.5991637496539085
sg12
F137070521.7119
sg13
Nsba(iGraphics.simplified_new
Scores
p344
(dp345
g10
I7
sg11
F0.6675499253576095
sg12
F115980184.8235
sg13
Nsba(iGraphics.simplified_new
Scores
p346
(dp347
g10
I6
sg11
F0.6181722962188929
sg12
F103747334.978
sg13
Nsba(iGraphics.simplified_new
Scores
p348
(dp349
g10
I6
sg11
F0.6722133570432204
sg12
F112351967.8349
sg13
Nsba(iGraphics.simplified_new
Scores
p350
(dp351
g10
I6
sg11
F0.6876284619868318
sg12
F120857150.1204
sg13
Nsba(iGraphics.simplified_new
Scores
p352
(dp353
g10
I7
sg11
F0.6426362840733989
sg12
F120975409.86
sg13
Nsba(iGraphics.simplified_new
Scores
p354
(dp355
g10
I6
sg11
F0.6457946708072541
sg12
F130131051.5965
sg13
Nsba(iGraphics.simplified_new
Scores
p356
(dp357
g10
I9
sg11
F0.5287277341641261
sg12
F125521413.5432
sg13
Nsba(iGraphics.simplified_new
Scores
p358
(dp359
g10
I6
sg11
F0.7571569117007161
sg12
F118557361.8467
sg13
Nsba(iGraphics.simplified_new
Scores
p360
(dp361
g10
I6
sg11
F0.6625111484201782
sg12
F127684099.0611
sg13
Nsba(iGraphics.simplified_new
Scores
p362
(dp363
g10
I7
sg11
F0.7254085997480499
sg12
F110184882.7159
sg13
Nsba(iGraphics.simplified_new
Scores
p364
(dp365
g10
I6
sg11
F0.7156929201177408
sg12
F123479573.5411
sg13
Nsba(iGraphics.simplified_new
Scores
p366
(dp367
g10
I6
sg11
F0.6872527853553828
sg12
F104914411.2355
sg13
Nsbasg52
S'SWAY5'
p368
sbsS'NSGAII_100'
p369
(iGraphics.simplified_new
SolutionHolder
p370
(dp371
g4
g5
sg6
(lp372
(iGraphics.simplified_new
Scores
p373
(dp374
g10
I100
sg11
F0.7337762724703516
sg12
F142797037.1636
sg13
Nsba(iGraphics.simplified_new
Scores
p375
(dp376
g10
I100
sg11
F0.6798697780493235
sg12
F141845311.7344
sg13
Nsba(iGraphics.simplified_new
Scores
p377
(dp378
g10
I100
sg11
F0.7537322046704833
sg12
F143027177.4054
sg13
Nsba(iGraphics.simplified_new
Scores
p379
(dp380
g10
I100
sg11
F0.7526337661004513
sg12
F141174798.3597
sg13
Nsba(iGraphics.simplified_new
Scores
p381
(dp382
g10
I100
sg11
F0.6457633646957398
sg12
F141539793.8077
sg13
Nsba(iGraphics.simplified_new
Scores
p383
(dp384
g10
I100
sg11
F0.6169977118416629
sg12
F143326348.1436
sg13
Nsba(iGraphics.simplified_new
Scores
p385
(dp386
g10
I100
sg11
F0.6361039491728291
sg12
F144345049.5236
sg13
Nsba(iGraphics.simplified_new
Scores
p387
(dp388
g10
I100
sg11
F0.7318179917532142
sg12
F142570422.4455
sg13
Nsba(iGraphics.simplified_new
Scores
p389
(dp390
g10
I100
sg11
F0.7083214920877023
sg12
F142818803.2673
sg13
Nsba(iGraphics.simplified_new
Scores
p391
(dp392
g10
I100
sg11
F0.739452890274952
sg12
F143979404.0273
sg13
Nsba(iGraphics.simplified_new
Scores
p393
(dp394
g10
I100
sg11
F0.6327347393592881
sg12
F143170779.9614
sg13
Nsba(iGraphics.simplified_new
Scores
p395
(dp396
g10
I100
sg11
F0.6712503127462419
sg12
F143319591.2711
sg13
Nsba(iGraphics.simplified_new
Scores
p397
(dp398
g10
I100
sg11
F0.7444987366697964
sg12
F143756336.3327
sg13
Nsba(iGraphics.simplified_new
Scores
p399
(dp400
g10
I100
sg11
F0.7956028870385072
sg12
F143015277.9301
sg13
Nsba(iGraphics.simplified_new
Scores
p401
(dp402
g10
I100
sg11
F0.8361154007529712
sg12
F142217747.7994
sg13
Nsba(iGraphics.simplified_new
Scores
p403
(dp404
g10
I100
sg11
F0.6494836673950094
sg12
F141892622.1164
sg13
Nsba(iGraphics.simplified_new
Scores
p405
(dp406
g10
I100
sg11
F0.6731218699839453
sg12
F144190926.9905
sg13
Nsba(iGraphics.simplified_new
Scores
p407
(dp408
g10
I100
sg11
F0.7110731874523639
sg12
F144068929.2447
sg13
Nsba(iGraphics.simplified_new
Scores
p409
(dp410
g10
I100
sg11
F0.7935969437388346
sg12
F142878342.0227
sg13
Nsba(iGraphics.simplified_new
Scores
p411
(dp412
g10
I100
sg11
F0.7173889365457822
sg12
F142442012.7282
sg13
Nsbasg52
S'NSGAII'
p413
sbs.