(dp0
S'xomo_osp'
p1
(dp2
S'Spread'
p3
(lp4
(lp5
S'SPEA2_100'
p6
aF0.6694011182134453
aF0.7439274066098452
aF0.777377659808024
aF0.7385036872261279
aF0.7619267390850762
aF0.7697095078043896
aF0.7400023697259671
aF0.7055830583694374
aF0.6505403795923305
aF0.6875961099542642
aF0.7796637642292058
aF0.6705462657908124
aF0.6422155349885404
aF0.7064599019615367
aF0.6769694791337162
aF0.691287437819344
aF0.7675054892357474
aF0.6925361946836859
aF0.7300507349631138
aF0.7287214345005357
aa(lp7
S'SPEA2SC-1225_100'
p8
aF0.655841254361213
aF0.6893912641085926
aF0.656974241957028
aF0.6464584176612846
aF0.6859059409865712
aF0.7993597361175638
aF0.6632383780106581
aF0.6823472331291036
aF0.7566380281087774
aF0.6528472958958345
aF0.6586737927911929
aF0.682191074026769
aF0.6812009673111831
aF0.7415999177506944
aF0.7025063089050613
aF0.6932699436916216
aF0.6798869896767524
aF0.6540375839651614
aF0.729462873287979
aF0.6907913113452028
aa(lp9
S'SWAY5_1225'
p10
aF0.5481081837405324
aF0.47095319069857833
aF0.4165043937847563
aF0.5362084469667235
aF0.41060123528878695
aF0.5286812097303782
aF0.5508927880964686
aF0.44879680971830543
aF0.4853240686661475
aF0.5436632907384652
aF0.5940895628245021
aF0.41001592730340647
aF0.548107837374527
aF0.4186584444029542
aF0.5352108108791207
aF0.4821999952263391
aF0.4824301734121402
aF0.43060294807354116
aF0.6629045296801093
aF0.5845634008845576
aa(lp11
S'SWAY5_5000'
p12
aF0.49681646915778443
aF0.4089004956045326
aF0.40254312510977824
aF0.42142820755721627
aF0.3908183633982795
aF0.55698538768538
aF0.48565804483488706
aF0.598292823808962
aF0.48669578541687974
aF0.4820997928089859
aF0.5186413127851965
aF0.4640748615528285
aF0.32399987634359695
aF0.5271696505096921
aF0.4497086113804156
aF0.4462749666238048
aF0.45396344144083284
aF0.4621296331483957
aF0.4829320843328432
aF0.4663389421258972
aa(lp13
S'NSGAIISC-5000_100'
p14
aF0.7554915753315475
aF0.7165230640418541
aF0.8035455933489912
aF0.6300575725899691
aF0.713913247058762
aF0.7913870024188854
aF0.7319141076649957
aF0.6901898257358778
aF0.661377676630034
aF0.7445526638240969
aF0.7371412321567713
aF0.7495689752272052
aF0.8112452593355611
aF0.7305516425560445
aF0.7508880820915494
aF0.6458199450508546
aF0.7836679045157113
aF0.7822467915098188
aF0.7377311748875954
aF0.653904466914833
aa(lp15
S'SWAY5_2500'
p16
aF0.4587522524440932
aF0.4213441504150574
aF0.47008006598863566
aF0.5165509571838487
aF0.46215526166561927
aF0.5453584786895213
aF0.4211902009035184
aF0.33403034553844896
aF0.5269619074649355
aF0.5257176867720574
aF0.49884354963935584
aF0.5826228379662038
aF0.4578988318275131
aF0.4325936264825097
aF0.4214037548322705
aF0.513820279990147
aF0.42089958936028865
aF0.41554673697702277
aF0.5267034264733287
aF0.5081704702534104
aa(lp17
S'NSGAIISC-1225_100'
p18
aF0.7002505367297354
aF0.6581566840136223
aF0.8277029074182655
aF0.7460680824055359
aF0.7253293649732776
aF0.7439929638804311
aF0.6782177518301314
aF0.7881132905445615
aF0.6430649171025664
aF0.6858641713900415
aF0.7027213988115402
aF0.7625368193033981
aF0.7475512470435223
aF0.7393736409116758
aF0.7208921510319887
aF0.686818126038894
aF0.880477907482526
aF0.5794699805104698
aF0.7758661783018318
aF0.7234488632258538
aa(lp19
S'SWAY5_10000'
p20
aF0.4336187030011548
aF0.4620341546626793
aF0.451503535487616
aF0.5185776289093249
aF0.439072142915306
aF0.4742829432190783
aF0.5190341590682587
aF0.5734119121094218
aF0.4336787806976042
aF0.44381285146978156
aF0.48739234520276603
aF0.5299143129277836
aF0.4662489331937575
aF0.459965982675314
aF0.49315051355675166
aF0.45395870523989773
aF0.3827822894226075
aF0.4590650736383763
aF0.4267780657617692
aF0.4730600247828303
aa(lp21
S'NSGAIISC-10000_100'
p22
aF0.7067319533159219
aF0.7469679211294574
aF0.6997916312399319
aF0.7118425864626976
aF0.6983824828388524
aF0.6762082719195261
aF0.6713209874281921
aF0.8608379845992257
aF0.7392321274131664
aF0.6738130718703543
aF0.7860608786760243
aF0.7947695094175053
aF0.7585159650044432
aF0.7201925779392644
aF0.8120603875400937
aF0.6684616337512296
aF0.7323348076728723
aF0.6442282672221697
aF0.7307932329778382
aF0.7140452866214826
aa(lp23
S'NSGAII_100'
p24
aF0.7403881877967752
aF0.7305136946783624
aF0.7751331544772635
aF0.6961079447984139
aF0.7276713541267333
aF0.7645698140158997
aF0.6777974422111099
aF0.6947199343607804
aF0.7544389215444433
aF0.6679892174501136
aF0.6609368893767055
aF0.7572897166387289
aF0.7609301204748694
aF0.6776472087490282
aF0.7400991093421266
aF0.7360385408283711
aF0.7163600563017883
aF0.7415322171047743
aF0.6333097757136269
aF0.6745741169417938
aa(lp25
S'SPEA2SC-2500_100'
p26
aF0.6880521004763926
aF0.7651987441390907
aF0.7563588915610798
aF0.6543354517742197
aF0.6591915925616098
aF0.7038854611296272
aF0.7093613970825557
aF0.6785853501705652
aF0.7383058078814296
aF0.7617390263161731
aF0.727665001316501
aF0.7008445635863482
aF0.6513833365227953
aF0.5943644313983829
aF0.7279228732080483
aF0.6582202685592224
aF0.6148677681486371
aF0.7603386999268592
aF0.7203560170044648
aF0.7019831083394178
aa(lp27
S'SPEA2SC-10000_100'
p28
aF0.6828530619655921
aF0.686861611485832
aF0.6915424545614292
aF0.7224764710429498
aF0.667649672024043
aF0.6241172933866008
aF0.656787325625228
aF0.6265347383445616
aF0.6945983721236103
aF0.7316151861254344
aF0.7420581675619625
aF0.7700230505362552
aF0.701465282456336
aF0.7426313717003448
aF0.6993889919484615
aF0.7069002860360573
aF0.7142970777752011
aF0.684483419035925
aF0.6460855509854176
aF0.7551218372115982
aa(lp29
S'NSGAIISC-2500_100'
p30
aF0.8158984349075866
aF0.7670221127531965
aF0.7836759039615929
aF0.7960102649149366
aF0.6502720948416533
aF0.675480485751087
aF0.7611747989667486
aF0.6847912320395936
aF0.6991167254198052
aF0.6930331957269763
aF0.7936913986912653
aF0.7131191353957155
aF0.6588472545714793
aF0.6159743933403485
aF0.7391753763961288
aF0.8336683441724407
aF0.6546696022349109
aF0.7592147295596446
aF0.7580147043772508
aF0.6970415607551784
aasS'HV'
p31
(lp32
(lp33
S'SPEA2_100'
p34
aF140743995.6205
aF141008371.5302
aF141387198.0687
aF144392656.1528
aF141549327.1101
aF142932623.3634
aF142191203.5666
aF143229049.1379
aF142779879.8239
aF144411043.3877
aF142005108.25
aF142665453.1325
aF141305142.7793
aF143898044.3072
aF142245838.0721
aF142841780.7756
aF143548918.8682
aF142141418.4839
aF141704985.2495
aF141592622.7421
aa(lp35
S'SPEA2SC-1225_100'
p36
aF141712776.8482
aF141951148.3833
aF142712386.3686
aF143401313.0176
aF141907786.206
aF144945349.8233
aF142544714.4612
aF143689071.4495
aF141742234.6965
aF142270694.5135
aF143825180.0749
aF143769656.6232
aF141294398.106
aF142605587.7202
aF141958712.5852
aF142791061.7813
aF142298013.1241
aF143477969.0946
aF143209486.3505
aF144297761.1213
aa(lp37
S'SWAY5_1225'
p38
aF131171312.687
aF127563315.2989
aF132077771.6501
aF127581169.3158
aF129412459.2303
aF127878702.117
aF116656642.3723
aF136869555.0487
aF130981160.3923
aF133526039.8738
aF125225324.9421
aF122809832.0415
aF121055267.359
aF113684745.2202
aF117864786.1023
aF122087225.3371
aF131523459.0658
aF134844237.9286
aF126041997.3262
aF118802807.3152
aa(lp39
S'SWAY5_5000'
p40
aF119407048.3485
aF130156477.7184
aF134729792.7734
aF127399937.9729
aF129759312.8377
aF130302689.7563
aF133868935.2459
aF136736390.9328
aF134358675.1336
aF123746875.0671
aF129446810.7589
aF137183888.8479
aF131290628.9444
aF131461432.7094
aF131726366.1483
aF130287649.0368
aF123986460.9169
aF128081965.9773
aF124620706.1191
aF128961620.9087
aa(lp41
S'NSGAIISC-5000_100'
p42
aF142349178.4077
aF142778700.0996
aF140759702.3089
aF142297803.7175
aF142887617.9206
aF141629130.2439
aF142767103.8688
aF141093617.841
aF141066881.2189
aF141750738.821
aF140623934.4349
aF143501122.7848
aF142788166.5274
aF143129553.5443
aF143589004.15
aF143016573.0367
aF143209307.0959
aF141579981.6864
aF142034963.4384
aF143464448.9738
aa(lp43
S'SWAY5_2500'
p44
aF126685880.3821
aF131525283.5528
aF127278778.3386
aF129814377.7449
aF134095452.9572
aF127950490.225
aF131713866.3735
aF135751166.6313
aF125844036.3225
aF135324366.699
aF129680271.307
aF132054607.1904
aF129233318.2478
aF123667087.7463
aF134095309.1314
aF120251095.3578
aF135560312.384
aF128541546.3834
aF131410069.386
aF136936239.4167
aa(lp45
S'NSGAIISC-1225_100'
p46
aF140552243.4017
aF144930665.6377
aF144996755.3554
aF143481969.5473
aF141028832.6978
aF143902567.8993
aF140705217.3848
aF142387982.5805
aF140977607.2813
aF142410594.0538
aF142106768.1095
aF143322718.1356
aF143347363.6953
aF141412058.2261
aF143564592.9751
aF144502204.8634
aF142778473.3528
aF140892671.7854
aF143758573.6667
aF141484926.0148
aa(lp47
S'SWAY5_10000'
p48
aF135198473.6793
aF140090460.4425
aF129321131.4558
aF131277007.8663
aF139580184.4028
aF140569588.9506
aF136127463.1522
aF121009582.9031
aF129290406.1859
aF130339737.8917
aF136521562.9945
aF129953840.994
aF131515924.2995
aF134340469.702
aF131027741.8733
aF133569218.1688
aF139499764.2001
aF136267555.7287
aF136850663.9788
aF137985897.1512
aa(lp49
S'NSGAIISC-10000_100'
p50
aF141775606.2553
aF144670154.9805
aF141945881.616
aF142054019.3826
aF141188366.2436
aF142189113.6949
aF144270328.3884
aF142328606.0741
aF142109313.7086
aF140120521.0318
aF143412209.2613
aF142262131.2799
aF143362262.4735
aF142476487.965
aF142153829.1823
aF144230873.1629
aF143456687.268
aF141393806.4785
aF142729946.8621
aF142189440.6568
aa(lp51
S'NSGAII_100'
p52
aF142323214.8235
aF142570642.0863
aF140510836.3312
aF141745668.6557
aF142628020.1515
aF143308416.899
aF143223871.6258
aF141574157.6766
aF144947852.3081
aF142357514.1658
aF140944467.0706
aF143358013.0253
aF143985303.4406
aF140333674.6255
aF141796749.8414
aF145438467.2063
aF141792542.5062
aF143217562.2354
aF144922819.7419
aF142121607.7914
aa(lp53
S'SPEA2SC-2500_100'
p54
aF142949882.6287
aF145047788.3467
aF141544446.7318
aF144541618.0475
aF141873060.4338
aF143459380.6696
aF141844649.4052
aF144028394.2909
aF142564436.7659
aF142258023.1456
aF143842416.3513
aF142450521.0539
aF141864051.5622
aF141680991.4537
aF143668985.3368
aF142734117.9916
aF145089567.5378
aF141991881.9145
aF143277514.91
aF144485300.9986
aa(lp55
S'SPEA2SC-10000_100'
p56
aF142390628.9073
aF142615501.3343
aF144132988.1902
aF143338900.0767
aF141769995.7501
aF140034641.8999
aF144058534.3051
aF142208350.2342
aF143801290.6113
aF141579518.4181
aF142836944.6381
aF144040679.581
aF143644958.6733
aF140457027.496
aF143867642.0844
aF143471079.3458
aF143719178.364
aF140143770.1944
aF141819551.1474
aF141599071.7491
aa(lp57
S'NSGAIISC-2500_100'
p58
aF143768448.3428
aF142417041.3255
aF143571730.324
aF142807828.5363
aF144059468.2048
aF143923312.9374
aF141323673.2451
aF144466707.5134
aF142006344.588
aF142073033.5417
aF143248951.3094
aF143036934.1084
aF142062778.9011
aF141203402.5428
aF144099933.4387
aF140895837.913
aF144011018.283
aF143184277.6466
aF140337704.5542
aF143127950.6519
aass.