(dp0
S'SPEA2_100'
p1
(iGraphics.simplified_new
SolutionHolder
p2
(dp3
S'problem'
p4
S'xomoo2'
p5
sS'repeats'
p6
(lp7
(iGraphics.simplified_new
Scores
p8
(dp9
S'pfs'
p10
I100
sS'spread'
p11
F0.6931379410851178
sS'hv'
p12
F143223937.6433
sS'igd'
p13
Nsba(iGraphics.simplified_new
Scores
p14
(dp15
g10
I100
sg11
F0.607712419416813
sg12
F143481550.7917
sg13
Nsba(iGraphics.simplified_new
Scores
p16
(dp17
g10
I100
sg11
F0.6771544124282998
sg12
F143791002.6128
sg13
Nsba(iGraphics.simplified_new
Scores
p18
(dp19
g10
I100
sg11
F0.6494910644663756
sg12
F144985911.6705
sg13
Nsba(iGraphics.simplified_new
Scores
p20
(dp21
g10
I100
sg11
F0.7348148499086545
sg12
F144481260.5974
sg13
Nsba(iGraphics.simplified_new
Scores
p22
(dp23
g10
I100
sg11
F0.6667339340839804
sg12
F143581374.1402
sg13
Nsba(iGraphics.simplified_new
Scores
p24
(dp25
g10
I100
sg11
F0.7132622895147757
sg12
F145101899.74
sg13
Nsba(iGraphics.simplified_new
Scores
p26
(dp27
g10
I100
sg11
F0.7036282434559186
sg12
F143938342.0053
sg13
Nsba(iGraphics.simplified_new
Scores
p28
(dp29
g10
I100
sg11
F0.6562063295720502
sg12
F144533047.8224
sg13
Nsba(iGraphics.simplified_new
Scores
p30
(dp31
g10
I100
sg11
F0.7547082643810004
sg12
F145365253.1407
sg13
Nsba(iGraphics.simplified_new
Scores
p32
(dp33
g10
I100
sg11
F0.6636510816049191
sg12
F142864505.2098
sg13
Nsba(iGraphics.simplified_new
Scores
p34
(dp35
g10
I100
sg11
F0.6907858485843529
sg12
F142112839.7507
sg13
Nsba(iGraphics.simplified_new
Scores
p36
(dp37
g10
I100
sg11
F0.7058940251563737
sg12
F141545106.5252
sg13
Nsba(iGraphics.simplified_new
Scores
p38
(dp39
g10
I100
sg11
F0.7026328605475699
sg12
F142820555.1747
sg13
Nsba(iGraphics.simplified_new
Scores
p40
(dp41
g10
I100
sg11
F0.686156138282394
sg12
F142997213.8977
sg13
Nsba(iGraphics.simplified_new
Scores
p42
(dp43
g10
I100
sg11
F0.7349581629865422
sg12
F143688587.661
sg13
Nsba(iGraphics.simplified_new
Scores
p44
(dp45
g10
I100
sg11
F0.7257758622784277
sg12
F144811005.2556
sg13
Nsba(iGraphics.simplified_new
Scores
p46
(dp47
g10
I100
sg11
F0.6822960318004194
sg12
F145368359.3836
sg13
Nsba(iGraphics.simplified_new
Scores
p48
(dp49
g10
I100
sg11
F0.6640677804619813
sg12
F144179663.2279
sg13
Nsba(iGraphics.simplified_new
Scores
p50
(dp51
g10
I100
sg11
F0.7223771398898742
sg12
F142527444.3899
sg13
NsbasS'algorithm'
p52
S'SPEA2'
p53
sbsS'SWAY5_1225'
p54
(iGraphics.simplified_new
SolutionHolder
p55
(dp56
g4
g5
sg6
(lp57
(iGraphics.simplified_new
Scores
p58
(dp59
g10
I25
sg11
F0.4626634166715393
sg12
F124680513.8249
sg13
Nsba(iGraphics.simplified_new
Scores
p60
(dp61
g10
I18
sg11
F0.44591928531872177
sg12
F122217354.7679
sg13
Nsba(iGraphics.simplified_new
Scores
p62
(dp63
g10
I19
sg11
F0.45457538580996126
sg12
F138883113.5185
sg13
Nsba(iGraphics.simplified_new
Scores
p64
(dp65
g10
I34
sg11
F0.4590715296971989
sg12
F131277582.0352
sg13
Nsba(iGraphics.simplified_new
Scores
p66
(dp67
g10
I19
sg11
F0.5376075014760117
sg12
F118898853.5393
sg13
Nsba(iGraphics.simplified_new
Scores
p68
(dp69
g10
I19
sg11
F0.4928309532094982
sg12
F132494127.4835
sg13
Nsba(iGraphics.simplified_new
Scores
p70
(dp71
g10
I20
sg11
F0.4322074446575793
sg12
F129986074.5103
sg13
Nsba(iGraphics.simplified_new
Scores
p72
(dp73
g10
I29
sg11
F0.5580052434500189
sg12
F126334404.587
sg13
Nsba(iGraphics.simplified_new
Scores
p74
(dp75
g10
I28
sg11
F0.46654101200052467
sg12
F136948498.2128
sg13
Nsba(iGraphics.simplified_new
Scores
p76
(dp77
g10
I19
sg11
F0.49059950646118716
sg12
F122413538.1407
sg13
Nsba(iGraphics.simplified_new
Scores
p78
(dp79
g10
I33
sg11
F0.42981003573790066
sg12
F131481634.2064
sg13
Nsba(iGraphics.simplified_new
Scores
p80
(dp81
g10
I25
sg11
F0.5175593251851295
sg12
F131870351.0008
sg13
Nsba(iGraphics.simplified_new
Scores
p82
(dp83
g10
I19
sg11
F0.5277076568129812
sg12
F130523761.8131
sg13
Nsba(iGraphics.simplified_new
Scores
p84
(dp85
g10
I21
sg11
F0.4221459070005849
sg12
F129265512.5648
sg13
Nsba(iGraphics.simplified_new
Scores
p86
(dp87
g10
I34
sg11
F0.5563330357194768
sg12
F134198235.1218
sg13
Nsba(iGraphics.simplified_new
Scores
p88
(dp89
g10
I28
sg11
F0.5161382057455249
sg12
F135722595.2367
sg13
Nsba(iGraphics.simplified_new
Scores
p90
(dp91
g10
I29
sg11
F0.5605671737073931
sg12
F124695254.2875
sg13
Nsba(iGraphics.simplified_new
Scores
p92
(dp93
g10
I33
sg11
F0.5564607174757208
sg12
F127056868.8112
sg13
Nsba(iGraphics.simplified_new
Scores
p94
(dp95
g10
I19
sg11
F0.501201434518759
sg12
F118970386.5397
sg13
Nsba(iGraphics.simplified_new
Scores
p96
(dp97
g10
I19
sg11
F0.6799543690221972
sg12
F120624836.1272
sg13
Nsbasg52
S'SWAY5'
p98
sbsS'SWAY5_5000'
p99
(iGraphics.simplified_new
SolutionHolder
p100
(dp101
g4
g5
sg6
(lp102
(iGraphics.simplified_new
Scores
p103
(dp104
g10
I19
sg11
F0.43945971449091387
sg12
F120601279.6939
sg13
Nsba(iGraphics.simplified_new
Scores
p105
(dp106
g10
I42
sg11
F0.46266190609471175
sg12
F131379938.6402
sg13
Nsba(iGraphics.simplified_new
Scores
p107
(dp108
g10
I45
sg11
F0.48537815579183463
sg12
F142860959.5543
sg13
Nsba(iGraphics.simplified_new
Scores
p109
(dp110
g10
I68
sg11
F0.4942681257679302
sg12
F132713716.6081
sg13
Nsba(iGraphics.simplified_new
Scores
p111
(dp112
g10
I66
sg11
F0.3722811967789776
sg12
F140524024.484
sg13
Nsba(iGraphics.simplified_new
Scores
p113
(dp114
g10
I59
sg11
F0.5677283797088422
sg12
F129031030.8067
sg13
Nsba(iGraphics.simplified_new
Scores
p115
(dp116
g10
I58
sg11
F0.44333664093374675
sg12
F136300955.2226
sg13
Nsba(iGraphics.simplified_new
Scores
p117
(dp118
g10
I39
sg11
F0.5070475833482282
sg12
F129642250.7197
sg13
Nsba(iGraphics.simplified_new
Scores
p119
(dp120
g10
I34
sg11
F0.47182110999743115
sg12
F134996652.6771
sg13
Nsba(iGraphics.simplified_new
Scores
p121
(dp122
g10
I56
sg11
F0.5387443854209835
sg12
F132124342.1078
sg13
Nsba(iGraphics.simplified_new
Scores
p123
(dp124
g10
I39
sg11
F0.43394030225857677
sg12
F123250222.8911
sg13
Nsba(iGraphics.simplified_new
Scores
p125
(dp126
g10
I39
sg11
F0.48713429184800894
sg12
F122752630.6927
sg13
Nsba(iGraphics.simplified_new
Scores
p127
(dp128
g10
I59
sg11
F0.4923330518472449
sg12
F138282517.9416
sg13
Nsba(iGraphics.simplified_new
Scores
p129
(dp130
g10
I22
sg11
F0.5771258240268289
sg12
F117592367.2477
sg13
Nsba(iGraphics.simplified_new
Scores
p131
(dp132
g10
I59
sg11
F0.4208960351765989
sg12
F137035382.9169
sg13
Nsba(iGraphics.simplified_new
Scores
p133
(dp134
g10
I39
sg11
F0.4249479672420064
sg12
F127775700.7987
sg13
Nsba(iGraphics.simplified_new
Scores
p135
(dp136
g10
I36
sg11
F0.46619105905328656
sg12
F126904239.5032
sg13
Nsba(iGraphics.simplified_new
Scores
p137
(dp138
g10
I39
sg11
F0.47018792165109685
sg12
F117953486.2191
sg13
Nsba(iGraphics.simplified_new
Scores
p139
(dp140
g10
I45
sg11
F0.5097882411488135
sg12
F130018730.1575
sg13
Nsba(iGraphics.simplified_new
Scores
p141
(dp142
g10
I19
sg11
F0.5926843974249925
sg12
F133885434.5673
sg13
Nsbasg52
S'SWAY5'
p143
sbsS'SWAY5_2500'
p144
(iGraphics.simplified_new
SolutionHolder
p145
(dp146
g4
g5
sg6
(lp147
(iGraphics.simplified_new
Scores
p148
(dp149
g10
I39
sg11
F0.5481920910121806
sg12
F127253339.7776
sg13
Nsba(iGraphics.simplified_new
Scores
p150
(dp151
g10
I29
sg11
F0.49165134302259944
sg12
F126671506.8134
sg13
Nsba(iGraphics.simplified_new
Scores
p152
(dp153
g10
I19
sg11
F0.4709233098763242
sg12
F131341020.5225
sg13
Nsba(iGraphics.simplified_new
Scores
p154
(dp155
g10
I29
sg11
F0.4411416370112717
sg12
F121905572.8563
sg13
Nsba(iGraphics.simplified_new
Scores
p156
(dp157
g10
I30
sg11
F0.4535321519021697
sg12
F132939251.4441
sg13
Nsba(iGraphics.simplified_new
Scores
p158
(dp159
g10
I17
sg11
F0.46401391776237494
sg12
F134864067.405
sg13
Nsba(iGraphics.simplified_new
Scores
p160
(dp161
g10
I29
sg11
F0.3588898757261688
sg12
F132193963.9866
sg13
Nsba(iGraphics.simplified_new
Scores
p162
(dp163
g10
I26
sg11
F0.5861974918337637
sg12
F125597566.1897
sg13
Nsba(iGraphics.simplified_new
Scores
p164
(dp165
g10
I39
sg11
F0.37601471008741466
sg12
F130641803.0008
sg13
Nsba(iGraphics.simplified_new
Scores
p166
(dp167
g10
I30
sg11
F0.4229968700731856
sg12
F124788976.9504
sg13
Nsba(iGraphics.simplified_new
Scores
p168
(dp169
g10
I25
sg11
F0.4275130044686399
sg12
F118685345.6991
sg13
Nsba(iGraphics.simplified_new
Scores
p170
(dp171
g10
I28
sg11
F0.3994236846069526
sg12
F138691026.191
sg13
Nsba(iGraphics.simplified_new
Scores
p172
(dp173
g10
I32
sg11
F0.450378691533783
sg12
F134252625.6101
sg13
Nsba(iGraphics.simplified_new
Scores
p174
(dp175
g10
I29
sg11
F0.6488340149147153
sg12
F131465444.7246
sg13
Nsba(iGraphics.simplified_new
Scores
p176
(dp177
g10
I31
sg11
F0.5343129345526171
sg12
F124170110.8002
sg13
Nsba(iGraphics.simplified_new
Scores
p178
(dp179
g10
I29
sg11
F0.49078130439327305
sg12
F118126712.861
sg13
Nsba(iGraphics.simplified_new
Scores
p180
(dp181
g10
I39
sg11
F0.48370801193646007
sg12
F131747318.2386
sg13
Nsba(iGraphics.simplified_new
Scores
p182
(dp183
g10
I29
sg11
F0.41163006973598015
sg12
F119658028.8079
sg13
Nsba(iGraphics.simplified_new
Scores
p184
(dp185
g10
I26
sg11
F0.5039429236837455
sg12
F130493814.2286
sg13
Nsba(iGraphics.simplified_new
Scores
p186
(dp187
g10
I39
sg11
F0.45467034970534936
sg12
F140309683.2086
sg13
Nsbasg52
S'SWAY5'
p188
sbsS'SWAY5_10000'
p189
(iGraphics.simplified_new
SolutionHolder
p190
(dp191
g4
g5
sg6
(lp192
(iGraphics.simplified_new
Scores
p193
(dp194
g10
I59
sg11
F0.45191663233909135
sg12
F130532764.3589
sg13
Nsba(iGraphics.simplified_new
Scores
p195
(dp196
g10
I76
sg11
F0.46995684553148925
sg12
F132319380.2866
sg13
Nsba(iGraphics.simplified_new
Scores
p197
(dp198
g10
I73
sg11
F0.43746997968353635
sg12
F133078312.5328
sg13
Nsba(iGraphics.simplified_new
Scores
p199
(dp200
g10
I29
sg11
F0.48167764520402984
sg12
F131505596.0096
sg13
Nsba(iGraphics.simplified_new
Scores
p201
(dp202
g10
I78
sg11
F0.4334137671628745
sg12
F131619209.2525
sg13
Nsba(iGraphics.simplified_new
Scores
p203
(dp204
g10
I52
sg11
F0.5138291812383085
sg12
F129154993.6844
sg13
Nsba(iGraphics.simplified_new
Scores
p205
(dp206
g10
I78
sg11
F0.4242722558533355
sg12
F130025967.2677
sg13
Nsba(iGraphics.simplified_new
Scores
p207
(dp208
g10
I78
sg11
F0.4949902171453165
sg12
F133787624.026
sg13
Nsba(iGraphics.simplified_new
Scores
p209
(dp210
g10
I66
sg11
F0.47860465017751097
sg12
F141684526.7221
sg13
Nsba(iGraphics.simplified_new
Scores
p211
(dp212
g10
I68
sg11
F0.4265073772621038
sg12
F131517079.0995
sg13
Nsba(iGraphics.simplified_new
Scores
p213
(dp214
g10
I42
sg11
F0.39043350602760446
sg12
F132378171.7871
sg13
Nsba(iGraphics.simplified_new
Scores
p215
(dp216
g10
I45
sg11
F0.5869328277257857
sg12
F140952720.3801
sg13
Nsba(iGraphics.simplified_new
Scores
p217
(dp218
g10
I77
sg11
F0.45321321918266955
sg12
F131580918.0894
sg13
Nsba(iGraphics.simplified_new
Scores
p219
(dp220
g10
I78
sg11
F0.4504292992363596
sg12
F131153093.1589
sg13
Nsba(iGraphics.simplified_new
Scores
p221
(dp222
g10
I51
sg11
F0.4689537264373139
sg12
F128553914.7311
sg13
Nsba(iGraphics.simplified_new
Scores
p223
(dp224
g10
I57
sg11
F0.5052483139753573
sg12
F138590553.6835
sg13
Nsba(iGraphics.simplified_new
Scores
p225
(dp226
g10
I29
sg11
F0.5422871529035173
sg12
F133998541.9887
sg13
Nsba(iGraphics.simplified_new
Scores
p227
(dp228
g10
I58
sg11
F0.4511736652432748
sg12
F140147271.0523
sg13
Nsba(iGraphics.simplified_new
Scores
p229
(dp230
g10
I44
sg11
F0.4119363222798891
sg12
F132942270.8615
sg13
Nsba(iGraphics.simplified_new
Scores
p231
(dp232
g10
I78
sg11
F0.4521860661168408
sg12
F132127138.4196
sg13
Nsbasg52
S'SWAY5'
p233
sbsS'NSGAII_100'
p234
(iGraphics.simplified_new
SolutionHolder
p235
(dp236
g4
g5
sg6
(lp237
(iGraphics.simplified_new
Scores
p238
(dp239
g10
I100
sg11
F0.6749451614735522
sg12
F144280753.9602
sg13
Nsba(iGraphics.simplified_new
Scores
p240
(dp241
g10
I100
sg11
F0.6444630245677807
sg12
F143129407.9506
sg13
Nsba(iGraphics.simplified_new
Scores
p242
(dp243
g10
I100
sg11
F0.7143604300919135
sg12
F143020394.2533
sg13
Nsba(iGraphics.simplified_new
Scores
p244
(dp245
g10
I100
sg11
F0.7418389939632727
sg12
F143814337.2972
sg13
Nsba(iGraphics.simplified_new
Scores
p246
(dp247
g10
I100
sg11
F0.8004314021847231
sg12
F143376701.2706
sg13
Nsba(iGraphics.simplified_new
Scores
p248
(dp249
g10
I100
sg11
F0.6438822435625828
sg12
F142411993.0215
sg13
Nsba(iGraphics.simplified_new
Scores
p250
(dp251
g10
I100
sg11
F0.6996829834160094
sg12
F141795967.37
sg13
Nsba(iGraphics.simplified_new
Scores
p252
(dp253
g10
I100
sg11
F0.8990255467346572
sg12
F142591331.4334
sg13
Nsba(iGraphics.simplified_new
Scores
p254
(dp255
g10
I100
sg11
F0.6710493433044329
sg12
F143276070.4154
sg13
Nsba(iGraphics.simplified_new
Scores
p256
(dp257
g10
I100
sg11
F0.6540611583518443
sg12
F142655356.0494
sg13
Nsba(iGraphics.simplified_new
Scores
p258
(dp259
g10
I100
sg11
F0.762679954064959
sg12
F142289066.4124
sg13
Nsba(iGraphics.simplified_new
Scores
p260
(dp261
g10
I100
sg11
F0.6976656851642783
sg12
F144934133.969
sg13
Nsba(iGraphics.simplified_new
Scores
p262
(dp263
g10
I100
sg11
F0.7514267755630181
sg12
F144083194.7348
sg13
Nsba(iGraphics.simplified_new
Scores
p264
(dp265
g10
I100
sg11
F0.7049583794324843
sg12
F143888734.4947
sg13
Nsba(iGraphics.simplified_new
Scores
p266
(dp267
g10
I100
sg11
F0.7626032660532464
sg12
F144373491.6324
sg13
Nsba(iGraphics.simplified_new
Scores
p268
(dp269
g10
I100
sg11
F0.7467311454227366
sg12
F142721996.4859
sg13
Nsba(iGraphics.simplified_new
Scores
p270
(dp271
g10
I100
sg11
F0.6447358859868304
sg12
F143176150.1206
sg13
Nsba(iGraphics.simplified_new
Scores
p272
(dp273
g10
I100
sg11
F0.7441777314011332
sg12
F144690135.9263
sg13
Nsba(iGraphics.simplified_new
Scores
p274
(dp275
g10
I100
sg11
F0.7155773476929946
sg12
F143867496.4086
sg13
Nsba(iGraphics.simplified_new
Scores
p276
(dp277
g10
I100
sg11
F0.8084236649967151
sg12
F143794730.4648
sg13
Nsbasg52
S'NSGAII'
p278
sbs.