(dp0
S'SWAY5_2500'
p1
(iGraphics.simplified_new
SolutionHolder
p2
(dp3
S'problem'
p4
S'xomo_osp'
p5
sS'repeats'
p6
(lp7
(iGraphics.simplified_new
Scores
p8
(dp9
S'pfs'
p10
I25
sS'spread'
p11
F0.4577666872678392
sS'hv'
p12
F127056888.1436
sS'igd'
p13
Nsba(iGraphics.simplified_new
Scores
p14
(dp15
g10
I39
sg11
F0.42487869293565295
sg12
F132878693.4335
sg13
Nsba(iGraphics.simplified_new
Scores
p16
(dp17
g10
I22
sg11
F0.4705726049132531
sg12
F128119241.7426
sg13
Nsba(iGraphics.simplified_new
Scores
p18
(dp19
g10
I39
sg11
F0.5022525887766448
sg12
F131385669.3996
sg13
Nsba(iGraphics.simplified_new
Scores
p20
(dp21
g10
I39
sg11
F0.4684470982225096
sg12
F135578812.3195
sg13
Nsba(iGraphics.simplified_new
Scores
p22
(dp23
g10
I19
sg11
F0.5441643803686056
sg12
F127360677.6809
sg13
Nsba(iGraphics.simplified_new
Scores
p24
(dp25
g10
I19
sg11
F0.42966168592229587
sg12
F133020200.1431
sg13
Nsba(iGraphics.simplified_new
Scores
p26
(dp27
g10
I34
sg11
F0.33828979776217255
sg12
F136734613.0808
sg13
Nsba(iGraphics.simplified_new
Scores
p28
(dp29
g10
I34
sg11
F0.5343501487526408
sg12
F126973357.0909
sg13
Nsba(iGraphics.simplified_new
Scores
p30
(dp31
g10
I29
sg11
F0.5152370729513234
sg12
F137101589.5402
sg13
Nsba(iGraphics.simplified_new
Scores
p32
(dp33
g10
I28
sg11
F0.48656912542377406
sg12
F130571954.0527
sg13
Nsba(iGraphics.simplified_new
Scores
p34
(dp35
g10
I19
sg11
F0.5879873224623109
sg12
F133332824.6055
sg13
Nsba(iGraphics.simplified_new
Scores
p36
(dp37
g10
I29
sg11
F0.4589997206525487
sg12
F130639637.8534
sg13
Nsba(iGraphics.simplified_new
Scores
p38
(dp39
g10
I29
sg11
F0.42286091758940275
sg12
F124538992.0215
sg13
Nsba(iGraphics.simplified_new
Scores
p40
(dp41
g10
I29
sg11
F0.41892116789266914
sg12
F136042436.2679
sg13
Nsba(iGraphics.simplified_new
Scores
p42
(dp43
g10
I19
sg11
F0.5129118543433149
sg12
F120057676.782
sg13
Nsba(iGraphics.simplified_new
Scores
p44
(dp45
g10
I39
sg11
F0.40965676350832486
sg12
F136820496.335
sg13
Nsba(iGraphics.simplified_new
Scores
p46
(dp47
g10
I39
sg11
F0.4092785458076587
sg12
F129793909.3523
sg13
Nsba(iGraphics.simplified_new
Scores
p48
(dp49
g10
I34
sg11
F0.5310575384848134
sg12
F133009841.5871
sg13
Nsba(iGraphics.simplified_new
Scores
p50
(dp51
g10
I39
sg11
F0.49619904047384555
sg12
F138741492.2704
sg13
NsbasS'algorithm'
p52
S'SWAY5'
p53
sbsS'SWAY5_10000'
p54
(iGraphics.simplified_new
SolutionHolder
p55
(dp56
g4
g5
sg6
(lp57
(iGraphics.simplified_new
Scores
p58
(dp59
g10
I68
sg11
F0.41008864560565733
sg12
F136822073.5464
sg13
Nsba(iGraphics.simplified_new
Scores
p60
(dp61
g10
I58
sg11
F0.45285638674720985
sg12
F142105215.8578
sg13
Nsba(iGraphics.simplified_new
Scores
p62
(dp63
g10
I78
sg11
F0.4556430423772424
sg12
F130761831.321
sg13
Nsba(iGraphics.simplified_new
Scores
p64
(dp65
g10
I59
sg11
F0.5198594526277589
sg12
F132961526.5691
sg13
Nsba(iGraphics.simplified_new
Scores
p66
(dp67
g10
I82
sg11
F0.4435319237182155
sg12
F141922711.2655
sg13
Nsba(iGraphics.simplified_new
Scores
p68
(dp69
g10
I68
sg11
F0.4859861319700823
sg12
F142927567.9972
sg13
Nsba(iGraphics.simplified_new
Scores
p70
(dp71
g10
I39
sg11
F0.5233686792904261
sg12
F137253226.958
sg13
Nsba(iGraphics.simplified_new
Scores
p72
(dp73
g10
I30
sg11
F0.5674407059916302
sg12
F121310952.6717
sg13
Nsba(iGraphics.simplified_new
Scores
p74
(dp75
g10
I88
sg11
F0.4329411829356699
sg12
F130681435.8328
sg13
Nsba(iGraphics.simplified_new
Scores
p76
(dp77
g10
I73
sg11
F0.4413574180238815
sg12
F131548172.2314
sg13
Nsba(iGraphics.simplified_new
Scores
p78
(dp79
g10
I96
sg11
F0.4889959009462394
sg12
F138543484.2234
sg13
Nsba(iGraphics.simplified_new
Scores
p80
(dp81
g10
I51
sg11
F0.5278087759121419
sg12
F131044049.2768
sg13
Nsba(iGraphics.simplified_new
Scores
p82
(dp83
g10
I57
sg11
F0.4676191332405808
sg12
F133131703.2743
sg13
Nsba(iGraphics.simplified_new
Scores
p84
(dp85
g10
I93
sg11
F0.46763263595946597
sg12
F136146948.208
sg13
Nsba(iGraphics.simplified_new
Scores
p86
(dp87
g10
I58
sg11
F0.4964050122415327
sg12
F132230361.1991
sg13
Nsba(iGraphics.simplified_new
Scores
p88
(dp89
g10
I78
sg11
F0.45486111373381344
sg12
F135048947.8538
sg13
Nsba(iGraphics.simplified_new
Scores
p90
(dp91
g10
I48
sg11
F0.38799510396227016
sg12
F141530750.7931
sg13
Nsba(iGraphics.simplified_new
Scores
p92
(dp93
g10
I96
sg11
F0.46344380498770454
sg12
F138251678.1858
sg13
Nsba(iGraphics.simplified_new
Scores
p94
(dp95
g10
I78
sg11
F0.42547125917732187
sg12
F138748416.1272
sg13
Nsba(iGraphics.simplified_new
Scores
p96
(dp97
g10
I90
sg11
F0.4774257551362824
sg12
F140309060.6106
sg13
Nsbasg52
S'SWAY5'
p98
sbsS'SWAY5_1225'
p99
(iGraphics.simplified_new
SolutionHolder
p100
(dp101
g4
g5
sg6
(lp102
(iGraphics.simplified_new
Scores
p103
(dp104
g10
I19
sg11
F0.5500714982468042
sg12
F132366137.6908
sg13
Nsba(iGraphics.simplified_new
Scores
p105
(dp106
g10
I33
sg11
F0.47337553013519174
sg12
F128466659.7574
sg13
Nsba(iGraphics.simplified_new
Scores
p107
(dp108
g10
I19
sg11
F0.4075079722243028
sg12
F133481406.0815
sg13
Nsba(iGraphics.simplified_new
Scores
p109
(dp110
g10
I28
sg11
F0.5233628763252877
sg12
F128747275.7561
sg13
Nsba(iGraphics.simplified_new
Scores
p111
(dp112
g10
I28
sg11
F0.40371998384056035
sg12
F130825909.1347
sg13
Nsba(iGraphics.simplified_new
Scores
p113
(dp114
g10
I19
sg11
F0.5419441412153964
sg12
F128950496.8025
sg13
Nsba(iGraphics.simplified_new
Scores
p115
(dp116
g10
I27
sg11
F0.5413625848012307
sg12
F116651291.2508
sg13
Nsba(iGraphics.simplified_new
Scores
p117
(dp118
g10
I19
sg11
F0.4385390270596727
sg12
F138861562.9449
sg13
Nsba(iGraphics.simplified_new
Scores
p119
(dp120
g10
I21
sg11
F0.4644579223256886
sg12
F132364612.5328
sg13
Nsba(iGraphics.simplified_new
Scores
p121
(dp122
g10
I19
sg11
F0.5431297052908566
sg12
F135470913.2232
sg13
Nsba(iGraphics.simplified_new
Scores
p123
(dp124
g10
I18
sg11
F0.6025633646682954
sg12
F125578798.6767
sg13
Nsba(iGraphics.simplified_new
Scores
p125
(dp126
g10
I19
sg11
F0.3990389860421318
sg12
F123348151.0959
sg13
Nsba(iGraphics.simplified_new
Scores
p127
(dp128
g10
I19
sg11
F0.5532161026157271
sg12
F121556138.6965
sg13
Nsba(iGraphics.simplified_new
Scores
p129
(dp130
g10
I19
sg11
F0.39816764204804717
sg12
F113174000.5617
sg13
Nsba(iGraphics.simplified_new
Scores
p131
(dp132
g10
I24
sg11
F0.5388246192369816
sg12
F118354889.6741
sg13
Nsba(iGraphics.simplified_new
Scores
p133
(dp134
g10
I27
sg11
F0.4859640802235346
sg12
F122607039.188
sg13
Nsba(iGraphics.simplified_new
Scores
p135
(dp136
g10
I19
sg11
F0.49244881651741973
sg12
F132472449.632
sg13
Nsba(iGraphics.simplified_new
Scores
p137
(dp138
g10
I28
sg11
F0.4322600753981443
sg12
F135335251.7893
sg13
Nsba(iGraphics.simplified_new
Scores
p139
(dp140
g10
I19
sg11
F0.6579178135179621
sg12
F126250805.8476
sg13
Nsba(iGraphics.simplified_new
Scores
p141
(dp142
g10
I17
sg11
F0.5768002761101538
sg12
F118703695.3378
sg13
Nsbasg52
S'SWAY5'
p143
sbsS'SWAY5_5000'
p144
(iGraphics.simplified_new
SolutionHolder
p145
(dp146
g4
g5
sg6
(lp147
(iGraphics.simplified_new
Scores
p148
(dp149
g10
I19
sg11
F0.5129508036056855
sg12
F120024712.6392
sg13
Nsba(iGraphics.simplified_new
Scores
p150
(dp151
g10
I39
sg11
F0.4090146406992458
sg12
F131132911.2128
sg13
Nsba(iGraphics.simplified_new
Scores
p152
(dp153
g10
I66
sg11
F0.41568225380506135
sg12
F136766952.8989
sg13
Nsba(iGraphics.simplified_new
Scores
p154
(dp155
g10
I61
sg11
F0.42715126220100597
sg12
F128547491.3223
sg13
Nsba(iGraphics.simplified_new
Scores
p156
(dp157
g10
I52
sg11
F0.4034149877523482
sg12
F131194502.4294
sg13
Nsba(iGraphics.simplified_new
Scores
p158
(dp159
g10
I59
sg11
F0.5551689279733769
sg12
F131523871.1518
sg13
Nsba(iGraphics.simplified_new
Scores
p160
(dp161
g10
I59
sg11
F0.48475018940668013
sg12
F135871339.0774
sg13
Nsba(iGraphics.simplified_new
Scores
p162
(dp163
g10
I39
sg11
F0.6203314303043547
sg12
F138952855.038
sg13
Nsba(iGraphics.simplified_new
Scores
p164
(dp165
g10
I63
sg11
F0.4910425513809515
sg12
F135871847.1265
sg13
Nsba(iGraphics.simplified_new
Scores
p166
(dp167
g10
I36
sg11
F0.4684654505679586
sg12
F124468637.2563
sg13
Nsba(iGraphics.simplified_new
Scores
p168
(dp169
g10
I38
sg11
F0.5124987786971008
sg12
F130970694.1854
sg13
Nsba(iGraphics.simplified_new
Scores
p170
(dp171
g10
I59
sg11
F0.4597948769891969
sg12
F138859237.4733
sg13
Nsba(iGraphics.simplified_new
Scores
p172
(dp173
g10
I58
sg11
F0.3242638717081327
sg12
F132733759.0586
sg13
Nsba(iGraphics.simplified_new
Scores
p174
(dp175
g10
I34
sg11
F0.5243770133193659
sg12
F132417268.8852
sg13
Nsba(iGraphics.simplified_new
Scores
p176
(dp177
g10
I33
sg11
F0.45919273738539845
sg12
F132869121.6086
sg13
Nsba(iGraphics.simplified_new
Scores
p178
(dp179
g10
I39
sg11
F0.44516129082456474
sg12
F131772436.8075
sg13
Nsba(iGraphics.simplified_new
Scores
p180
(dp181
g10
I19
sg11
F0.4306476262453731
sg12
F124548917.2832
sg13
Nsba(iGraphics.simplified_new
Scores
p182
(dp183
g10
I39
sg11
F0.4694386176504983
sg12
F128751627.5016
sg13
Nsba(iGraphics.simplified_new
Scores
p184
(dp185
g10
I39
sg11
F0.49265798311131553
sg12
F125175311.7416
sg13
Nsba(iGraphics.simplified_new
Scores
p186
(dp187
g10
I37
sg11
F0.46352268085794773
sg12
F129146731.0047
sg13
Nsbasg52
S'SWAY5'
p188
sbs.