(dp0
S'xomoo2'
p1
(dp2
S'Spread'
p3
(lp4
(lp5
S'NSGAII_100'
p6
aF0.6573847051276663
aF0.707846755704637
aF0.5852435387941013
aF0.7361738873903837
aF0.6735099499904089
aF0.7203755079277457
aF0.7687222991950952
aF0.7555264202909665
aF0.7980769486143131
aF0.790315168008563
aF0.7370394676326705
aF0.7417830946080725
aF0.7252449406257281
aF0.6700600421950544
aF0.6678760870849831
aF0.7111415023177223
aF0.7047571731319637
aF0.687739813816628
aF0.665856321547807
aF0.7047152006705291
aF0.7449355397550141
aF0.6376794253864589
aF0.708770388776406
aF0.7612648123725733
aF0.6579933399749011
aF0.8211587243960119
aF0.76123431074275
aF0.7717731870746183
aF0.6746752176479446
aF0.7168746970384606
aF0.7347692297035424
aF0.6824141002224275
aF0.8137797576067578
aF0.6549931761817882
aF0.687960556678031
aF0.7734544326877801
aF0.6576623294026166
aF0.7581151503147595
aF0.666694910699725
aF0.7924676391932564
aF0.7427608549374749
aF0.6763797427347108
aF0.7729374598216299
aF0.7382483395566731
aF0.6621246529342004
aF0.7329622838076004
aF0.7295975980971864
aF0.6844808648330177
aF0.707761835365435
aF0.8257873033639319
aF0.6005770971421515
aF0.6930986453235608
aF0.6036242282650923
aF0.6647382728534911
aF0.7693468371084918
aF0.6865248665768006
aF0.7491288147131268
aF0.6567447382029987
aF0.6868519316221353
aF0.755057471888494
aF0.6923079987935299
aF0.732891764829058
aF0.723745128378617
aF0.7633115151070512
aF0.6888794545062786
aF0.780251877149917
aF0.6697063924198658
aF0.7285081559673424
aF0.6873472448527417
aF0.7823082042175784
aF0.7480744584069922
aF0.6665992186551094
aF0.7991505753626329
aF0.747464107599799
aF0.7234505807927398
aF0.7757975297934248
aF0.7070459597393314
aF0.6839439633221884
aF0.6802411727975735
aF0.691674385084211
aF0.777723350708156
aF0.7776308389456569
aF0.7945705972366945
aF0.7290602550855103
aa(lp7
S'SPEA2_100'
p8
aF0.7050774765200128
aF0.6507540745437111
aF0.6653224634344521
aF0.6709986822773966
aF0.7019463216585512
aF0.6868201483145173
aF0.6983636665166435
aF0.7349742993688808
aF0.7452025247861348
aF0.6401865088702551
aF0.6991459748934762
aF0.7197239287863956
aF0.75447753074876
aF0.7109739986604959
aF0.6865179663358965
aF0.6705410685885919
aF0.7080374881866748
aF0.7368873684860625
aF0.7669094467343209
aF0.7464905329195395
aF0.7198515555414917
aF0.7625866468337735
aF0.6896360250769897
aF0.6423252061734862
aF0.6951266750139206
aF0.7045903805355691
aF0.7355583620761559
aF0.757526433127583
aF0.761246086061223
aF0.6784903304352227
aF0.6912797905563887
aF0.7157911978147782
aF0.6736606292531637
aF0.6386144517107301
aF0.6897122031469208
aF0.7027943566134239
aF0.7328917333130583
aF0.6512866773324762
aF0.6915716375848561
aF0.7433876100751042
aF0.719535294632652
aF0.8006727851636634
aF0.6933981336771116
aF0.7335080268212754
aF0.7050127423986708
aF0.8101428608987541
aF0.6805393193528889
aF0.6359269297939208
aF0.7810942051488443
aF0.6645869854022601
aF0.7054355586870907
aF0.69045166574239
aF0.7177656779615404
aF0.6801422989590669
aF0.6915059338308442
aF0.7095347004264964
aF0.7101367611124365
aF0.7396189625042808
aF0.7305817958043764
aF0.6582382896379325
aF0.7897445191290171
aF0.7281498762498451
aF0.7620318017117231
aF0.7062574392336577
aF0.7509916046598237
aF0.8022951033469404
aF0.6664226264790313
aF0.7512697302583946
aF0.6214984115015693
aF0.6811758585517455
aF0.7932472547799246
aF0.6236462963822698
aF0.7082826222512787
aF0.7176690457177142
aF0.8006159302569466
aF0.6479028781503827
aF0.7214812011059372
aF0.7628927624923973
aF0.756949661940238
aF0.7004715654066482
aF0.6675871552058121
aF0.7893386918067345
aF0.728918155484875
aF0.6918486086174214
aa(lp9
S'SWAY5_10000'
p10
aF0.4800778621649631
aF0.43844919556890144
aF0.5144952675985668
aF0.4190388776291057
aF0.513194817615118
aF0.5207848038349655
aF0.5173493351474736
aF0.5047314108685003
aF0.5851496065138084
aF0.4656107548089521
aF0.3828792664452576
aF0.4843595394319402
aF0.5457489773457699
aF0.47875948972128
aF0.4313046020018566
aF0.45187613612134886
aF0.5352048683757915
aF0.4244270038877445
aF0.6375429843180147
aF0.39145963485904123
aF0.4280699995654476
aF0.38277051913315374
aF0.4455423618055102
aF0.5011188212476518
aF0.43880725467284143
aF0.4780438425083003
aF0.47867608273419526
aF0.5238293974034767
aF0.4382434919085198
aF0.4477928507063915
aF0.43454012475196546
aF0.4675762867030506
aF0.4357316289643147
aF0.42937509183449435
aF0.49758212475861147
aF0.4122117781132653
aF0.45792681336247304
aF0.4252006643717519
aF0.47281111381250734
aF0.4841749620919867
aF0.494647004349962
aF0.44757087656199285
aF0.4851945707925812
aF0.4987206797430568
aF0.4942615187949646
aF0.463946090695149
aF0.4953744131023907
aF0.4602468741318335
aF0.43439985222343735
aF0.5343859873327925
aF0.4920732709986496
aF0.4546646916403999
aF0.5290129564239382
aF0.46644381379112454
aF0.4278572852721836
aF0.42955152913721806
aF0.4100093503483992
aF0.4413938559783367
aF0.48372883638655845
aF0.4140527729644447
aF0.4239918166701347
aF0.45490737663721886
aF0.4473651641565384
aF0.48829660378982565
aF0.4505012779876557
aF0.4241707090617011
aF0.4275416091842048
aF0.42757624278724804
aF0.4989706237552446
aF0.4893552566017743
aF0.48298720776348464
aF0.42552204529765475
aF0.43187870545940504
aF0.4614245048642948
aF0.4803508851007702
aF0.46235613050642094
aF0.41382342096145647
aF0.4237657822808381
aF0.47047155874633084
aF0.4393893026634508
aF0.46022109906486075
aF0.47628855346563465
aF0.43942301180153664
aF0.49188344259298955
aasS'HV'
p11
(lp12
(lp13
S'NSGAII_100'
p14
aF144372517.8275
aF143190588.9936
aF143477834.4286
aF143310162.2744
aF141974183.2782
aF144749870.8152
aF142574688.6962
aF141765075.8965
aF144887539.8693
aF143569121.1496
aF144881526.1651
aF142587187.0754
aF142478091.2003
aF141888783.7562
aF142040838.7412
aF141315501.874
aF141516233.4259
aF142788088.3668
aF142989004.9486
aF142044478.1206
aF143331197.4079
aF141879698.731
aF144129514.0153
aF143074370.324
aF141224494.1287
aF142019477.9625
aF141997737.7596
aF141249993.0753
aF142986981.8561
aF142778932.0544
aF143227703.8456
aF143524039.101
aF142557131.9412
aF143065808.2494
aF143381955.3051
aF141426559.4473
aF143226225.5006
aF143404943.6559
aF140973726.4262
aF140176648.9586
aF142048337.5082
aF142761543.6635
aF144204607.4671
aF141554708.9415
aF142376582.0049
aF142567826.6055
aF143078904.1412
aF142918527.2687
aF141906179.2063
aF142693762.5234
aF143165902.9235
aF143387521.1621
aF142253612.6215
aF143411339.3797
aF141043525.1908
aF142658888.241
aF144021085.832
aF141826078.8859
aF141969418.96
aF142872319.9458
aF144794876.7216
aF141160831.6675
aF143675000.1685
aF143927847.234
aF142100185.2379
aF142714660.7206
aF143979255.4303
aF142994105.552
aF142331788.6119
aF142918621.0527
aF142724876.7986
aF143475750.4545
aF142423585.7036
aF140101365.6459
aF142011508.5979
aF143071704.8786
aF144758493.3199
aF140334041.2786
aF143628372.5054
aF142988682.3455
aF142372799.3253
aF138406226.0854
aF141532941.4033
aF143918013.66
aa(lp15
S'SPEA2_100'
p16
aF143375748.3049
aF139629542.6497
aF142146269.7918
aF142210821.3267
aF139470202.2747
aF145426762.0597
aF143099280.8909
aF142027545.1663
aF143582980.8452
aF143867837.3697
aF142508308.7572
aF143723825.3071
aF142682444.5289
aF141981202.9765
aF143512885.2012
aF143309543.2751
aF143341124.558
aF143983076.3342
aF142801725.0244
aF143170905.6424
aF141758757.0824
aF142415254.7614
aF142901416.0167
aF142245951.7684
aF144299454.1856
aF143325543.4656
aF142666206.9829
aF142915693.5334
aF142852914.2668
aF141187286.3718
aF141826654.5209
aF143338240.8343
aF140937297.6396
aF143518412.5956
aF142130238.4587
aF145482781.6282
aF140978961.5732
aF141960580.2342
aF144573934.7188
aF143039337.0864
aF144478171.077
aF140916181.3833
aF141851379.8257
aF142603959.9022
aF143390190.2365
aF144157930.313
aF143158475.2153
aF142322575.3051
aF144339844.9075
aF143673538.6511
aF143748242.4241
aF143890072.1598
aF142694681.7146
aF140436907.8567
aF143329599.3291
aF141798637.9321
aF144390368.0905
aF142828597.8481
aF142924104.261
aF143972858.5026
aF143677694.4191
aF141504311.1491
aF141943377.8434
aF141114368.6111
aF142037837.282
aF141797763.124
aF144760418.7948
aF143253343.5526
aF144569046.3599
aF144285077.0516
aF140059105.3509
aF143119783.5322
aF142762510.2527
aF141923672.9491
aF141567101.7029
aF141289237.0756
aF141234569.8761
aF141782802.5858
aF141855102.2925
aF142265502.9078
aF142363653.9119
aF141264867.648
aF144723156.1059
aF143526340.5433
aa(lp17
S'SWAY5_10000'
p18
aF137790077.2124
aF133888820.7598
aF120704440.6399
aF137659306.3778
aF133976089.027
aF132458121.2139
aF115320408.538
aF129355093.5965
aF127721508.3078
aF126716492.3715
aF130459744.8634
aF138761112.6607
aF136037131.3657
aF137707869.536
aF124539193.0373
aF131907571.628
aF136173974.7393
aF134488596.222
aF137763897.5621
aF132546999.2139
aF138077538.7008
aF135212807.5686
aF137615018.5282
aF131604284.4213
aF133477443.1756
aF127770330.3412
aF130718360.3147
aF141692350.0055
aF133705065.67
aF128064996.4023
aF135797807.0044
aF134642122.9535
aF123418982.8968
aF142555275.3275
aF135301492.7151
aF135948924.3867
aF136971095.6342
aF134175680.9329
aF128607472.8959
aF133361491.9442
aF131930450.2901
aF131525353.9951
aF139178094.6581
aF132613470.0871
aF129434854.3718
aF137432312.4643
aF134529243.3947
aF129619175.2978
aF131812660.317
aF133199359.8015
aF130637036.0281
aF139726240.6053
aF130116850.4165
aF132821812.8235
aF134175702.2228
aF136714500.9545
aF140173943.9647
aF128531337.8013
aF135393665.5415
aF133010029.0628
aF131759603.7685
aF120358088.0158
aF132994825.6602
aF125934411.9807
aF134883651.5786
aF137624848.9394
aF134123199.1242
aF125842570.7602
aF138817025.8527
aF130215772.3741
aF132396603.7008
aF128969559.5327
aF126981665.5974
aF133555701.1081
aF125062713.0696
aF122408689.9082
aF136743316.453
aF138768692.0126
aF128575742.3573
aF132961927.133
aF134754318.1504
aF135237528.2574
aF133950383.8018
aF125093852.4789
aass.