(dp0
S'SPEA2_100'
p1
(iGraphics.simplified_new
SolutionHolder
p2
(dp3
S'problem'
p4
S'xomo_flight'
p5
sS'repeats'
p6
(lp7
(iGraphics.simplified_new
Scores
p8
(dp9
S'pfs'
p10
I100
sS'spread'
p11
F0.6039672156832253
sS'hv'
p12
F145992537.544
sS'igd'
p13
Nsba(iGraphics.simplified_new
Scores
p14
(dp15
g10
I100
sg11
F0.6810382380668791
sg12
F143874319.8309
sg13
Nsba(iGraphics.simplified_new
Scores
p16
(dp17
g10
I100
sg11
F0.6839766455883117
sg12
F142071167.7362
sg13
Nsba(iGraphics.simplified_new
Scores
p18
(dp19
g10
I100
sg11
F0.6749865491202028
sg12
F144737851.0904
sg13
Nsba(iGraphics.simplified_new
Scores
p20
(dp21
g10
I100
sg11
F0.793407300720536
sg12
F143578615.7781
sg13
Nsba(iGraphics.simplified_new
Scores
p22
(dp23
g10
I100
sg11
F0.7066776426614851
sg12
F143275873.3317
sg13
Nsba(iGraphics.simplified_new
Scores
p24
(dp25
g10
I100
sg11
F0.6889440346478446
sg12
F144317661.7326
sg13
Nsba(iGraphics.simplified_new
Scores
p26
(dp27
g10
I100
sg11
F0.6529581978619109
sg12
F143185446.6132
sg13
Nsba(iGraphics.simplified_new
Scores
p28
(dp29
g10
I100
sg11
F0.6627881918378237
sg12
F143073509.5121
sg13
Nsba(iGraphics.simplified_new
Scores
p30
(dp31
g10
I100
sg11
F0.6774286192193021
sg12
F142585549.7819
sg13
Nsba(iGraphics.simplified_new
Scores
p32
(dp33
g10
I100
sg11
F0.70315816739057
sg12
F142719856.967
sg13
Nsba(iGraphics.simplified_new
Scores
p34
(dp35
g10
I100
sg11
F0.6815132594312995
sg12
F144970121.9734
sg13
Nsba(iGraphics.simplified_new
Scores
p36
(dp37
g10
I100
sg11
F0.7125798750298636
sg12
F143727837.1672
sg13
Nsba(iGraphics.simplified_new
Scores
p38
(dp39
g10
I100
sg11
F0.6815768830030506
sg12
F142644089.0897
sg13
Nsba(iGraphics.simplified_new
Scores
p40
(dp41
g10
I100
sg11
F0.6620805522592523
sg12
F143806504.7003
sg13
Nsba(iGraphics.simplified_new
Scores
p42
(dp43
g10
I100
sg11
F0.7577474774129522
sg12
F143015108.7406
sg13
Nsba(iGraphics.simplified_new
Scores
p44
(dp45
g10
I100
sg11
F0.6476873813984038
sg12
F144117439.5782
sg13
Nsba(iGraphics.simplified_new
Scores
p46
(dp47
g10
I100
sg11
F0.6826449019048432
sg12
F142883817.3212
sg13
Nsba(iGraphics.simplified_new
Scores
p48
(dp49
g10
I100
sg11
F0.7102136757091989
sg12
F144397362.1209
sg13
Nsba(iGraphics.simplified_new
Scores
p50
(dp51
g10
I100
sg11
F0.7402425474457806
sg12
F143178746.6664
sg13
NsbasS'algorithm'
p52
S'SPEA2'
p53
sbsS'SWAY5_1225'
p54
(iGraphics.simplified_new
SolutionHolder
p55
(dp56
g4
g5
sg6
(lp57
(iGraphics.simplified_new
Scores
p58
(dp59
g10
I19
sg11
F0.6531351540943771
sg12
F130937664.01
sg13
Nsba(iGraphics.simplified_new
Scores
p60
(dp61
g10
I29
sg11
F0.40030653091225554
sg12
F127860751.4988
sg13
Nsba(iGraphics.simplified_new
Scores
p62
(dp63
g10
I25
sg11
F0.4604866178326719
sg12
F135188326.2761
sg13
Nsba(iGraphics.simplified_new
Scores
p64
(dp65
g10
I29
sg11
F0.5829112032123522
sg12
F133436081.0897
sg13
Nsba(iGraphics.simplified_new
Scores
p66
(dp67
g10
I19
sg11
F0.6595429420628455
sg12
F124594013.9917
sg13
Nsba(iGraphics.simplified_new
Scores
p68
(dp69
g10
I19
sg11
F0.4722212194203907
sg12
F124252558.3177
sg13
Nsba(iGraphics.simplified_new
Scores
p70
(dp71
g10
I19
sg11
F0.4730457949897134
sg12
F133143786.7822
sg13
Nsba(iGraphics.simplified_new
Scores
p72
(dp73
g10
I19
sg11
F0.5225725382328438
sg12
F127763272.643
sg13
Nsba(iGraphics.simplified_new
Scores
p74
(dp75
g10
I28
sg11
F0.5253738554077204
sg12
F122155552.1463
sg13
Nsba(iGraphics.simplified_new
Scores
p76
(dp77
g10
I19
sg11
F0.5253426003965703
sg12
F135094129.9047
sg13
Nsba(iGraphics.simplified_new
Scores
p78
(dp79
g10
I33
sg11
F0.5265187108485587
sg12
F131274403.5423
sg13
Nsba(iGraphics.simplified_new
Scores
p80
(dp81
g10
I19
sg11
F0.5087357983563257
sg12
F124081035.3977
sg13
Nsba(iGraphics.simplified_new
Scores
p82
(dp83
g10
I19
sg11
F0.6664672879994817
sg12
F128357461.9756
sg13
Nsba(iGraphics.simplified_new
Scores
p84
(dp85
g10
I33
sg11
F0.49556772859475046
sg12
F138740688.4224
sg13
Nsba(iGraphics.simplified_new
Scores
p86
(dp87
g10
I19
sg11
F0.5692420783636868
sg12
F121006089.5154
sg13
Nsba(iGraphics.simplified_new
Scores
p88
(dp89
g10
I19
sg11
F0.541942161174075
sg12
F128995038.7571
sg13
Nsba(iGraphics.simplified_new
Scores
p90
(dp91
g10
I19
sg11
F0.4621162259863117
sg12
F115948110.7012
sg13
Nsba(iGraphics.simplified_new
Scores
p92
(dp93
g10
I19
sg11
F0.5338741020052866
sg12
F118115228.4276
sg13
Nsba(iGraphics.simplified_new
Scores
p94
(dp95
g10
I32
sg11
F0.4267724476281462
sg12
F125669292.4205
sg13
Nsba(iGraphics.simplified_new
Scores
p96
(dp97
g10
I19
sg11
F0.5765678331408837
sg12
F137945626.2685
sg13
Nsbasg52
S'SWAY5'
p98
sbsS'SWAY5_5000'
p99
(iGraphics.simplified_new
SolutionHolder
p100
(dp101
g4
g5
sg6
(lp102
(iGraphics.simplified_new
Scores
p103
(dp104
g10
I39
sg11
F0.5620696801896939
sg12
F125038735.2144
sg13
Nsba(iGraphics.simplified_new
Scores
p105
(dp106
g10
I59
sg11
F0.4472837820130151
sg12
F141697540.5472
sg13
Nsba(iGraphics.simplified_new
Scores
p107
(dp108
g10
I33
sg11
F0.36599926330869986
sg12
F132091894.8185
sg13
Nsba(iGraphics.simplified_new
Scores
p109
(dp110
g10
I36
sg11
F0.542426506682757
sg12
F130680973.1289
sg13
Nsba(iGraphics.simplified_new
Scores
p111
(dp112
g10
I26
sg11
F0.40911689937823004
sg12
F131311925.4101
sg13
Nsba(iGraphics.simplified_new
Scores
p113
(dp114
g10
I18
sg11
F0.6595439642588639
sg12
F123712034.1114
sg13
Nsba(iGraphics.simplified_new
Scores
p115
(dp116
g10
I19
sg11
F0.6110703512313735
sg12
F126079035.5221
sg13
Nsba(iGraphics.simplified_new
Scores
p117
(dp118
g10
I39
sg11
F0.5404074148303618
sg12
F139047189.5431
sg13
Nsba(iGraphics.simplified_new
Scores
p119
(dp120
g10
I39
sg11
F0.3199584295701027
sg12
F130220837.2232
sg13
Nsba(iGraphics.simplified_new
Scores
p121
(dp122
g10
I56
sg11
F0.4851226804944283
sg12
F132642265.7515
sg13
Nsba(iGraphics.simplified_new
Scores
p123
(dp124
g10
I29
sg11
F0.45930053735100135
sg12
F123779600.1416
sg13
Nsba(iGraphics.simplified_new
Scores
p125
(dp126
g10
I39
sg11
F0.5786111821777422
sg12
F131327433.8324
sg13
Nsba(iGraphics.simplified_new
Scores
p127
(dp128
g10
I39
sg11
F0.5039398859695369
sg12
F135334475.5394
sg13
Nsba(iGraphics.simplified_new
Scores
p129
(dp130
g10
I39
sg11
F0.48798242379006157
sg12
F125900756.6057
sg13
Nsba(iGraphics.simplified_new
Scores
p131
(dp132
g10
I22
sg11
F0.4690842608119339
sg12
F122218427.7023
sg13
Nsba(iGraphics.simplified_new
Scores
p133
(dp134
g10
I29
sg11
F0.4733519940958076
sg12
F136448409.7166
sg13
Nsba(iGraphics.simplified_new
Scores
p135
(dp136
g10
I69
sg11
F0.4594040335500197
sg12
F133041821.0792
sg13
Nsba(iGraphics.simplified_new
Scores
p137
(dp138
g10
I19
sg11
F0.4681501993464903
sg12
F128876380.8774
sg13
Nsba(iGraphics.simplified_new
Scores
p139
(dp140
g10
I56
sg11
F0.46645396301675013
sg12
F133843286.7188
sg13
Nsba(iGraphics.simplified_new
Scores
p141
(dp142
g10
I60
sg11
F0.4796937648971368
sg12
F134250349.3972
sg13
Nsbasg52
S'SWAY5'
p143
sbsS'SWAY5_2500'
p144
(iGraphics.simplified_new
SolutionHolder
p145
(dp146
g4
g5
sg6
(lp147
(iGraphics.simplified_new
Scores
p148
(dp149
g10
I39
sg11
F0.43700188785058236
sg12
F129299853.4509
sg13
Nsba(iGraphics.simplified_new
Scores
p150
(dp151
g10
I29
sg11
F0.5550359575557825
sg12
F116245810.0994
sg13
Nsba(iGraphics.simplified_new
Scores
p152
(dp153
g10
I29
sg11
F0.5589253379448753
sg12
F130995357.9433
sg13
Nsba(iGraphics.simplified_new
Scores
p154
(dp155
g10
I29
sg11
F0.5308331343420368
sg12
F132444009.7153
sg13
Nsba(iGraphics.simplified_new
Scores
p156
(dp157
g10
I39
sg11
F0.4918617724835708
sg12
F134620288.7612
sg13
Nsba(iGraphics.simplified_new
Scores
p158
(dp159
g10
I27
sg11
F0.49479367839021665
sg12
F135587992.7013
sg13
Nsba(iGraphics.simplified_new
Scores
p160
(dp161
g10
I39
sg11
F0.44992169442179547
sg12
F134619068.2785
sg13
Nsba(iGraphics.simplified_new
Scores
p162
(dp163
g10
I30
sg11
F0.5416686171443582
sg12
F130383989.5347
sg13
Nsba(iGraphics.simplified_new
Scores
p164
(dp165
g10
I25
sg11
F0.4515880648227634
sg12
F128157862.8278
sg13
Nsba(iGraphics.simplified_new
Scores
p166
(dp167
g10
I39
sg11
F0.3758009604662406
sg12
F139739059.521
sg13
Nsba(iGraphics.simplified_new
Scores
p168
(dp169
g10
I34
sg11
F0.5075711576252766
sg12
F138019102.8198
sg13
Nsba(iGraphics.simplified_new
Scores
p170
(dp171
g10
I26
sg11
F0.5749857064343701
sg12
F126475775.935
sg13
Nsba(iGraphics.simplified_new
Scores
p172
(dp173
g10
I29
sg11
F0.48954185757078506
sg12
F127488338.3859
sg13
Nsba(iGraphics.simplified_new
Scores
p174
(dp175
g10
I44
sg11
F0.458860482570402
sg12
F134622944.0521
sg13
Nsba(iGraphics.simplified_new
Scores
p176
(dp177
g10
I30
sg11
F0.5267786096881731
sg12
F132328603.852
sg13
Nsba(iGraphics.simplified_new
Scores
p178
(dp179
g10
I44
sg11
F0.5223441290345711
sg12
F134130023.7384
sg13
Nsba(iGraphics.simplified_new
Scores
p180
(dp181
g10
I22
sg11
F0.5077240252191109
sg12
F128273306.6227
sg13
Nsba(iGraphics.simplified_new
Scores
p182
(dp183
g10
I19
sg11
F0.6105460712090719
sg12
F121821390.3794
sg13
Nsba(iGraphics.simplified_new
Scores
p184
(dp185
g10
I32
sg11
F0.45809890076665155
sg12
F128240488.691
sg13
Nsba(iGraphics.simplified_new
Scores
p186
(dp187
g10
I29
sg11
F0.521475460660827
sg12
F128037791.4238
sg13
Nsbasg52
S'SWAY5'
p188
sbsS'SWAY5_10000'
p189
(iGraphics.simplified_new
SolutionHolder
p190
(dp191
g4
g5
sg6
(lp192
(iGraphics.simplified_new
Scores
p193
(dp194
g10
I78
sg11
F0.4030305608868717
sg12
F140346272.1563
sg13
Nsba(iGraphics.simplified_new
Scores
p195
(dp196
g10
I78
sg11
F0.4786619466346487
sg12
F134184471.5954
sg13
Nsba(iGraphics.simplified_new
Scores
p197
(dp198
g10
I58
sg11
F0.4506316094264718
sg12
F126948911.6004
sg13
Nsba(iGraphics.simplified_new
Scores
p199
(dp200
g10
I68
sg11
F0.4402094163699202
sg12
F132128370.8444
sg13
Nsba(iGraphics.simplified_new
Scores
p201
(dp202
g10
I39
sg11
F0.47776590782941497
sg12
F132473451.6761
sg13
Nsba(iGraphics.simplified_new
Scores
p203
(dp204
g10
I44
sg11
F0.44340479232766683
sg12
F142696153.408
sg13
Nsba(iGraphics.simplified_new
Scores
p205
(dp206
g10
I78
sg11
F0.5242127154251816
sg12
F132780622.8869
sg13
Nsba(iGraphics.simplified_new
Scores
p207
(dp208
g10
I58
sg11
F0.4437138114462587
sg12
F141676794.446
sg13
Nsba(iGraphics.simplified_new
Scores
p209
(dp210
g10
I32
sg11
F0.48820512915892156
sg12
F128130233.9746
sg13
Nsba(iGraphics.simplified_new
Scores
p211
(dp212
g10
I34
sg11
F0.5595665571437056
sg12
F122805241.142
sg13
Nsba(iGraphics.simplified_new
Scores
p213
(dp214
g10
I88
sg11
F0.5087819779166628
sg12
F137205271.2799
sg13
Nsba(iGraphics.simplified_new
Scores
p215
(dp216
g10
I88
sg11
F0.43587737142532684
sg12
F137567482.0983
sg13
Nsba(iGraphics.simplified_new
Scores
p217
(dp218
g10
I78
sg11
F0.42979597688283666
sg12
F135553654.5544
sg13
Nsba(iGraphics.simplified_new
Scores
p219
(dp220
g10
I51
sg11
F0.4673343167765466
sg12
F130093348.3601
sg13
Nsba(iGraphics.simplified_new
Scores
p221
(dp222
g10
I58
sg11
F0.497035403139757
sg12
F134257158.4177
sg13
Nsba(iGraphics.simplified_new
Scores
p223
(dp224
g10
I27
sg11
F0.4024342503344759
sg12
F134263498.6155
sg13
Nsba(iGraphics.simplified_new
Scores
p225
(dp226
g10
I66
sg11
F0.44674620888542543
sg12
F134752693.8606
sg13
Nsba(iGraphics.simplified_new
Scores
p227
(dp228
g10
I51
sg11
F0.47755600259948716
sg12
F133096533.8553
sg13
Nsba(iGraphics.simplified_new
Scores
p229
(dp230
g10
I68
sg11
F0.4189461867651609
sg12
F135423578.3053
sg13
Nsba(iGraphics.simplified_new
Scores
p231
(dp232
g10
I78
sg11
F0.44827259597605335
sg12
F138598873.1272
sg13
Nsbasg52
S'SWAY5'
p233
sbsS'NSGAII_100'
p234
(iGraphics.simplified_new
SolutionHolder
p235
(dp236
g4
g5
sg6
(lp237
(iGraphics.simplified_new
Scores
p238
(dp239
g10
I100
sg11
F0.7706678049042952
sg12
F144360271.2988
sg13
Nsba(iGraphics.simplified_new
Scores
p240
(dp241
g10
I100
sg11
F0.6767651442568352
sg12
F144969179.866
sg13
Nsba(iGraphics.simplified_new
Scores
p242
(dp243
g10
I100
sg11
F0.7237791621147767
sg12
F141329603.8666
sg13
Nsba(iGraphics.simplified_new
Scores
p244
(dp245
g10
I100
sg11
F0.7508853681066668
sg12
F144773589.1411
sg13
Nsba(iGraphics.simplified_new
Scores
p246
(dp247
g10
I100
sg11
F0.7596109280723786
sg12
F143081326.2808
sg13
Nsba(iGraphics.simplified_new
Scores
p248
(dp249
g10
I100
sg11
F0.7245693055281138
sg12
F143711287.0664
sg13
Nsba(iGraphics.simplified_new
Scores
p250
(dp251
g10
I100
sg11
F0.7299009678525066
sg12
F142126593.2417
sg13
Nsba(iGraphics.simplified_new
Scores
p252
(dp253
g10
I100
sg11
F0.8005813647172784
sg12
F145903877.3263
sg13
Nsba(iGraphics.simplified_new
Scores
p254
(dp255
g10
I100
sg11
F0.8003509492365043
sg12
F143399119.7111
sg13
Nsba(iGraphics.simplified_new
Scores
p256
(dp257
g10
I100
sg11
F0.7905484741090918
sg12
F141788817.8688
sg13
Nsba(iGraphics.simplified_new
Scores
p258
(dp259
g10
I100
sg11
F0.7646147435706767
sg12
F143874913.5525
sg13
Nsba(iGraphics.simplified_new
Scores
p260
(dp261
g10
I100
sg11
F0.7142296458806773
sg12
F143213458.9413
sg13
Nsba(iGraphics.simplified_new
Scores
p262
(dp263
g10
I100
sg11
F0.652260465459971
sg12
F144986403.1308
sg13
Nsba(iGraphics.simplified_new
Scores
p264
(dp265
g10
I100
sg11
F0.689018214421206
sg12
F143407853.8753
sg13
Nsba(iGraphics.simplified_new
Scores
p266
(dp267
g10
I100
sg11
F0.5808162705807648
sg12
F141472293.6082
sg13
Nsba(iGraphics.simplified_new
Scores
p268
(dp269
g10
I100
sg11
F0.6752656530941791
sg12
F144235549.469
sg13
Nsba(iGraphics.simplified_new
Scores
p270
(dp271
g10
I100
sg11
F0.757798476039006
sg12
F143018626.3961
sg13
Nsba(iGraphics.simplified_new
Scores
p272
(dp273
g10
I100
sg11
F0.7947453905546934
sg12
F142302182.3853
sg13
Nsba(iGraphics.simplified_new
Scores
p274
(dp275
g10
I100
sg11
F0.652317298281582
sg12
F144051748.4298
sg13
Nsba(iGraphics.simplified_new
Scores
p276
(dp277
g10
I100
sg11
F0.8115358026511145
sg12
F145161215.2954
sg13
Nsbasg52
S'NSGAII'
p278
sbs.