(dp0
S'xomoo2'
p1
(dp2
S'Spread'
p3
(lp4
(lp5
S'SPEA2_100'
p6
aF0.6938922866165338
aF0.6085855206764168
aF0.6783966707097476
aF0.65009983036404
aF0.7355187128815965
aF0.6679697741035304
aF0.7141815480658575
aF0.7053780707455325
aF0.6574334419240454
aF0.756038811024568
aF0.6648731665135285
aF0.6918615868132102
aF0.706964537741178
aF0.7041298381692965
aF0.6872542221609996
aF0.736026266259142
aF0.7265515814682175
aF0.6833326255065535
aF0.6650374317572847
aF0.7230974378006292
aa(lp7
S'SPEA2SC-1225_100'
p8
aF0.7256250469825155
aF0.7048121298206891
aF0.702905178471748
aF0.73405699145424
aF0.6682175442547581
aF0.7248091830201507
aF0.6859098673693651
aF0.6978225872420846
aF0.6136950211463906
aF0.6708228559385068
aF0.7489786859817852
aF0.7120508515838518
aF0.700416237379752
aF0.7484825562489107
aF0.6033563337387969
aF0.7017991612556836
aF0.7597243905127009
aF0.6852198367450364
aF0.7122985460922119
aF0.7359781878905242
aa(lp9
S'SWAY5_1225'
p10
aF0.46369876792951126
aF0.44748583910249357
aF0.4548568432706288
aF0.4594467223614874
aF0.5382509495370404
aF0.49317299813856746
aF0.432313649175373
aF0.558658442557469
aF0.4677744789755114
aF0.4903417935804451
aF0.42995407549098535
aF0.5185014565780286
aF0.5282844883740023
aF0.42170129302957565
aF0.5571073518825896
aF0.5152780879613846
aF0.5614088970215907
aF0.5561098764932452
aF0.5017952535081144
aF0.6806364140204997
aa(lp11
S'SWAY5_5000'
p12
aF0.43919683946117705
aF0.46335381680734716
aF0.48591255416023976
aF0.4945616197233692
aF0.3723014317664274
aF0.5685177922115885
aF0.4439292958863231
aF0.5069989437435387
aF0.47237368572111477
aF0.539298086858543
aF0.4350044824193834
aF0.48696899391775006
aF0.49285189209547237
aF0.5765400295439007
aF0.42157077254275105
aF0.4253479402419645
aF0.46723865733223413
aF0.47026303724261836
aF0.5110220513748842
aF0.5930787113918183
aa(lp13
S'NSGAIISC-5000_100'
p14
aF0.7654209794395006
aF0.7053965368882147
aF0.7319057867749577
aF0.7141474772643658
aF0.7779076532069036
aF0.6629508974281524
aF0.7600597844273159
aF0.7327990136108095
aF0.7613988457845339
aF0.8528742652750384
aF0.6300566283412938
aF0.8241665556511525
aF0.6834919819759163
aF0.6975820387488969
aF0.7560770496989968
aF0.6533870527080056
aF0.7097901110577652
aF0.8208205004597957
aF0.7295496509613216
aF0.651329306576122
aa(lp15
S'SWAY5_2500'
p16
aF0.5479123229862299
aF0.49159337643527445
aF0.4717631864499965
aF0.4423506284776873
aF0.45425935533371514
aF0.4643024970891764
aF0.35992183613787276
aF0.5871310978931408
aF0.377016744042433
aF0.4234408034858711
aF0.4275399442660133
aF0.40044579287590204
aF0.45117329214387264
aF0.6487061116543278
aF0.5351074351576118
aF0.49127107707547196
aF0.4844786914148541
aF0.41202469224853605
aF0.5044096346425613
aF0.45530605639133404
aa(lp17
S'NSGAIISC-1225_100'
p18
aF0.7588654499133393
aF0.7449895817498048
aF0.7325356762352982
aF0.728052302481512
aF0.6353343210600545
aF0.7561329528479123
aF0.7272128437043719
aF0.7803925168436816
aF0.6918959369740658
aF0.7872951760253842
aF0.6417360831698128
aF0.7671350102202629
aF0.7010261471200314
aF0.7916078921584999
aF0.6347732162028008
aF0.6657188211882813
aF0.700542643406752
aF0.7917634488527001
aF0.7496878677214138
aF0.6925759692798328
aa(lp19
S'SWAY5_10000'
p20
aF0.45211447736201116
aF0.4701530372904189
aF0.4372071616297477
aF0.48159723789711234
aF0.43380542720406245
aF0.5139916423442813
aF0.4241459973993312
aF0.4951361419239619
aF0.4784055399785145
aF0.42630945537884574
aF0.3903977021531063
aF0.5876867967382347
aF0.45355455097386815
aF0.451349407678815
aF0.4692580186038277
aF0.505749023977013
aF0.5424760066219695
aF0.4510896058739718
aF0.41309212443177856
aF0.4528048443497133
aa(lp21
S'NSGAIISC-2500_100'
p22
aF0.7108333181240993
aF0.6994341804797157
aF0.7360495767691795
aF0.6961809252421554
aF0.7546689596619085
aF0.7351530457978496
aF0.7343839246252436
aF0.7508240670348113
aF0.7156602711803848
aF0.6846047457673754
aF0.7216490547087718
aF0.729754183304303
aF0.6216819241622262
aF0.7304939201212539
aF0.7205194283708888
aF0.7101609343792392
aF0.7000745214448205
aF0.6805785273166717
aF0.8050347154615985
aF0.7331714336189551
aa(lp23
S'NSGAII_100'
p24
aF0.6753529975996081
aF0.6452427931211204
aF0.7156032271759063
aF0.743034000299474
aF0.8014345246956873
aF0.6448409585353939
aF0.700633105024708
aF0.8999969615547461
aF0.6716684562370557
aF0.6552985924373801
aF0.7634450843346026
aF0.6992908173912703
aF0.7519987270030501
aF0.7059398914342998
aF0.763435260853624
aF0.7479539799952537
aF0.6457686501881381
aF0.7451969244139399
aF0.7170310683971362
aF0.8093511727498529
aa(lp25
S'SPEA2SC-2500_100'
p26
aF0.7272498908810057
aF0.6714903792722438
aF0.7090146096166811
aF0.7182530095887304
aF0.662012747687974
aF0.7183241874909098
aF0.6208045200109352
aF0.6873046192412597
aF0.7744024862450134
aF0.6817742440479974
aF0.6725239878681625
aF0.7590197917998174
aF0.7304373017606041
aF0.7632608186950308
aF0.6737261387094097
aF0.6974659554491446
aF0.7254941831399251
aF0.6754365553678335
aF0.6162828346155714
aF0.7332104058956829
aa(lp27
S'SPEA2SC-10000_100'
p28
aF0.6882495861262128
aF0.7615713927705327
aF0.673650474292998
aF0.7427942506180851
aF0.682242893770714
aF0.6633890470425349
aF0.7270939872815664
aF0.6841859343933373
aF0.6950228959458882
aF0.7372162214503157
aF0.7231523017378793
aF0.6963988640773972
aF0.6895723873376153
aF0.6519609386501999
aF0.7277460940002238
aF0.6932119460660295
aF0.6658432079840759
aF0.6957414220328391
aF0.7557360803971016
aF0.6888376932878574
aasS'HV'
p29
(lp30
(lp31
S'SPEA2_100'
p32
aF141848534.2903
aF142103452.0423
aF142409586.0214
aF143591877.0493
aF143092614.0245
aF142202221.7465
aF143706672.8401
aF142555381.925
aF143143815.9704
aF143967255.6862
aF141492921.6277
aF140749080.6528
aF140187448.1695
aF141449414.4399
aF141624177.8138
aF142308300.9752
aF143418850.5506
aF143970304.0618
aF142794138.0128
aF141159377.3537
aa(lp33
S'SPEA2SC-1225_100'
p34
aF140782511.7538
aF142517478.4881
aF142745038.6842
aF141838864.5037
aF142484912.8527
aF142429415.7083
aF140342547.0241
aF141076749.0162
aF142623689.5105
aF142642316.9234
aF142220358.8813
aF141845899.432
aF142948547.123
aF143041645.9495
aF142131210.5407
aF141059844.9651
aF141126534.7036
aF144727131.4582
aF141008189.8415
aF141681759.831
aa(lp35
S'SWAY5_1225'
p36
aF123494731.3843
aF121061416.1402
aF137553216.8592
aF130027162.3949
aF117773319.516
aF131231329.3398
aF128749015.5182
aF125136806.5437
aF135638634.9044
aF121251298.104
aF130229345.0331
aF130609887.5842
aF129280530.131
aF128035491.7528
aF132917676.1671
aF134424078.2316
aF123514829.5122
aF125848178.0048
aF117848880.5363
aF119484979.7457
aa(lp37
S'SWAY5_5000'
p38
aF119458817.9317
aF130128712.474
aF141489346.2883
aF131448495.2869
aF139177090.6656
aF127805045.6315
aF134998213.7593
aF128405083.944
aF133707155.0925
aF130865783.9455
aF122082847.1379
aF121590204.0678
aF136959248.8396
aF116481025.4142
aF135724640.8536
aF126561976.9368
aF125699712.0762
aF116839508.4303
aF128779507.086
aF132606029.517
aa(lp39
S'NSGAIISC-5000_100'
p40
aF142533552.2589
aF141339835.6141
aF142049575.9726
aF143167615.0956
aF141955121.3609
aF142384047.041
aF140782881.9302
aF142398441.5951
aF142361485.7833
aF142184279.8075
aF143302827.1222
aF140368939.2671
aF139871107.7331
aF141641780.9009
aF140589602.765
aF143007138.9484
aF141197158.9835
aF143349276.9066
aF142894930.6994
aF142195185.7095
aa(lp41
S'SWAY5_2500'
p42
aF126045609.0637
aF125469292.4884
aF130089668.2037
aF120753434.2731
aF131670875.3792
aF133576141.1845
aF130934231.6742
aF124407579.7521
aF129398868.8762
aF123603258.7874
aF117562230.2631
aF137363045.222
aF132970830.6672
aF130213037.0753
aF122992719.2145
aF117014603.1851
aF130492206.4204
aF118524530.2728
aF129251275.2777
aF138964742.2696
aa(lp43
S'NSGAIISC-1225_100'
p44
aF142333393.8261
aF144045985.365
aF141779153.0333
aF142977476.5763
aF141519287.0865
aF141900107.1013
aF142894260.126
aF142026633.4078
aF141588418.0558
aF141898933.5579
aF143307084.3202
aF144456373.6292
aF143402166.79
aF141249393.4699
aF141450274.3052
aF141865996.7063
aF142852129.9959
aF142682372.6035
aF140705128.6736
aF142011588.832
aa(lp45
S'SWAY5_10000'
p46
aF129291284.0946
aF131058885.73
aF131809545.6532
aF130253151.8408
aF130366225.4223
aF127927326.7156
aF128789288.6603
aF132511784.083
aF140325280.7365
aF130264910.9988
aF131117110.5413
aF139601211.3262
aF130327790.3666
aF129904029.9837
aF127332005.1106
aF137263686.6652
aF132719200.7845
aF138803871.0797
aF131674822.9886
aF130868796.6672
aa(lp47
S'NSGAIISC-2500_100'
p48
aF142513057.7059
aF142236487.8289
aF143805515.1751
aF142305013.3486
aF143741026.6082
aF142872589.3573
aF141608567.8586
aF141764268.6964
aF141054728.3917
aF143276939.5129
aF142875811.2549
aF141263095.1366
aF141268900.903
aF143088240.6633
aF141158430.1263
aF142317827.8466
aF143133512.1393
aF141374459.6016
aF142972518.1725
aF143518906.37
aa(lp49
S'NSGAII_100'
p50
aF142894210.724
aF141755013.3585
aF141647100.6232
aF142432670.1373
aF141999674.0793
aF141045151.0209
aF140435586.2325
aF141222626.2783
aF141900078.152
aF141285925.5489
aF140923533.1116
aF143540677.8928
aF142698709.6725
aF142506273.805
aF142985953.6261
aF141351873.792
aF141801209.4812
aF143299254.5241
aF142485304.4346
aF142413260.8012
aa(lp51
S'SPEA2SC-2500_100'
p52
aF142397039.6892
aF143123861.2633
aF142204566.9802
aF142355470.1217
aF143125945.1477
aF143137131.891
aF142851275.2079
aF141781739.2091
aF143969677.4802
aF142913452.3469
aF141943904.2689
aF141919400.9972
aF142966204.368
aF141308198.2871
aF142904783.0146
aF140125665.5896
aF140503402.4404
aF142561657.3267
aF141459357.0252
aF143562008.3111
aa(lp53
S'SPEA2SC-10000_100'
p54
aF142402596.5159
aF143538778.4376
aF139789435.0969
aF142092311.1566
aF143046382.6956
aF142179230.517
aF142482900.0006
aF141476700.9476
aF143699277.0515
aF142086824.2241
aF144732997.722
aF142482003.6014
aF142155755.1576
aF141807616.8663
aF142360792.1264
aF139886974.2979
aF141607358.1675
aF143307986.1327
aF139859072.1331
aF142390652.0633
aass.