(dp0
S'SWAY5_2500'
p1
(iGraphics.simplified_new
SolutionHolder
p2
(dp3
S'problem'
p4
S'xomo_ground'
p5
sS'repeats'
p6
(lp7
(iGraphics.simplified_new
Scores
p8
(dp9
S'pfs'
p10
I29
sS'spread'
p11
F0.3490410491447704
sS'hv'
p12
F134400759.1361
sS'igd'
p13
Nsba(iGraphics.simplified_new
Scores
p14
(dp15
g10
I34
sg11
F0.596595501864501
sg12
F125650898.8256
sg13
Nsba(iGraphics.simplified_new
Scores
p16
(dp17
g10
I19
sg11
F0.676523342012995
sg12
F114359973.8156
sg13
Nsba(iGraphics.simplified_new
Scores
p18
(dp19
g10
I18
sg11
F0.42921235579181627
sg12
F128249375.4355
sg13
Nsba(iGraphics.simplified_new
Scores
p20
(dp21
g10
I39
sg11
F0.5191016884874072
sg12
F134130275.5532
sg13
Nsba(iGraphics.simplified_new
Scores
p22
(dp23
g10
I25
sg11
F0.4364486832725472
sg12
F118898336.1358
sg13
Nsba(iGraphics.simplified_new
Scores
p24
(dp25
g10
I29
sg11
F0.4866312458114731
sg12
F132806390.1129
sg13
Nsba(iGraphics.simplified_new
Scores
p26
(dp27
g10
I39
sg11
F0.5284748694545592
sg12
F126479867.0397
sg13
Nsba(iGraphics.simplified_new
Scores
p28
(dp29
g10
I29
sg11
F0.41602279924645685
sg12
F128949161.6514
sg13
Nsba(iGraphics.simplified_new
Scores
p30
(dp31
g10
I39
sg11
F0.45054838033513317
sg12
F133905611.0742
sg13
Nsba(iGraphics.simplified_new
Scores
p32
(dp33
g10
I22
sg11
F0.4367282122334479
sg12
F125847836.1179
sg13
Nsba(iGraphics.simplified_new
Scores
p34
(dp35
g10
I31
sg11
F0.4113917749954974
sg12
F135888060.0429
sg13
Nsba(iGraphics.simplified_new
Scores
p36
(dp37
g10
I29
sg11
F0.5899465449396845
sg12
F129073485.8837
sg13
Nsba(iGraphics.simplified_new
Scores
p38
(dp39
g10
I29
sg11
F0.5079930655437993
sg12
F137001734.8379
sg13
Nsba(iGraphics.simplified_new
Scores
p40
(dp41
g10
I39
sg11
F0.5210778343589347
sg12
F123384807.7295
sg13
Nsba(iGraphics.simplified_new
Scores
p42
(dp43
g10
I39
sg11
F0.4861685954057348
sg12
F127032997.0043
sg13
Nsba(iGraphics.simplified_new
Scores
p44
(dp45
g10
I29
sg11
F0.48673771838351
sg12
F126467844.4784
sg13
Nsba(iGraphics.simplified_new
Scores
p46
(dp47
g10
I39
sg11
F0.5270025502538632
sg12
F133627665.5849
sg13
Nsba(iGraphics.simplified_new
Scores
p48
(dp49
g10
I39
sg11
F0.4734284742414463
sg12
F128040680.1107
sg13
Nsba(iGraphics.simplified_new
Scores
p50
(dp51
g10
I39
sg11
F0.4640306395732591
sg12
F133197325.5686
sg13
NsbasS'algorithm'
p52
S'SWAY5'
p53
sbsS'SWAY5_10000'
p54
(iGraphics.simplified_new
SolutionHolder
p55
(dp56
g4
g5
sg6
(lp57
(iGraphics.simplified_new
Scores
p58
(dp59
g10
I78
sg11
F0.4519368819133234
sg12
F133116304.3435
sg13
Nsba(iGraphics.simplified_new
Scores
p60
(dp61
g10
I59
sg11
F0.42955230834288577
sg12
F138693966.4193
sg13
Nsba(iGraphics.simplified_new
Scores
p62
(dp63
g10
I77
sg11
F0.44502592348981074
sg12
F133672413.3682
sg13
Nsba(iGraphics.simplified_new
Scores
p64
(dp65
g10
I68
sg11
F0.414464355177773
sg12
F134387687.8446
sg13
Nsba(iGraphics.simplified_new
Scores
p66
(dp67
g10
I90
sg11
F0.39188728224912805
sg12
F135000494.4142
sg13
Nsba(iGraphics.simplified_new
Scores
p68
(dp69
g10
I87
sg11
F0.4867095734902622
sg12
F130334852.0978
sg13
Nsba(iGraphics.simplified_new
Scores
p70
(dp71
g10
I78
sg11
F0.45906746172629953
sg12
F136895427.7977
sg13
Nsba(iGraphics.simplified_new
Scores
p72
(dp73
g10
I88
sg11
F0.40575658525539315
sg12
F136545520.5576
sg13
Nsba(iGraphics.simplified_new
Scores
p74
(dp75
g10
I78
sg11
F0.5273111439468879
sg12
F139045797.4316
sg13
Nsba(iGraphics.simplified_new
Scores
p76
(dp77
g10
I44
sg11
F0.4886809285181392
sg12
F137416056.1522
sg13
Nsba(iGraphics.simplified_new
Scores
p78
(dp79
g10
I55
sg11
F0.5233413334361691
sg12
F130953862.9583
sg13
Nsba(iGraphics.simplified_new
Scores
p80
(dp81
g10
I78
sg11
F0.49371058781306904
sg12
F129812711.802
sg13
Nsba(iGraphics.simplified_new
Scores
p82
(dp83
g10
I64
sg11
F0.434601292624185
sg12
F140060944.9544
sg13
Nsba(iGraphics.simplified_new
Scores
p84
(dp85
g10
I73
sg11
F0.42432876139261644
sg12
F134652342.5811
sg13
Nsba(iGraphics.simplified_new
Scores
p86
(dp87
g10
I87
sg11
F0.4019824110562819
sg12
F135076575.3829
sg13
Nsba(iGraphics.simplified_new
Scores
p88
(dp89
g10
I73
sg11
F0.4890368161197533
sg12
F128911688.5526
sg13
Nsba(iGraphics.simplified_new
Scores
p90
(dp91
g10
I78
sg11
F0.4605998711012797
sg12
F137191645.2315
sg13
Nsba(iGraphics.simplified_new
Scores
p92
(dp93
g10
I55
sg11
F0.40652462425940966
sg12
F131429005.0807
sg13
Nsba(iGraphics.simplified_new
Scores
p94
(dp95
g10
I39
sg11
F0.46188664706777033
sg12
F131363607.4892
sg13
Nsba(iGraphics.simplified_new
Scores
p96
(dp97
g10
I64
sg11
F0.42106019480974305
sg12
F139006254.7682
sg13
Nsbasg52
S'SWAY5'
p98
sbsS'SWAY5_1225'
p99
(iGraphics.simplified_new
SolutionHolder
p100
(dp101
g4
g5
sg6
(lp102
(iGraphics.simplified_new
Scores
p103
(dp104
g10
I22
sg11
F0.534260432783163
sg12
F132466309.0286
sg13
Nsba(iGraphics.simplified_new
Scores
p105
(dp106
g10
I19
sg11
F0.5244946529846729
sg12
F129296903.1985
sg13
Nsba(iGraphics.simplified_new
Scores
p107
(dp108
g10
I27
sg11
F0.5668980860019119
sg12
F126106592.7371
sg13
Nsba(iGraphics.simplified_new
Scores
p109
(dp110
g10
I29
sg11
F0.4958950162671122
sg12
F131108714.5178
sg13
Nsba(iGraphics.simplified_new
Scores
p111
(dp112
g10
I21
sg11
F0.5549982098849915
sg12
F116980405.9347
sg13
Nsba(iGraphics.simplified_new
Scores
p113
(dp114
g10
I19
sg11
F0.6171892145502047
sg12
F115037106.2133
sg13
Nsba(iGraphics.simplified_new
Scores
p115
(dp116
g10
I27
sg11
F0.5126231901392698
sg12
F136002880.1156
sg13
Nsba(iGraphics.simplified_new
Scores
p117
(dp118
g10
I18
sg11
F0.5892418813121345
sg12
F120461016.1895
sg13
Nsba(iGraphics.simplified_new
Scores
p119
(dp120
g10
I22
sg11
F0.37841422959668014
sg12
F134617770.0592
sg13
Nsba(iGraphics.simplified_new
Scores
p121
(dp122
g10
I34
sg11
F0.33416749969297077
sg12
F136149406.5084
sg13
Nsba(iGraphics.simplified_new
Scores
p123
(dp124
g10
I30
sg11
F0.5764518025136689
sg12
F120894887.6975
sg13
Nsba(iGraphics.simplified_new
Scores
p125
(dp126
g10
I19
sg11
F0.6443361261684528
sg12
F118521441.9401
sg13
Nsba(iGraphics.simplified_new
Scores
p127
(dp128
g10
I18
sg11
F0.509173447653135
sg12
F117621942.7705
sg13
Nsba(iGraphics.simplified_new
Scores
p129
(dp130
g10
I19
sg11
F0.48761844994308146
sg12
F108949884.2761
sg13
Nsba(iGraphics.simplified_new
Scores
p131
(dp132
g10
I19
sg11
F0.5342248067565301
sg12
F129976573.4827
sg13
Nsba(iGraphics.simplified_new
Scores
p133
(dp134
g10
I34
sg11
F0.47229840149982777
sg12
F130422918.8202
sg13
Nsba(iGraphics.simplified_new
Scores
p135
(dp136
g10
I29
sg11
F0.47482400243653006
sg12
F125146129.3641
sg13
Nsba(iGraphics.simplified_new
Scores
p137
(dp138
g10
I33
sg11
F0.48684951866157217
sg12
F132685375.284
sg13
Nsba(iGraphics.simplified_new
Scores
p139
(dp140
g10
I28
sg11
F0.43014894417411803
sg12
F128584730.3874
sg13
Nsba(iGraphics.simplified_new
Scores
p141
(dp142
g10
I29
sg11
F0.44367948432865106
sg12
F123388913.2955
sg13
Nsbasg52
S'SWAY5'
p143
sbsS'SWAY5_5000'
p144
(iGraphics.simplified_new
SolutionHolder
p145
(dp146
g4
g5
sg6
(lp147
(iGraphics.simplified_new
Scores
p148
(dp149
g10
I19
sg11
F0.4894735231251445
sg12
F130418006.6892
sg13
Nsba(iGraphics.simplified_new
Scores
p150
(dp151
g10
I59
sg11
F0.4466758192701595
sg12
F137416846.7084
sg13
Nsba(iGraphics.simplified_new
Scores
p152
(dp153
g10
I68
sg11
F0.49734228617340315
sg12
F126881426.1981
sg13
Nsba(iGraphics.simplified_new
Scores
p154
(dp155
g10
I39
sg11
F0.46507230543342165
sg12
F134971463.7375
sg13
Nsba(iGraphics.simplified_new
Scores
p156
(dp157
g10
I58
sg11
F0.46286774531586167
sg12
F140653165.0406
sg13
Nsba(iGraphics.simplified_new
Scores
p158
(dp159
g10
I39
sg11
F0.4777839612793591
sg12
F134846038.8803
sg13
Nsba(iGraphics.simplified_new
Scores
p160
(dp161
g10
I68
sg11
F0.5098819434637077
sg12
F134422945.7959
sg13
Nsba(iGraphics.simplified_new
Scores
p162
(dp163
g10
I39
sg11
F0.39998400334635714
sg12
F132922994.6701
sg13
Nsba(iGraphics.simplified_new
Scores
p164
(dp165
g10
I19
sg11
F0.4516439477847619
sg12
F137490555.9025
sg13
Nsba(iGraphics.simplified_new
Scores
p166
(dp167
g10
I57
sg11
F0.4578470808782353
sg12
F125540190.315
sg13
Nsba(iGraphics.simplified_new
Scores
p168
(dp169
g10
I34
sg11
F0.39820947966212267
sg12
F129648683.1984
sg13
Nsba(iGraphics.simplified_new
Scores
p170
(dp171
g10
I34
sg11
F0.4841453150443368
sg12
F127788106.949
sg13
Nsba(iGraphics.simplified_new
Scores
p172
(dp173
g10
I59
sg11
F0.49739178505762505
sg12
F131333343.1924
sg13
Nsba(iGraphics.simplified_new
Scores
p174
(dp175
g10
I39
sg11
F0.4051302660252526
sg12
F125944838.3611
sg13
Nsba(iGraphics.simplified_new
Scores
p176
(dp177
g10
I39
sg11
F0.3797961528491292
sg12
F135509299.8576
sg13
Nsba(iGraphics.simplified_new
Scores
p178
(dp179
g10
I34
sg11
F0.4661722610090359
sg12
F131173668.8894
sg13
Nsba(iGraphics.simplified_new
Scores
p180
(dp181
g10
I57
sg11
F0.41630773200554444
sg12
F131413034.9767
sg13
Nsba(iGraphics.simplified_new
Scores
p182
(dp183
g10
I27
sg11
F0.4199072754848542
sg12
F128031958.5591
sg13
Nsba(iGraphics.simplified_new
Scores
p184
(dp185
g10
I58
sg11
F0.5628250656587243
sg12
F136687913.2866
sg13
Nsba(iGraphics.simplified_new
Scores
p186
(dp187
g10
I37
sg11
F0.40597014052235003
sg12
F129035220.2316
sg13
Nsbasg52
S'SWAY5'
p188
sbs.