(dp0
S'xomo_all'
p1
(dp2
S'Spread'
p3
(lp4
(lp5
S'NSGAII_100'
p6
aF0.751468532071587
aF0.6918754010399544
aF0.7549440753911283
aF0.7231858351199686
aF0.6392535072391956
aF0.746822192842408
aF0.6783010351818394
aF0.8061957258552486
aF0.6567304542779326
aF0.738645894854982
aF0.7889896447369322
aF0.7174445122557884
aF0.7402001321715714
aF0.696160205817752
aF0.6777960807711392
aF0.7414170088293371
aF0.7218823926456579
aF0.7545528864025277
aF0.6902479954452471
aF0.6930362292274145
aF0.7336878118016393
aF0.7274427194014541
aF0.6825073375653044
aF0.6404739957686963
aF0.7020193463174887
aF0.7377505084980926
aF0.7301012160555013
aF0.7508130969764826
aF0.7830400937172617
aF0.6228104896968373
aF0.6954849630150285
aF0.6677229213808753
aF0.6742519801710948
aF0.6964421200173266
aF0.7075652986932754
aF0.655755941995707
aF0.6730459800783831
aF0.6593696023613935
aF0.690483814503355
aF0.7154566126261866
aF0.75881894602238
aF0.6912189515583979
aF0.8064819188771287
aF0.6782765165553802
aF0.8150543376945787
aF0.6830177454095233
aF0.7711443268430266
aF0.7082441744888358
aF0.7434863047163773
aF0.7414194784076686
aF0.6526086220658011
aF0.6961219838110957
aF0.6803904447849605
aF0.7227529532108248
aF0.7919438311146305
aF0.6676267728035777
aF0.7166198079278652
aF0.7775637585818422
aF0.7401173858312455
aF0.6526985577129107
aF0.8252016703379486
aF0.7001597584309919
aF0.6321819114461008
aF0.7467262294792997
aF0.6475586701533687
aF0.7185065068614306
aF0.7209648227180444
aF0.7460399688277688
aF0.7064204097781184
aF0.6924401158935806
aF0.6475230217308782
aF0.7120125908080975
aF0.7170368085431743
aF0.6736221419401495
aF0.7046260725849417
aF0.6437066810278577
aF0.662922892299774
aF0.6207390336170768
aF0.6547014284538731
aF0.6857497917050289
aF0.6893492864881272
aF0.680585096223556
aF0.6943657941557787
aF0.7155517681396619
aa(lp7
S'SPEA2_100'
p8
aF0.6979209072685767
aF0.6555472195258194
aF0.6392803340527128
aF0.6759465026605428
aF0.723467692349686
aF0.695301122854615
aF0.7225992782141857
aF0.6933364533196354
aF0.6767899472201904
aF0.6327399779011232
aF0.689168062118362
aF0.7959227267317185
aF0.7086190878703573
aF0.7096921783446238
aF0.7443290163768733
aF0.6724133002041187
aF0.7444616991881464
aF0.7293548574936788
aF0.7022073281820903
aF0.7581669239461575
aF0.7100971122355799
aF0.7242389760891805
aF0.7174790853600718
aF0.7115368854785882
aF0.6978750124392056
aF0.691068851931334
aF0.686265515137233
aF0.690946281523176
aF0.6746676913170006
aF0.6395366472648096
aF0.6619055034874034
aF0.7271699830464243
aF0.7272895612159294
aF0.7601848325398299
aF0.6205969981728696
aF0.7045683632068981
aF0.7204590031408568
aF0.6556790981478154
aF0.6736824454854028
aF0.65027288549437
aF0.7132254157925411
aF0.6847153368066011
aF0.7128765279357723
aF0.6803025434957696
aF0.7387132962602955
aF0.6189619323940709
aF0.6992439323634755
aF0.63542752341844
aF0.6369013385479727
aF0.7130375628850695
aF0.7123984248272667
aF0.7581970585641381
aF0.7066033043109866
aF0.7631796283102341
aF0.7015581779250516
aF0.7126616286563386
aF0.697572107977902
aF0.6421112309607759
aF0.7497351834017353
aF0.7330984102366866
aF0.6894514381040724
aF0.715728431658914
aF0.6800687485374313
aF0.7067052902854508
aF0.7124051311305939
aF0.7224442379820283
aF0.7323622268446836
aF0.6883984172476436
aF0.6779684885009388
aF0.6731392538377742
aF0.7450339994425799
aF0.7260918130111551
aF0.6535805565491485
aF0.619646749149293
aF0.7082612791280101
aF0.7580320293316857
aF0.7419455281345237
aF0.7334172443787823
aF0.6907919227303466
aF0.6172967732074262
aF0.648248518937051
aF0.7067013981775818
aF0.7012222311323503
aF0.6113807838062081
aa(lp9
S'SWAY5_10000'
p10
aF0.5415430473845103
aF0.5188212099683506
aF0.507361457871491
aF0.4082719635006894
aF0.5486246193424611
aF0.46118649420910657
aF0.4671058451013837
aF0.42922424894520583
aF0.5288896667332992
aF0.4126091405275014
aF0.44971240124135986
aF0.4356913218560227
aF0.5550997656508376
aF0.43618092646568346
aF0.46610816441077896
aF0.48395060218057895
aF0.5316075804699294
aF0.40751759807865745
aF0.44001964960839646
aF0.44112278775525304
aF0.38877171740072336
aF0.47449356639883944
aF0.46410520795247284
aF0.41268315238376524
aF0.39589559226254345
aF0.4549310113766902
aF0.3603765335357766
aF0.4494966496289496
aF0.48258513955059035
aF0.5039061538079163
aF0.5152079820694354
aF0.4754721311471366
aF0.43590422450190003
aF0.44968326601905534
aF0.43543872241980813
aF0.3522564904544994
aF0.46061927290826005
aF0.5109584146230552
aF0.4525687496463663
aF0.5285428079898494
aF0.3728152475485717
aF0.4338417864598434
aF0.47533921207028956
aF0.40694850131543686
aF0.5278075416065107
aF0.449652042607509
aF0.469724518220135
aF0.4260845734985839
aF0.47478367760509205
aF0.46513937592006754
aF0.5221777804860933
aF0.4540545423768352
aF0.4403184261810614
aF0.43059341813474655
aF0.46556556847813585
aF0.43521742154853665
aF0.46577270654290787
aF0.43517533682495657
aF0.46440487060836255
aF0.427086946328843
aF0.4508545325455912
aF0.5047342236032443
aF0.5407368387167859
aF0.5326480432672326
aF0.48142930783914156
aF0.44569894498354223
aF0.5166927777348852
aF0.53019172466251
aF0.5019849355254435
aF0.49111061738980516
aF0.44591857251581546
aF0.5004160972090209
aF0.43078685580457476
aF0.44268883252194735
aF0.4529111832681946
aF0.4550214442997922
aF0.42023108394169034
aF0.5078682869354133
aF0.483665144369273
aF0.4137644995063586
aF0.45468365049800336
aF0.515430603712903
aF0.48485801376664434
aF0.599633264071343
aasS'HV'
p11
(lp12
(lp13
S'NSGAII_100'
p14
aF143014535.7308
aF142719154.4989
aF142662480.7088
aF141002966.1361
aF143111297.0407
aF142399926.6585
aF139242535.8575
aF139653162.3
aF141746449.5336
aF142533109.7937
aF143911631.0314
aF143889473.2941
aF141117333.3318
aF143081127.7727
aF142559949.7202
aF142586284.6582
aF141718554.3243
aF140791861.7256
aF142128635.5695
aF141086145.6724
aF142199604.1175
aF141844980.2863
aF144713666.1944
aF141166881.982
aF144260054.0494
aF143583763.1268
aF142041172.2316
aF142373879.7278
aF143417108.9683
aF142081787.7293
aF143164764.2261
aF141704064.4633
aF142535473.1584
aF141070573.4319
aF140455364.2303
aF142838354.3483
aF142630403.1763
aF142298337.9699
aF142505405.2099
aF139499501.7254
aF142652747.2282
aF143936163.897
aF142881746.0315
aF144160951.6579
aF140565051.0418
aF142969504.9081
aF142160657.536
aF142311481.2417
aF142648765.4723
aF140487835.8997
aF139802036.8333
aF145134269.9161
aF143807633.2611
aF142449181.9864
aF143085831.3192
aF141450973.8036
aF142010180.8425
aF141287368.0786
aF139756085.4637
aF139502303.9997
aF142764933.9964
aF143759647.7196
aF140462336.2344
aF140343884.4841
aF141732899.9201
aF141060555.3414
aF143796445.6844
aF143285941.0909
aF143303928.9464
aF140869065.7704
aF141848661.6408
aF140222332.3452
aF142276507.9966
aF144417486.227
aF141875673.6468
aF142144165.4529
aF142467272.1952
aF142632516.124
aF142339639.3283
aF142275577.3927
aF140833441.2555
aF142082842.1203
aF141569974.2736
aF142158118.4889
aa(lp15
S'SPEA2_100'
p16
aF140934637.1588
aF143606003.7738
aF139799524.7709
aF142351447.7935
aF143055714.5917
aF143014901.9513
aF142541315.9746
aF141149378.6784
aF142394692.4459
aF141410216.6116
aF141829259.5265
aF142581056.832
aF141913943.191
aF143804203.911
aF143083666.7537
aF141121813.2653
aF141912462.359
aF142774678.6687
aF142541479.8476
aF142287853.4176
aF142550073.0958
aF141720930.11
aF142760752.7094
aF143097052.4869
aF140025391.8634
aF142703119.9585
aF140983039.4974
aF143787963.2036
aF142455163.8802
aF143891685.389
aF141184309.6708
aF143143492.6249
aF142281381.5767
aF141709036.5607
aF141085547.3193
aF144426267.5933
aF143131940.8399
aF141895323.8065
aF142091165.3475
aF141874732.2449
aF141969699.5524
aF142328275.2029
aF142713836.7843
aF140639478.0028
aF142882014.1462
aF143718125.6432
aF142588995.7149
aF142799331.9543
aF142651964.6406
aF142848769.8244
aF140750289.2803
aF144554253.8478
aF141192957.767
aF142177508.6033
aF142840431.7046
aF142576877.7497
aF140952769.9146
aF142080570.2181
aF142443256.0167
aF141114217.5089
aF144258358.9722
aF143088132.6919
aF142633511.7954
aF143545035.6309
aF141893727.9797
aF143314285.5956
aF141216690.2937
aF143622981.3015
aF144455955.9511
aF141159031.3334
aF142807878.2551
aF141255461.5896
aF142195132.6664
aF145344264.7628
aF142297347.6628
aF143545209.4044
aF140545226.4034
aF143727983.1717
aF140950140.666
aF142652479.3426
aF142722104.2129
aF142591506.0407
aF142921377.4421
aF142618882.2852
aa(lp17
S'SWAY5_10000'
p18
aF135606611.9559
aF133922060.6559
aF137883896.4505
aF130069928.8197
aF124673103.7296
aF127445510.4698
aF135352130.1414
aF135176279.3604
aF127609017.0519
aF133927096.6754
aF132019882.0532
aF132257377.5367
aF130640960.8096
aF136842974.959
aF135414373.0919
aF137729065.1425
aF125891989.1136
aF133614160.908
aF131976141.1567
aF138326652.81
aF131995748.7067
aF136008486.871
aF140158080.2275
aF139154291.6233
aF131439593.9467
aF131831797.9959
aF131692702.8177
aF132294246.7367
aF131319422.97
aF137981477.8995
aF133928226.9858
aF131064684.5859
aF129183124.3813
aF141082859.4033
aF136895574.1527
aF133134255.67
aF124945101.0414
aF134246959.2762
aF127186061.6996
aF117593809.6218
aF131702103.2196
aF132881326.0357
aF131261728.653
aF137502416.3645
aF130767549.7355
aF137065367.9715
aF131848137.8126
aF131665154.168
aF134641897.2315
aF134749585.6935
aF133265048.1814
aF139111209.1731
aF134131877.2827
aF133420543.7216
aF133458230.9648
aF140664855.4076
aF127937925.0934
aF130368289.3661
aF132685321.0014
aF136532325.9704
aF135017507.9387
aF130464984.0128
aF123867051.2477
aF135545033.0658
aF134490884.9789
aF136056317.9641
aF134590583.7977
aF135551052.4188
aF124042841.9872
aF133013977.0361
aF135761540.4149
aF127826215.3527
aF133246547.6402
aF134458302.4605
aF135886355.7839
aF132008951.8318
aF124110594.5276
aF136280183.5267
aF126067511.4275
aF135612109.1318
aF128268927.2077
aF127404203.5385
aF129019287.1949
aF125165956.8394
aass.