(dp0
S'xomoo2'
p1
(dp2
S'Spread'
p3
(lp4
(lp5
S'SPEA2_100'
p6
aF0.6931379410851178
aF0.607712419416813
aF0.6771544124282998
aF0.6494910644663756
aF0.7348148499086545
aF0.6667339340839804
aF0.7132622895147757
aF0.7036282434559186
aF0.6562063295720502
aF0.7547082643810004
aF0.6636510816049191
aF0.6907858485843529
aF0.7058940251563737
aF0.7026328605475699
aF0.686156138282394
aF0.7349581629865422
aF0.7257758622784277
aF0.6822960318004194
aF0.6640677804619813
aF0.7223771398898742
aa(lp7
S'SWAY5_1225'
p8
aF0.4626634166715393
aF0.44591928531872177
aF0.45457538580996126
aF0.4590715296971989
aF0.5376075014760117
aF0.4928309532094982
aF0.4322074446575793
aF0.5580052434500189
aF0.46654101200052467
aF0.49059950646118716
aF0.42981003573790066
aF0.5175593251851295
aF0.5277076568129812
aF0.4221459070005849
aF0.5563330357194768
aF0.5161382057455249
aF0.5605671737073931
aF0.5564607174757208
aF0.501201434518759
aF0.6799543690221972
aa(lp9
S'SWAY5_5000'
p10
aF0.43945971449091387
aF0.46266190609471175
aF0.48537815579183463
aF0.4942681257679302
aF0.3722811967789776
aF0.5677283797088422
aF0.44333664093374675
aF0.5070475833482282
aF0.47182110999743115
aF0.5387443854209835
aF0.43394030225857677
aF0.48713429184800894
aF0.4923330518472449
aF0.5771258240268289
aF0.4208960351765989
aF0.4249479672420064
aF0.46619105905328656
aF0.47018792165109685
aF0.5097882411488135
aF0.5926843974249925
aa(lp11
S'SWAY5_2500'
p12
aF0.5481920910121806
aF0.49165134302259944
aF0.4709233098763242
aF0.4411416370112717
aF0.4535321519021697
aF0.46401391776237494
aF0.3588898757261688
aF0.5861974918337637
aF0.37601471008741466
aF0.4229968700731856
aF0.4275130044686399
aF0.3994236846069526
aF0.450378691533783
aF0.6488340149147153
aF0.5343129345526171
aF0.49078130439327305
aF0.48370801193646007
aF0.41163006973598015
aF0.5039429236837455
aF0.45467034970534936
aa(lp13
S'SWAY5_10000'
p14
aF0.45191663233909135
aF0.46995684553148925
aF0.43746997968353635
aF0.48167764520402984
aF0.4334137671628745
aF0.5138291812383085
aF0.4242722558533355
aF0.4949902171453165
aF0.47860465017751097
aF0.4265073772621038
aF0.39043350602760446
aF0.5869328277257857
aF0.45321321918266955
aF0.4504292992363596
aF0.4689537264373139
aF0.5052483139753573
aF0.5422871529035173
aF0.4511736652432748
aF0.4119363222798891
aF0.4521860661168408
aa(lp15
S'NSGAII_100'
p16
aF0.6749451614735522
aF0.6444630245677807
aF0.7143604300919135
aF0.7418389939632727
aF0.8004314021847231
aF0.6438822435625828
aF0.6996829834160094
aF0.8990255467346572
aF0.6710493433044329
aF0.6540611583518443
aF0.762679954064959
aF0.6976656851642783
aF0.7514267755630181
aF0.7049583794324843
aF0.7626032660532464
aF0.7467311454227366
aF0.6447358859868304
aF0.7441777314011332
aF0.7155773476929946
aF0.8084236649967151
aasS'HV'
p17
(lp18
(lp19
S'SPEA2_100'
p20
aF143223937.6433
aF143481550.7917
aF143791002.6128
aF144985911.6705
aF144481260.5974
aF143581374.1402
aF145101899.74
aF143938342.0053
aF144533047.8224
aF145365253.1407
aF142864505.2098
aF142112839.7507
aF141545106.5252
aF142820555.1747
aF142997213.8977
aF143688587.661
aF144811005.2556
aF145368359.3836
aF144179663.2279
aF142527444.3899
aa(lp21
S'SWAY5_1225'
p22
aF124680513.8249
aF122217354.7679
aF138883113.5185
aF131277582.0352
aF118898853.5393
aF132494127.4835
aF129986074.5103
aF126334404.587
aF136948498.2128
aF122413538.1407
aF131481634.2064
aF131870351.0008
aF130523761.8131
aF129265512.5648
aF134198235.1218
aF135722595.2367
aF124695254.2875
aF127056868.8112
aF118970386.5397
aF120624836.1272
aa(lp23
S'SWAY5_5000'
p24
aF120601279.6939
aF131379938.6402
aF142860959.5543
aF132713716.6081
aF140524024.484
aF129031030.8067
aF136300955.2226
aF129642250.7197
aF134996652.6771
aF132124342.1078
aF123250222.8911
aF122752630.6927
aF138282517.9416
aF117592367.2477
aF137035382.9169
aF127775700.7987
aF126904239.5032
aF117953486.2191
aF130018730.1575
aF133885434.5673
aa(lp25
S'SWAY5_2500'
p26
aF127253339.7776
aF126671506.8134
aF131341020.5225
aF121905572.8563
aF132939251.4441
aF134864067.405
aF132193963.9866
aF125597566.1897
aF130641803.0008
aF124788976.9504
aF118685345.6991
aF138691026.191
aF134252625.6101
aF131465444.7246
aF124170110.8002
aF118126712.861
aF131747318.2386
aF119658028.8079
aF130493814.2286
aF140309683.2086
aa(lp27
S'SWAY5_10000'
p28
aF130532764.3589
aF132319380.2866
aF133078312.5328
aF131505596.0096
aF131619209.2525
aF129154993.6844
aF130025967.2677
aF133787624.026
aF141684526.7221
aF131517079.0995
aF132378171.7871
aF140952720.3801
aF131580918.0894
aF131153093.1589
aF128553914.7311
aF138590553.6835
aF133998541.9887
aF140147271.0523
aF132942270.8615
aF132127138.4196
aa(lp29
S'NSGAII_100'
p30
aF144280753.9602
aF143129407.9506
aF143020394.2533
aF143814337.2972
aF143376701.2706
aF142411993.0215
aF141795967.37
aF142591331.4334
aF143276070.4154
aF142655356.0494
aF142289066.4124
aF144934133.969
aF144083194.7348
aF143888734.4947
aF144373491.6324
aF142721996.4859
aF143176150.1206
aF144690135.9263
aF143867496.4086
aF143794730.4648
aass.