(dp0
S'xomo_ground'
p1
(dp2
S'Spread'
p3
(lp4
(lp5
S'NSGAII_100'
p6
aF0.748346995466837
aF0.7657303225523009
aF0.6535265331455453
aF0.6585593687665032
aF0.6428017425687133
aF0.7614053640409866
aF0.6469214582385668
aF0.7352039011305798
aF0.6316487554918918
aF0.7797183139446711
aF0.7202685929823445
aF0.6512140535093315
aF0.7334505513195374
aF0.6329771834199758
aF0.6741860826075536
aF0.7202225241570326
aF0.8128826997247851
aF0.6199079700275539
aF0.6985501442980544
aF0.7222938072193661
aF0.7017360619918277
aF0.7093007831415427
aF0.7471300166363183
aF0.6767504863542275
aF0.7425602160205587
aF0.7952444559976267
aF0.8104942638441394
aF0.7241483712709589
aF0.6727163444664671
aF0.7797548100197074
aF0.6989174618619949
aF0.7181028073840687
aF0.6561724856707383
aF0.7019327166685156
aF0.7539419523928556
aF0.6994666260114626
aF0.7679251600682587
aF0.7636189694785351
aF0.7129272097904373
aF0.7001635829072127
aF0.6129446474022113
aF0.7120198908977349
aF0.7041911735715815
aF0.7435965885519816
aF0.8083194972208938
aF0.6659409707179992
aF0.6680019465379022
aF0.8363512889684198
aF0.651294054632245
aF0.7215271568039007
aF0.7277470339879543
aF0.6543175533700596
aF0.666284316496573
aF0.5591306178029115
aF0.709089447967966
aF0.7297038585715148
aF0.7712776015352308
aF0.6995069185165989
aF0.7454041587648507
aF0.6827904584061313
aF0.6743699771313201
aF0.7397488998656322
aF0.6722023732108376
aF0.668697898285864
aF0.701886330149344
aF0.7837303211475343
aF0.6854020636620033
aF0.7215237426216745
aF0.6853338307939966
aF0.752360478694243
aF0.781060062348478
aF0.6571494555872296
aF0.7679614437015945
aF0.6756939032955677
aF0.6691373550836143
aF0.6741922487171338
aF0.7929749947914951
aF0.6230846838012052
aF0.648810973223659
aF0.7861435733379112
aF0.7214327060465108
aF0.7554958133201235
aF0.76632583874369
aF0.698533997415331
aa(lp7
S'SPEA2_100'
p8
aF0.6661678426168499
aF0.6911622104296198
aF0.6943613660246681
aF0.675954809865301
aF0.7205300660357212
aF0.6375471579315644
aF0.6387922696982357
aF0.6705257683446981
aF0.7006023749356689
aF0.7410652438892401
aF0.7056048209475995
aF0.7012930269930453
aF0.692748754912585
aF0.6333251435250576
aF0.672907486167855
aF0.7332038525333365
aF0.6546522901546452
aF0.7063679803852532
aF0.6991879237122017
aF0.7303378497021307
aF0.7144190556288315
aF0.7325454313447155
aF0.7905926367711287
aF0.7394021912590278
aF0.6984975144037643
aF0.7043392775595586
aF0.7104689177373593
aF0.7212180112462072
aF0.6887710755080303
aF0.5776975121480463
aF0.6700059588352243
aF0.7600791174659125
aF0.7070390071261273
aF0.6478413659082217
aF0.662971153025865
aF0.6465262203958241
aF0.7082651529277362
aF0.7108016097208006
aF0.70868966988194
aF0.6784270272830494
aF0.7089458467889016
aF0.6762498706623227
aF0.7178579945923783
aF0.7499311845626548
aF0.7090265219439258
aF0.6571546670541518
aF0.7474380902187725
aF0.6621497480909158
aF0.6562368488470899
aF0.7435309226737348
aF0.6687736239311513
aF0.7335248360623937
aF0.7090261346340424
aF0.6267043992569536
aF0.6512951352406936
aF0.6622314701721902
aF0.6458388285061963
aF0.6860180542857657
aF0.5999898403495157
aF0.6348081483088452
aF0.736668199464151
aF0.6382902120277852
aF0.7389857176006012
aF0.66534231879814
aF0.7703276084330349
aF0.6896390666149758
aF0.6837679191349444
aF0.6826827765652165
aF0.6762670949402437
aF0.747337838696895
aF0.7626265745127978
aF0.7349566401782474
aF0.7309249734362965
aF0.6894666175858868
aF0.7767373683048406
aF0.7407350309293544
aF0.6942099132802594
aF0.7329595412300979
aF0.697998525241279
aF0.7653987823468268
aF0.7014853704222946
aF0.6692085008788836
aF0.7049629866936542
aF0.6658595795111387
aa(lp9
S'SWAY5_10000'
p10
aF0.5600465970067229
aF0.501780380220901
aF0.47270226469818266
aF0.5756782378521234
aF0.5236451132584332
aF0.45573618719835957
aF0.45750001333873364
aF0.5081193898177546
aF0.4538485969316851
aF0.3873110664508997
aF0.43357485516211325
aF0.3966268903396809
aF0.48873887109265823
aF0.42651236240999374
aF0.487315592447012
aF0.42577947858194864
aF0.44445662852045825
aF0.4655589260740366
aF0.46181614590819686
aF0.3954068437376551
aF0.4048513218383462
aF0.49378762591326486
aF0.4405914072614874
aF0.4296772794986147
aF0.47947544096828487
aF0.43431488539757407
aF0.48387258042628056
aF0.45282148693253405
aF0.4774798708425125
aF0.4766392311357342
aF0.46553451060969
aF0.46828359107101986
aF0.4771204182640463
aF0.4737001239981517
aF0.4236301729010321
aF0.5050128202809597
aF0.46900101344994843
aF0.4858953529144334
aF0.4116758542980628
aF0.4161626672257209
aF0.39780741302779027
aF0.4479730783899895
aF0.359568075330957
aF0.4278034409077134
aF0.4957591836998423
aF0.4607071781496459
aF0.43312038534685354
aF0.4649753325538682
aF0.41510313159514745
aF0.428174130395762
aF0.5676010979000737
aF0.4436426579795403
aF0.48415830174496305
aF0.4548078780522084
aF0.4452599750062866
aF0.5028066837449556
aF0.4190878189871153
aF0.5356537519988223
aF0.4194539152981668
aF0.4642464431782311
aF0.4912836447248169
aF0.5248337695226591
aF0.45113253042180196
aF0.45120929421472505
aF0.42954556073263017
aF0.37406391688614254
aF0.5494278312659966
aF0.37950655727602045
aF0.5283381368522211
aF0.5082996400598638
aF0.4746620373862247
aF0.45283362217906237
aF0.4205916141804231
aF0.4263295132210101
aF0.4496336916722753
aF0.4011113891864816
aF0.49010622215224703
aF0.45279390558916555
aF0.4456518639137774
aF0.5039084324410358
aF0.454631962171919
aF0.45556169565766924
aF0.4883812487554666
aF0.5617040719250838
aasS'HV'
p11
(lp12
(lp13
S'NSGAII_100'
p14
aF142878864.6277
aF142666169.3631
aF139749439.0346
aF143219418.0225
aF141152939.906
aF141082562.5211
aF143503868.847
aF143279838.5164
aF142920156.5204
aF140639349.3959
aF141891298.6672
aF142066707.9538
aF142826345.3846
aF142995330.1292
aF142415640.5692
aF142859624.1511
aF142035760.1844
aF143685900.8995
aF142685178.9012
aF142859239.0046
aF144045672.2245
aF142101618.0137
aF142631097.441
aF142698016.5802
aF144032653.201
aF142460242.5659
aF141239632.3793
aF140955182.647
aF141499869.9925
aF141087632.1119
aF140856438.3243
aF142435820.5987
aF143215930.7555
aF142345256.0028
aF141045405.5822
aF143733016.1134
aF143103249.1243
aF144359222.8964
aF140975251.4022
aF144047719.0999
aF140803230.0397
aF139941281.4185
aF143179299.9659
aF142198366.5442
aF140632686.5907
aF142960801.6584
aF142772068.1422
aF141868949.6346
aF143242930.5731
aF142144913.66
aF143974163.0277
aF143374189.911
aF142818689.2715
aF143082714.3666
aF141565848.8164
aF142053747.8134
aF142251922.2079
aF140855998.6452
aF141548331.5878
aF142506197.3724
aF141711405.9113
aF142380176.7422
aF144748329.0534
aF142956941.6085
aF141883596.5171
aF140863911.5802
aF143855882.9766
aF142576042.3745
aF141840437.3134
aF142992951.5301
aF142645474.4855
aF141153297.2006
aF141968645.0706
aF141618610.803
aF142636813.9428
aF142932895.766
aF141072348.3796
aF141893231.7381
aF142152865.3677
aF140994035.6904
aF142625338.6484
aF142824055.5939
aF143208855.6521
aF143599535.987
aa(lp15
S'SPEA2_100'
p16
aF141925731.3712
aF144151303.8126
aF142070740.7297
aF143228474.7163
aF142709931.4812
aF141728881.3777
aF142779889.7778
aF141639378.597
aF143373748.8961
aF141825844.2635
aF143421025.2895
aF142575278.498
aF143392192.245
aF143682234.6008
aF141495792.1473
aF143159052.2174
aF141106113.865
aF141955353.2941
aF143352370.074
aF142141653.7284
aF140989172.9183
aF142601749.7729
aF140974811.2
aF142656516.541
aF141143761.266
aF142704695.5412
aF142108340.2521
aF143158427.8515
aF140905878.1196
aF140272893.072
aF143174408.7706
aF144436478.7032
aF141284939.7025
aF141707012.066
aF144009158.9439
aF144524299.1706
aF142897617.3059
aF143522860.3421
aF142734790.0186
aF141762313.6157
aF144499304.0628
aF143912744.4614
aF144342494.8387
aF143405437.1976
aF143487179.3045
aF141626621.9014
aF142471153.9648
aF142186505.686
aF144949341.286
aF142408695.7328
aF143537165.2883
aF142373149.7767
aF142337077.1719
aF141619593.3083
aF142525631.1228
aF142350409.6983
aF141702936.295
aF141209163.1522
aF142884990.7816
aF143342639.2424
aF142564044.5842
aF144563062.827
aF143996597.2579
aF142125133.182
aF142420373.9673
aF142731526.9968
aF143207777.6137
aF143915068.0552
aF141343133.7594
aF143065115.0232
aF141124779.2174
aF142798145.3107
aF142770468.8195
aF141904875.7056
aF143743761.8353
aF141793399.7914
aF141550978.6026
aF142872289.1171
aF143458433.5551
aF141788636.4099
aF143379342.5556
aF142946662.5935
aF143521605.2797
aF143426962.5376
aa(lp17
S'SWAY5_10000'
p18
aF132766364.0997
aF127803483.2642
aF135056643.5847
aF131373710.1195
aF121432517.7563
aF132078326.7918
aF133443322.5594
aF136058701.3816
aF130200953.0724
aF131610721.2805
aF136248583.9799
aF134525795.4086
aF129345633.8825
aF135824101.4597
aF137373055.4993
aF137350842.0005
aF135413271.276
aF134626399.5717
aF131110915.2574
aF130303810.1358
aF132099525.6817
aF134898070.0292
aF136701549.2649
aF120268179.9695
aF135068779.4078
aF130970512.4011
aF130865555.5188
aF135570164.3116
aF132176344.5286
aF135645803.9877
aF133953482.7544
aF135901112.4909
aF132262227.5837
aF139151842.2692
aF130590011.823
aF137270158.1151
aF134424452.9891
aF129776483.4907
aF130686559.1913
aF129804295.2441
aF139317995.7961
aF130962219.613
aF136533533.9358
aF127248069.0196
aF135454116.232
aF130568980.3364
aF128946809.3545
aF135198865.2931
aF138790332.4466
aF130894240.5423
aF125982529.3548
aF131794956.5838
aF125294302.2931
aF132446057.0671
aF130609777.3621
aF135373205.316
aF136226565.5471
aF132045087.5797
aF136701624.6513
aF135970171.9853
aF132441102.1368
aF129131979.7776
aF131022792.0668
aF138048867.1123
aF128015016.8349
aF124013338.8931
aF133536053.1142
aF128635327.2064
aF133665795.7176
aF129876996.3574
aF137158100.5814
aF123634019.8977
aF130063741.6761
aF137397365.3672
aF131580774.2139
aF139542379.167
aF134629599.9198
aF132074614.0247
aF124320296.1627
aF136469709.9416
aF132940837.8153
aF133615266.1939
aF133114525.6611
aF134666932.1015
aass.