(dp0
S'xomo_flight'
p1
(dp2
S'Spread'
p3
(lp4
(lp5
S'SPEA2_100'
p6
aF0.6156463785122394
aF0.693202498598786
aF0.6912548785368066
aF0.6825425521282733
aF0.7977432215985302
aF0.7127661635448818
aF0.6951904501197863
aF0.6641613515582272
aF0.6727920652547708
aF0.6852619551867447
aF0.708324882070454
aF0.6896972692724995
aF0.7212680984631398
aF0.6867290773783895
aF0.6699326063236032
aF0.7622180300226186
aF0.6608375130703084
aF0.6915986054546044
aF0.7186141765295745
aF0.7439906887375243
aa(lp7
S'SWAY5_1225'
p8
aF0.6603548270624012
aF0.41557304675184265
aF0.4717826282106658
aF0.5884768488985008
aF0.6668144052894144
aF0.4936891402334492
aF0.4784535717989005
aF0.542110554372524
aF0.5265250250855478
aF0.5486835586624472
aF0.518028598503025
aF0.5190961490454371
aF0.6769497945351245
aF0.5040658247796603
aF0.5689439534050039
aF0.5603325062715636
aF0.45921724594666363
aF0.544361879900009
aF0.4495349918586345
aF0.5952156239670312
aa(lp9
S'SWAY5_5000'
p10
aF0.5545084517840763
aF0.4476389946739362
aF0.3765265492206339
aF0.549739251557746
aF0.42462420033818116
aF0.6798146449557322
aF0.6128248664657713
aF0.5393370897686878
aF0.33499023120042415
aF0.481462871526847
aF0.48393376243560593
aF0.5608960379340259
aF0.4973744588819596
aF0.5094140026669862
aF0.4925227699879119
aF0.48434024484441895
aF0.46351480853908816
aF0.5111193471722698
aF0.4758731770369588
aF0.48402050200803926
aa(lp11
S'SWAY5_2500'
p12
aF0.4431784513349903
aF0.5656904212948833
aF0.5687747431521814
aF0.5260658122071508
aF0.5010216510172091
aF0.4940233618272159
aF0.4647255334573452
aF0.5605340026105201
aF0.44860645044452635
aF0.38770020724288173
aF0.5051868029815036
aF0.5851359411344085
aF0.4849312380907072
aF0.46859849508396234
aF0.5434788992930939
aF0.5158663128368597
aF0.4996302443722993
aF0.6236195800226092
aF0.4629600510609741
aF0.5297812807793683
aa(lp13
S'SWAY5_10000'
p14
aF0.41265101927185466
aF0.4772898341591424
aF0.4592658914695161
aF0.44853143760421027
aF0.4896683621098347
aF0.4658690005702419
aF0.5270800200666246
aF0.4457633113174531
aF0.5133291414474731
aF0.5624438930738588
aF0.5054423627460777
aF0.4371659977503672
aF0.4277466375021248
aF0.46327073682822123
aF0.5231226138772826
aF0.4035040888341257
aF0.44918240311626123
aF0.4804176835951105
aF0.4267143900032913
aF0.45704877724609
aa(lp15
S'NSGAII_100'
p16
aF0.775249121459245
aF0.6895486141383879
aF0.7365017877817822
aF0.760711444260192
aF0.7673512428444478
aF0.7384230334206316
aF0.7378119432706557
aF0.8059912554537492
aF0.8103067512125051
aF0.7971305708666697
aF0.7710967265080713
aF0.7251179627220342
aF0.6644105467569227
aF0.7034980279889271
aF0.5903185948533727
aF0.6850123235304332
aF0.7657091310390419
aF0.7999439676699734
aF0.6626676654425838
aF0.8157922465629057
aasS'HV'
p17
(lp18
(lp19
S'SPEA2_100'
p20
aF145992537.544
aF143874319.8309
aF142071167.7362
aF144737851.0904
aF143578615.7781
aF143275873.3317
aF144317661.7326
aF143185446.6132
aF143073509.5121
aF142585549.7819
aF142719856.967
aF144970121.9734
aF143727837.1672
aF142644089.0897
aF143806504.7003
aF143015108.7406
aF144117439.5782
aF142883817.3212
aF144397362.1209
aF143178746.6664
aa(lp21
S'SWAY5_1225'
p22
aF130937664.01
aF127860751.4988
aF135188326.2761
aF133436081.0897
aF124594013.9917
aF124252558.3177
aF133143786.7822
aF127763272.643
aF122155552.1463
aF135094129.9047
aF131274403.5423
aF124081035.3977
aF128357461.9756
aF138740688.4224
aF121006089.5154
aF128995038.7571
aF115948110.7012
aF118115228.4276
aF125669292.4205
aF137945626.2685
aa(lp23
S'SWAY5_5000'
p24
aF125038735.2144
aF141697540.5472
aF132091894.8185
aF130680973.1289
aF131311925.4101
aF123712034.1114
aF126079035.5221
aF139047189.5431
aF130220837.2232
aF132642265.7515
aF123779600.1416
aF131327433.8324
aF135334475.5394
aF125900756.6057
aF122218427.7023
aF136448409.7166
aF133041821.0792
aF128876380.8774
aF133843286.7188
aF134250349.3972
aa(lp25
S'SWAY5_2500'
p26
aF129299853.4509
aF116245810.0994
aF130995357.9433
aF132444009.7153
aF134620288.7612
aF135587992.7013
aF134619068.2785
aF130383989.5347
aF128157862.8278
aF139739059.521
aF138019102.8198
aF126475775.935
aF127488338.3859
aF134622944.0521
aF132328603.852
aF134130023.7384
aF128273306.6227
aF121821390.3794
aF128240488.691
aF128037791.4238
aa(lp27
S'SWAY5_10000'
p28
aF140346272.1563
aF134184471.5954
aF126948911.6004
aF132128370.8444
aF132473451.6761
aF142696153.408
aF132780622.8869
aF141676794.446
aF128130233.9746
aF122805241.142
aF137205271.2799
aF137567482.0983
aF135553654.5544
aF130093348.3601
aF134257158.4177
aF134263498.6155
aF134752693.8606
aF133096533.8553
aF135423578.3053
aF138598873.1272
aa(lp29
S'NSGAII_100'
p30
aF144360271.2988
aF144969179.866
aF141329603.8666
aF144773589.1411
aF143081326.2808
aF143711287.0664
aF142126593.2417
aF145903877.3263
aF143399119.7111
aF141788817.8688
aF143874913.5525
aF143213458.9413
aF144986403.1308
aF143407853.8753
aF141472293.6082
aF144235549.469
aF143018626.3961
aF142302182.3853
aF144051748.4298
aF145161215.2954
aass.