(dp0
S'SPEA2_100'
p1
(iGraphics.simplified_new
SolutionHolder
p2
(dp3
S'problem'
p4
S'xomo_osp'
p5
sS'repeats'
p6
(lp7
(iGraphics.simplified_new
Scores
p8
(dp9
S'pfs'
p10
I100
sS'spread'
p11
F0.6791291452350346
sS'hv'
p12
F140320405.809
sS'igd'
p13
Nsba(iGraphics.simplified_new
Scores
p14
(dp15
g10
I100
sg11
F0.7543408113734895
sg12
F140657394.3052
sg13
Nsba(iGraphics.simplified_new
Scores
p16
(dp17
g10
I100
sg11
F0.7839457300766279
sg12
F140991040.2712
sg13
Nsba(iGraphics.simplified_new
Scores
p18
(dp19
g10
I100
sg11
F0.7451407562297637
sg12
F144135820.4907
sg13
Nsba(iGraphics.simplified_new
Scores
p20
(dp21
g10
I100
sg11
F0.7695584273967776
sg12
F141172237.9542
sg13
Nsba(iGraphics.simplified_new
Scores
p22
(dp23
g10
I100
sg11
F0.7780043279547304
sg12
F142660493.187
sg13
Nsba(iGraphics.simplified_new
Scores
p24
(dp25
g10
I100
sg11
F0.7487165470424412
sg12
F141845772.4961
sg13
Nsba(iGraphics.simplified_new
Scores
p26
(dp27
g10
I100
sg11
F0.7112437181318162
sg12
F142848180.177
sg13
Nsba(iGraphics.simplified_new
Scores
p28
(dp29
g10
I100
sg11
F0.6557787935527776
sg12
F142400798.9891
sg13
Nsba(iGraphics.simplified_new
Scores
p30
(dp31
g10
I100
sg11
F0.6932681146020573
sg12
F144138774.3606
sg13
Nsba(iGraphics.simplified_new
Scores
p32
(dp33
g10
I100
sg11
F0.7868201205600429
sg12
F141683490.7366
sg13
Nsba(iGraphics.simplified_new
Scores
p34
(dp35
g10
I100
sg11
F0.6780862462467843
sg12
F142250560.7166
sg13
Nsba(iGraphics.simplified_new
Scores
p36
(dp37
g10
I100
sg11
F0.6470268159153582
sg12
F140823784.9892
sg13
Nsba(iGraphics.simplified_new
Scores
p38
(dp39
g10
I100
sg11
F0.7156278356485832
sg12
F143610321.7906
sg13
Nsba(iGraphics.simplified_new
Scores
p40
(dp41
g10
I100
sg11
F0.6834201088539865
sg12
F141874998.6998
sg13
Nsba(iGraphics.simplified_new
Scores
p42
(dp43
g10
I100
sg11
F0.7021374201550432
sg12
F142604487.2362
sg13
Nsba(iGraphics.simplified_new
Scores
p44
(dp45
g10
I100
sg11
F0.774882800302283
sg12
F143372229.2915
sg13
Nsba(iGraphics.simplified_new
Scores
p46
(dp47
g10
I100
sg11
F0.7012633382493717
sg12
F141718225.2751
sg13
Nsba(iGraphics.simplified_new
Scores
p48
(dp49
g10
I100
sg11
F0.739858592953232
sg12
F141319166.0254
sg13
Nsba(iGraphics.simplified_new
Scores
p50
(dp51
g10
I100
sg11
F0.7395805486724816
sg12
F141204593.3355
sg13
NsbasS'algorithm'
p52
S'SPEA2'
p53
sbsS'SWAY5_1225'
p54
(iGraphics.simplified_new
SolutionHolder
p55
(dp56
g4
g5
sg6
(lp57
(iGraphics.simplified_new
Scores
p58
(dp59
g10
I19
sg11
F0.5520945000199505
sg12
F129713096.3257
sg13
Nsba(iGraphics.simplified_new
Scores
p60
(dp61
g10
I33
sg11
F0.4758936296036452
sg12
F125898619.662
sg13
Nsba(iGraphics.simplified_new
Scores
p62
(dp63
g10
I19
sg11
F0.41054186478332483
sg12
F130803703.7515
sg13
Nsba(iGraphics.simplified_new
Scores
p64
(dp65
g10
I28
sg11
F0.5303308295506353
sg12
F126173867.5716
sg13
Nsba(iGraphics.simplified_new
Scores
p66
(dp67
g10
I28
sg11
F0.3996661485226431
sg12
F128206867.698
sg13
Nsba(iGraphics.simplified_new
Scores
p68
(dp69
g10
I19
sg11
F0.5330400756846099
sg12
F126362828.1545
sg13
Nsba(iGraphics.simplified_new
Scores
p70
(dp71
g10
I27
sg11
F0.5461311499846827
sg12
F114335211.9579
sg13
Nsba(iGraphics.simplified_new
Scores
p72
(dp73
g10
I19
sg11
F0.4486797191913704
sg12
F136065621.3753
sg13
Nsba(iGraphics.simplified_new
Scores
p74
(dp75
g10
I21
sg11
F0.47561534461011135
sg12
F129711732.0548
sg13
Nsba(iGraphics.simplified_new
Scores
p76
(dp77
g10
I19
sg11
F0.5408156653692814
sg12
F132750475.4825
sg13
Nsba(iGraphics.simplified_new
Scores
p78
(dp79
g10
I18
sg11
F0.5891246348415642
sg12
F123073945.8181
sg13
Nsba(iGraphics.simplified_new
Scores
p80
(dp81
g10
I19
sg11
F0.39997796853277656
sg12
F120892771.8011
sg13
Nsba(iGraphics.simplified_new
Scores
p82
(dp83
g10
I19
sg11
F0.5513085550980619
sg12
F119140757.8042
sg13
Nsba(iGraphics.simplified_new
Scores
p84
(dp85
g10
I19
sg11
F0.4101022800339711
sg12
F110932193.3914
sg13
Nsba(iGraphics.simplified_new
Scores
p86
(dp87
g10
I24
sg11
F0.5316841613839673
sg12
F116007435.3425
sg13
Nsba(iGraphics.simplified_new
Scores
p88
(dp89
g10
I27
sg11
F0.4840633807931413
sg12
F120159560.3367
sg13
Nsba(iGraphics.simplified_new
Scores
p90
(dp91
g10
I19
sg11
F0.4786741561329837
sg12
F129816630.9265
sg13
Nsba(iGraphics.simplified_new
Scores
p92
(dp93
g10
I28
sg11
F0.4388966334371653
sg12
F132617530.8008
sg13
Nsba(iGraphics.simplified_new
Scores
p94
(dp95
g10
I19
sg11
F0.6636730527595317
sg12
F123725006.5427
sg13
Nsba(iGraphics.simplified_new
Scores
p96
(dp97
g10
I17
sg11
F0.5798988153509984
sg12
F116344823.2035
sg13
Nsbasg52
S'SWAY5'
p98
sbsS'SWAY5_5000'
p99
(iGraphics.simplified_new
SolutionHolder
p100
(dp101
g4
g5
sg6
(lp102
(iGraphics.simplified_new
Scores
p103
(dp104
g10
I19
sg11
F0.5110355745898759
sg12
F117643267.9692
sg13
Nsba(iGraphics.simplified_new
Scores
p105
(dp106
g10
I39
sg11
F0.41124071648405863
sg12
F128506645.1604
sg13
Nsba(iGraphics.simplified_new
Scores
p107
(dp108
g10
I66
sg11
F0.4108940604700512
sg12
F134017598.9322
sg13
Nsba(iGraphics.simplified_new
Scores
p109
(dp110
g10
I61
sg11
F0.4288948896937449
sg12
F125979075.9599
sg13
Nsba(iGraphics.simplified_new
Scores
p111
(dp112
g10
I52
sg11
F0.3963073957099726
sg12
F128567671.9864
sg13
Nsba(iGraphics.simplified_new
Scores
p113
(dp114
g10
I59
sg11
F0.5566024869198049
sg12
F128889585.3495
sg13
Nsba(iGraphics.simplified_new
Scores
p115
(dp116
g10
I59
sg11
F0.4807601208327912
sg12
F133141133.528
sg13
Nsba(iGraphics.simplified_new
Scores
p117
(dp118
g10
I39
sg11
F0.6023626828116055
sg12
F136155065.7872
sg13
Nsba(iGraphics.simplified_new
Scores
p119
(dp120
g10
I63
sg11
F0.4913566596502043
sg12
F133140999.5486
sg13
Nsba(iGraphics.simplified_new
Scores
p121
(dp122
g10
I36
sg11
F0.4759905982522026
sg12
F121978818.3691
sg13
Nsba(iGraphics.simplified_new
Scores
p123
(dp124
g10
I38
sg11
F0.5157787235599756
sg12
F128349243.2915
sg13
Nsba(iGraphics.simplified_new
Scores
p125
(dp126
g10
I59
sg11
F0.46351641042561825
sg12
F136062901.7592
sg13
Nsba(iGraphics.simplified_new
Scores
p127
(dp128
g10
I58
sg11
F0.32238086903391633
sg12
F130073420.3841
sg13
Nsba(iGraphics.simplified_new
Scores
p129
(dp130
g10
I34
sg11
F0.527467849675752
sg12
F129763667.8008
sg13
Nsba(iGraphics.simplified_new
Scores
p131
(dp132
g10
I33
sg11
F0.4458990442841828
sg12
F130203630.9731
sg13
Nsba(iGraphics.simplified_new
Scores
p133
(dp134
g10
I39
sg11
F0.447302652749493
sg12
F129133575.378
sg13
Nsba(iGraphics.simplified_new
Scores
p135
(dp136
g10
I19
sg11
F0.4487518165099152
sg12
F122067552.2993
sg13
Nsba(iGraphics.simplified_new
Scores
p137
(dp138
g10
I39
sg11
F0.462693791626053
sg12
F126177478.9123
sg13
Nsba(iGraphics.simplified_new
Scores
p139
(dp140
g10
I39
sg11
F0.48287504682000715
sg12
F122678873.552
sg13
Nsba(iGraphics.simplified_new
Scores
p141
(dp142
g10
I37
sg11
F0.46722685910825673
sg12
F126560873.2203
sg13
Nsbasg52
S'SWAY5'
p143
sbsS'SWAY5_2500'
p144
(iGraphics.simplified_new
SolutionHolder
p145
(dp146
g4
g5
sg6
(lp147
(iGraphics.simplified_new
Scores
p148
(dp149
g10
I25
sg11
F0.4535707521551823
sg12
F124509396.4612
sg13
Nsba(iGraphics.simplified_new
Scores
p150
(dp151
g10
I39
sg11
F0.4316529317901363
sg12
F130214029.4591
sg13
Nsba(iGraphics.simplified_new
Scores
p152
(dp153
g10
I22
sg11
F0.4682186549605109
sg12
F125559684.6099
sg13
Nsba(iGraphics.simplified_new
Scores
p154
(dp155
g10
I39
sg11
F0.5164991212339841
sg12
F128754416.4846
sg13
Nsba(iGraphics.simplified_new
Scores
p156
(dp157
g10
I39
sg11
F0.4636564372207178
sg12
F132845013.1324
sg13
Nsba(iGraphics.simplified_new
Scores
p158
(dp159
g10
I19
sg11
F0.5451162850829069
sg12
F124814170.4368
sg13
Nsba(iGraphics.simplified_new
Scores
p160
(dp161
g10
I19
sg11
F0.4321621923555021
sg12
F130352721.5734
sg13
Nsba(iGraphics.simplified_new
Scores
p162
(dp163
g10
I34
sg11
F0.33549351701991686
sg12
F133984062.7889
sg13
Nsba(iGraphics.simplified_new
Scores
p164
(dp165
g10
I34
sg11
F0.5357339759512056
sg12
F124439697.4956
sg13
Nsba(iGraphics.simplified_new
Scores
p166
(dp167
g10
I29
sg11
F0.5216605913826516
sg12
F134344045.9304
sg13
Nsba(iGraphics.simplified_new
Scores
p168
(dp169
g10
I28
sg11
F0.49090076083238376
sg12
F127948483.5921
sg13
Nsba(iGraphics.simplified_new
Scores
p170
(dp171
g10
I19
sg11
F0.5896388065548673
sg12
F130657328.8902
sg13
Nsba(iGraphics.simplified_new
Scores
p172
(dp173
g10
I29
sg11
F0.45767048136024013
sg12
F128020040.3691
sg13
Nsba(iGraphics.simplified_new
Scores
p174
(dp175
g10
I29
sg11
F0.4350409693283865
sg12
F122057979.8136
sg13
Nsba(iGraphics.simplified_new
Scores
p176
(dp177
g10
I29
sg11
F0.42678914170455023
sg12
F133309440.5504
sg13
Nsba(iGraphics.simplified_new
Scores
p178
(dp179
g10
I19
sg11
F0.5140282053901712
sg12
F117665303.2591
sg13
Nsba(iGraphics.simplified_new
Scores
p180
(dp181
g10
I39
sg11
F0.4124972264800079
sg12
F134063796.6502
sg13
Nsba(iGraphics.simplified_new
Scores
p182
(dp183
g10
I39
sg11
F0.4116295376127264
sg12
F127197320.0412
sg13
Nsba(iGraphics.simplified_new
Scores
p184
(dp185
g10
I34
sg11
F0.5292306295796521
sg12
F130342175.2047
sg13
Nsba(iGraphics.simplified_new
Scores
p186
(dp187
g10
I39
sg11
F0.5043005980365485
sg12
F135948026.9182
sg13
Nsbasg52
S'SWAY5'
p188
sbsS'SWAY5_10000'
p189
(iGraphics.simplified_new
SolutionHolder
p190
(dp191
g4
g5
sg6
(lp192
(iGraphics.simplified_new
Scores
p193
(dp194
g10
I68
sg11
F0.4310753310053103
sg12
F134070113.9292
sg13
Nsba(iGraphics.simplified_new
Scores
p195
(dp196
g10
I58
sg11
F0.45605522254906367
sg12
F139236380.1094
sg13
Nsba(iGraphics.simplified_new
Scores
p197
(dp198
g10
I78
sg11
F0.45492462306274883
sg12
F128144150.3031
sg13
Nsba(iGraphics.simplified_new
Scores
p199
(dp200
g10
I59
sg11
F0.5201054673684865
sg12
F130295380.3016
sg13
Nsba(iGraphics.simplified_new
Scores
p201
(dp202
g10
I82
sg11
F0.44685099780571197
sg12
F139058900.3674
sg13
Nsba(iGraphics.simplified_new
Scores
p203
(dp204
g10
I68
sg11
F0.4802714673473587
sg12
F140041450.9684
sg13
Nsba(iGraphics.simplified_new
Scores
p205
(dp206
g10
I39
sg11
F0.5207152264151392
sg12
F134491634.1794
sg13
Nsba(iGraphics.simplified_new
Scores
p207
(dp208
g10
I30
sg11
F0.5635574893964538
sg12
F118901882.408
sg13
Nsba(iGraphics.simplified_new
Scores
p209
(dp210
g10
I88
sg11
F0.436070952493525
sg12
F128066183.9363
sg13
Nsba(iGraphics.simplified_new
Scores
p211
(dp212
g10
I73
sg11
F0.4401896012405852
sg12
F128912802.9187
sg13
Nsba(iGraphics.simplified_new
Scores
p213
(dp214
g10
I96
sg11
F0.49012715482065344
sg12
F135754274.0735
sg13
Nsba(iGraphics.simplified_new
Scores
p215
(dp216
g10
I51
sg11
F0.5264349344333297
sg12
F128420640.9492
sg13
Nsba(iGraphics.simplified_new
Scores
p217
(dp218
g10
I57
sg11
F0.4640844434148698
sg12
F130463245.6577
sg13
Nsba(iGraphics.simplified_new
Scores
p219
(dp220
g10
I93
sg11
F0.46996842262180405
sg12
F133410703.0316
sg13
Nsba(iGraphics.simplified_new
Scores
p221
(dp222
g10
I58
sg11
F0.4995340293871723
sg12
F129579707.3683
sg13
Nsba(iGraphics.simplified_new
Scores
p223
(dp224
g10
I78
sg11
F0.4557538439846892
sg12
F132336148.6152
sg13
Nsba(iGraphics.simplified_new
Scores
p225
(dp226
g10
I48
sg11
F0.37713878986834887
sg12
F138675165.5286
sg13
Nsba(iGraphics.simplified_new
Scores
p227
(dp228
g10
I96
sg11
F0.46656604692081
sg12
F135469309.4818
sg13
Nsba(iGraphics.simplified_new
Scores
p229
(dp230
g10
I78
sg11
F0.42939054399042825
sg12
F135954831.8963
sg13
Nsba(iGraphics.simplified_new
Scores
p231
(dp232
g10
I90
sg11
F0.4727118049494275
sg12
F137481111.8032
sg13
Nsbasg52
S'SWAY5'
p233
sbsS'NSGAII_100'
p234
(iGraphics.simplified_new
SolutionHolder
p235
(dp236
g4
g5
sg6
(lp237
(iGraphics.simplified_new
Scores
p238
(dp239
g10
I100
sg11
F0.7449765765278396
sg12
F141809356.0769
sg13
Nsba(iGraphics.simplified_new
Scores
p240
(dp241
g10
I100
sg11
F0.7403388985778806
sg12
F142246385.6856
sg13
Nsba(iGraphics.simplified_new
Scores
p242
(dp243
g10
I100
sg11
F0.7826785474749487
sg12
F140086124.8876
sg13
Nsba(iGraphics.simplified_new
Scores
p244
(dp245
g10
I100
sg11
F0.7060842465493944
sg12
F141254484.7003
sg13
Nsba(iGraphics.simplified_new
Scores
p246
(dp247
g10
I100
sg11
F0.7380836036843677
sg12
F142224710.5625
sg13
Nsba(iGraphics.simplified_new
Scores
p248
(dp249
g10
I100
sg11
F0.7761616300550483
sg12
F142931842.1717
sg13
Nsba(iGraphics.simplified_new
Scores
p250
(dp251
g10
I100
sg11
F0.6786533075866958
sg12
F142862425.1306
sg13
Nsba(iGraphics.simplified_new
Scores
p252
(dp253
g10
I100
sg11
F0.7023485214653038
sg12
F141176537.9415
sg13
Nsba(iGraphics.simplified_new
Scores
p254
(dp255
g10
I100
sg11
F0.7596295980576254
sg12
F144748355.4543
sg13
Nsba(iGraphics.simplified_new
Scores
p256
(dp257
g10
I100
sg11
F0.6705589907849944
sg12
F142074553.4652
sg13
Nsba(iGraphics.simplified_new
Scores
p258
(dp259
g10
I100
sg11
F0.6641825733778741
sg12
F140486660.3453
sg13
Nsba(iGraphics.simplified_new
Scores
p260
(dp261
g10
I100
sg11
F0.7673368220150297
sg12
F142939255.5867
sg13
Nsba(iGraphics.simplified_new
Scores
p262
(dp263
g10
I100
sg11
F0.7783794640204272
sg12
F143647522.8789
sg13
Nsba(iGraphics.simplified_new
Scores
p264
(dp265
g10
I100
sg11
F0.6862901607692846
sg12
F139852738.3737
sg13
Nsba(iGraphics.simplified_new
Scores
p266
(dp267
g10
I100
sg11
F0.7502034519380243
sg12
F141496808.4826
sg13
Nsba(iGraphics.simplified_new
Scores
p268
(dp269
g10
I100
sg11
F0.7370238002254714
sg12
F145236368.5273
sg13
Nsba(iGraphics.simplified_new
Scores
p270
(dp271
g10
I100
sg11
F0.721044384828278
sg12
F141379590.7656
sg13
Nsba(iGraphics.simplified_new
Scores
p272
(dp273
g10
I100
sg11
F0.7479114164779446
sg12
F142895583.8991
sg13
Nsba(iGraphics.simplified_new
Scores
p274
(dp275
g10
I100
sg11
F0.6399840347317163
sg12
F144572199.1952
sg13
Nsba(iGraphics.simplified_new
Scores
p276
(dp277
g10
I100
sg11
F0.676577877675047
sg12
F141774978.4828
sg13
Nsbasg52
S'NSGAII'
p278
sbs.