(dp0
S'SPEA2_100'
p1
(iGraphics.simplified_new
SolutionHolder
p2
(dp3
S'problem'
p4
S'xomo_all'
p5
sS'repeats'
p6
(lp7
(iGraphics.simplified_new
Scores
p8
(dp9
S'pfs'
p10
I100
sS'spread'
p11
F0.7405954209194138
sS'hv'
p12
F144432066.3028
sS'igd'
p13
Nsba(iGraphics.simplified_new
Scores
p14
(dp15
g10
I100
sg11
F0.6953859427865206
sg12
F143039878.1508
sg13
Nsba(iGraphics.simplified_new
Scores
p16
(dp17
g10
I100
sg11
F0.6262244512819093
sg12
F143020631.4646
sg13
Nsba(iGraphics.simplified_new
Scores
p18
(dp19
g10
I100
sg11
F0.6842209103641567
sg12
F145678695.9709
sg13
Nsba(iGraphics.simplified_new
Scores
p20
(dp21
g10
I100
sg11
F0.7368520123012994
sg12
F142563314.1488
sg13
Nsba(iGraphics.simplified_new
Scores
p22
(dp23
g10
I100
sg11
F0.7520038540671112
sg12
F143465470.4441
sg13
Nsba(iGraphics.simplified_new
Scores
p24
(dp25
g10
I100
sg11
F0.683257562011451
sg12
F143657617.0857
sg13
Nsba(iGraphics.simplified_new
Scores
p26
(dp27
g10
I100
sg11
F0.6249025709064823
sg12
F141641284.0088
sg13
Nsba(iGraphics.simplified_new
Scores
p28
(dp29
g10
I100
sg11
F0.7444974763557729
sg12
F143642540.7465
sg13
Nsba(iGraphics.simplified_new
Scores
p30
(dp31
g10
I100
sg11
F0.7387861945749805
sg12
F144195344.6448
sg13
Nsba(iGraphics.simplified_new
Scores
p32
(dp33
g10
I100
sg11
F0.6872024725553137
sg12
F143731595.7283
sg13
Nsba(iGraphics.simplified_new
Scores
p34
(dp35
g10
I100
sg11
F0.7066353714476908
sg12
F143142589.2533
sg13
Nsba(iGraphics.simplified_new
Scores
p36
(dp37
g10
I100
sg11
F0.715730652398461
sg12
F143790110.4171
sg13
Nsba(iGraphics.simplified_new
Scores
p38
(dp39
g10
I100
sg11
F0.7167979928025997
sg12
F145294636.2976
sg13
Nsba(iGraphics.simplified_new
Scores
p40
(dp41
g10
I100
sg11
F0.7600524687564589
sg12
F144798877.0568
sg13
Nsba(iGraphics.simplified_new
Scores
p42
(dp43
g10
I100
sg11
F0.6318665888818197
sg12
F142673465.9328
sg13
Nsba(iGraphics.simplified_new
Scores
p44
(dp45
g10
I100
sg11
F0.774990835591276
sg12
F143938164.5635
sg13
Nsba(iGraphics.simplified_new
Scores
p46
(dp47
g10
I100
sg11
F0.6502498136274001
sg12
F144551110.2371
sg13
Nsba(iGraphics.simplified_new
Scores
p48
(dp49
g10
I100
sg11
F0.7419989636995228
sg12
F142710075.3365
sg13
Nsba(iGraphics.simplified_new
Scores
p50
(dp51
g10
I100
sg11
F0.7522043547149149
sg12
F143016048.1086
sg13
NsbasS'algorithm'
p52
S'SPEA2'
p53
sbsS'SWAY5_1225'
p54
(iGraphics.simplified_new
SolutionHolder
p55
(dp56
g4
g5
sg6
(lp57
(iGraphics.simplified_new
Scores
p58
(dp59
g10
I19
sg11
F0.5621058096490064
sg12
F134247016.7742
sg13
Nsba(iGraphics.simplified_new
Scores
p60
(dp61
g10
I19
sg11
F0.5604594418282417
sg12
F124559100.6207
sg13
Nsba(iGraphics.simplified_new
Scores
p62
(dp63
g10
I27
sg11
F0.7515951741229323
sg12
F123393195.4823
sg13
Nsba(iGraphics.simplified_new
Scores
p64
(dp65
g10
I33
sg11
F0.5319318216241885
sg12
F124115258.9544
sg13
Nsba(iGraphics.simplified_new
Scores
p66
(dp67
g10
I33
sg11
F0.5070773303876018
sg12
F127237094.6158
sg13
Nsba(iGraphics.simplified_new
Scores
p68
(dp69
g10
I29
sg11
F0.4687515600538286
sg12
F134236047.0994
sg13
Nsba(iGraphics.simplified_new
Scores
p70
(dp71
g10
I32
sg11
F0.5189819237230769
sg12
F134073186.5492
sg13
Nsba(iGraphics.simplified_new
Scores
p72
(dp73
g10
I22
sg11
F0.4710196847154317
sg12
F126816510.5876
sg13
Nsba(iGraphics.simplified_new
Scores
p74
(dp75
g10
I25
sg11
F0.5161739675805133
sg12
F130610310.1568
sg13
Nsba(iGraphics.simplified_new
Scores
p76
(dp77
g10
I21
sg11
F0.3987472853290209
sg12
F120851068.2373
sg13
Nsba(iGraphics.simplified_new
Scores
p78
(dp79
g10
I19
sg11
F0.5682452428559419
sg12
F127671096.0526
sg13
Nsba(iGraphics.simplified_new
Scores
p80
(dp81
g10
I19
sg11
F0.4173731764091743
sg12
F118209341.5141
sg13
Nsba(iGraphics.simplified_new
Scores
p82
(dp83
g10
I24
sg11
F0.4676923081809053
sg12
F122567707.4536
sg13
Nsba(iGraphics.simplified_new
Scores
p84
(dp85
g10
I28
sg11
F0.4738751941490162
sg12
F140894702.1173
sg13
Nsba(iGraphics.simplified_new
Scores
p86
(dp87
g10
I27
sg11
F0.5635311467873336
sg12
F130701781.3177
sg13
Nsba(iGraphics.simplified_new
Scores
p88
(dp89
g10
I33
sg11
F0.3987343780877424
sg12
F121174703.0314
sg13
Nsba(iGraphics.simplified_new
Scores
p90
(dp91
g10
I28
sg11
F0.5350740605890024
sg12
F123437527.975
sg13
Nsba(iGraphics.simplified_new
Scores
p92
(dp93
g10
I19
sg11
F0.5430166409042995
sg12
F139101273.556
sg13
Nsba(iGraphics.simplified_new
Scores
p94
(dp95
g10
I19
sg11
F0.5905676327727254
sg12
F128641032.654
sg13
Nsba(iGraphics.simplified_new
Scores
p96
(dp97
g10
I19
sg11
F0.4796668190178072
sg12
F125621852.4189
sg13
Nsbasg52
S'SWAY5'
p98
sbsS'SWAY5_5000'
p99
(iGraphics.simplified_new
SolutionHolder
p100
(dp101
g4
g5
sg6
(lp102
(iGraphics.simplified_new
Scores
p103
(dp104
g10
I39
sg11
F0.5246208548229849
sg12
F128956478.2704
sg13
Nsba(iGraphics.simplified_new
Scores
p105
(dp106
g10
I39
sg11
F0.4616592452978655
sg12
F128726122.1008
sg13
Nsba(iGraphics.simplified_new
Scores
p107
(dp108
g10
I39
sg11
F0.472773930718994
sg12
F135547142.2669
sg13
Nsba(iGraphics.simplified_new
Scores
p109
(dp110
g10
I39
sg11
F0.40603122454803875
sg12
F132614428.5183
sg13
Nsba(iGraphics.simplified_new
Scores
p111
(dp112
g10
I38
sg11
F0.5528045726360535
sg12
F134570592.5205
sg13
Nsba(iGraphics.simplified_new
Scores
p113
(dp114
g10
I39
sg11
F0.43884516541640695
sg12
F123156727.7435
sg13
Nsba(iGraphics.simplified_new
Scores
p115
(dp116
g10
I44
sg11
F0.4723129203806015
sg12
F135071435.4451
sg13
Nsba(iGraphics.simplified_new
Scores
p117
(dp118
g10
I67
sg11
F0.485120575597885
sg12
F131522855.4669
sg13
Nsba(iGraphics.simplified_new
Scores
p119
(dp120
g10
I44
sg11
F0.5513011928135306
sg12
F133027627.5748
sg13
Nsba(iGraphics.simplified_new
Scores
p121
(dp122
g10
I59
sg11
F0.45476857773300255
sg12
F135540285.0929
sg13
Nsba(iGraphics.simplified_new
Scores
p123
(dp124
g10
I65
sg11
F0.4797478095363429
sg12
F126968266.5277
sg13
Nsba(iGraphics.simplified_new
Scores
p125
(dp126
g10
I39
sg11
F0.48922563196535457
sg12
F127737727.4329
sg13
Nsba(iGraphics.simplified_new
Scores
p127
(dp128
g10
I44
sg11
F0.5556967478722171
sg12
F131811500.0432
sg13
Nsba(iGraphics.simplified_new
Scores
p129
(dp130
g10
I58
sg11
F0.4000684495876325
sg12
F134680413.7028
sg13
Nsba(iGraphics.simplified_new
Scores
p131
(dp132
g10
I67
sg11
F0.46231145946112984
sg12
F132875219.0412
sg13
Nsba(iGraphics.simplified_new
Scores
p133
(dp134
g10
I68
sg11
F0.4734088465872589
sg12
F129848031.1328
sg13
Nsba(iGraphics.simplified_new
Scores
p135
(dp136
g10
I39
sg11
F0.5827350115130457
sg12
F136201861.7698
sg13
Nsba(iGraphics.simplified_new
Scores
p137
(dp138
g10
I52
sg11
F0.46999702681593547
sg12
F133147275.3149
sg13
Nsba(iGraphics.simplified_new
Scores
p139
(dp140
g10
I60
sg11
F0.4586131631143752
sg12
F130232866.8618
sg13
Nsba(iGraphics.simplified_new
Scores
p141
(dp142
g10
I51
sg11
F0.46561760826747833
sg12
F132960426.6955
sg13
Nsbasg52
S'SWAY5'
p143
sbsS'SWAY5_2500'
p144
(iGraphics.simplified_new
SolutionHolder
p145
(dp146
g4
g5
sg6
(lp147
(iGraphics.simplified_new
Scores
p148
(dp149
g10
I29
sg11
F0.4977128264829509
sg12
F121231782.6973
sg13
Nsba(iGraphics.simplified_new
Scores
p150
(dp151
g10
I29
sg11
F0.5229655104022647
sg12
F132823569.9342
sg13
Nsba(iGraphics.simplified_new
Scores
p152
(dp153
g10
I43
sg11
F0.5835383261467856
sg12
F129588012.3962
sg13
Nsba(iGraphics.simplified_new
Scores
p154
(dp155
g10
I21
sg11
F0.4600105918334307
sg12
F133427603.5008
sg13
Nsba(iGraphics.simplified_new
Scores
p156
(dp157
g10
I28
sg11
F0.4859712949867995
sg12
F134361812.2238
sg13
Nsba(iGraphics.simplified_new
Scores
p158
(dp159
g10
I34
sg11
F0.5489183517406798
sg12
F133169022.9436
sg13
Nsba(iGraphics.simplified_new
Scores
p160
(dp161
g10
I34
sg11
F0.48617839248582284
sg12
F125402616.7379
sg13
Nsba(iGraphics.simplified_new
Scores
p162
(dp163
g10
I35
sg11
F0.5214863148299345
sg12
F137786312.3716
sg13
Nsba(iGraphics.simplified_new
Scores
p164
(dp165
g10
I38
sg11
F0.4583440537771974
sg12
F126032964.8239
sg13
Nsba(iGraphics.simplified_new
Scores
p166
(dp167
g10
I29
sg11
F0.36070996912295966
sg12
F130736718.8633
sg13
Nsba(iGraphics.simplified_new
Scores
p168
(dp169
g10
I25
sg11
F0.4900571249743385
sg12
F127137979.6587
sg13
Nsba(iGraphics.simplified_new
Scores
p170
(dp171
g10
I39
sg11
F0.3893551726267309
sg12
F132438385.1295
sg13
Nsba(iGraphics.simplified_new
Scores
p172
(dp173
g10
I29
sg11
F0.5134848548071749
sg12
F127851903.1338
sg13
Nsba(iGraphics.simplified_new
Scores
p174
(dp175
g10
I29
sg11
F0.5420250816755868
sg12
F124330452.7238
sg13
Nsba(iGraphics.simplified_new
Scores
p176
(dp177
g10
I29
sg11
F0.4712071309289245
sg12
F131845859.7071
sg13
Nsba(iGraphics.simplified_new
Scores
p178
(dp179
g10
I25
sg11
F0.4886996425349509
sg12
F124768256.9524
sg13
Nsba(iGraphics.simplified_new
Scores
p180
(dp181
g10
I29
sg11
F0.4765733239686406
sg12
F133657928.8546
sg13
Nsba(iGraphics.simplified_new
Scores
p182
(dp183
g10
I39
sg11
F0.5536148672274792
sg12
F128462555.3539
sg13
Nsba(iGraphics.simplified_new
Scores
p184
(dp185
g10
I33
sg11
F0.584655645187474
sg12
F130903875.5727
sg13
Nsba(iGraphics.simplified_new
Scores
p186
(dp187
g10
I19
sg11
F0.49726911254782324
sg12
F141026435.859
sg13
Nsbasg52
S'SWAY5'
p188
sbsS'SWAY5_10000'
p189
(iGraphics.simplified_new
SolutionHolder
p190
(dp191
g4
g5
sg6
(lp192
(iGraphics.simplified_new
Scores
p193
(dp194
g10
I73
sg11
F0.459592197659221
sg12
F129639244.4927
sg13
Nsba(iGraphics.simplified_new
Scores
p195
(dp196
g10
I31
sg11
F0.4875860475137817
sg12
F122183395.2498
sg13
Nsba(iGraphics.simplified_new
Scores
p197
(dp198
g10
I34
sg11
F0.6176490569458017
sg12
F131595202.9418
sg13
Nsba(iGraphics.simplified_new
Scores
p199
(dp200
g10
I63
sg11
F0.47909769651159045
sg12
F136724283.6555
sg13
Nsba(iGraphics.simplified_new
Scores
p201
(dp202
g10
I58
sg11
F0.44224232085936527
sg12
F133605381.9064
sg13
Nsba(iGraphics.simplified_new
Scores
p203
(dp204
g10
I51
sg11
F0.4871196437177574
sg12
F139163271.6048
sg13
Nsba(iGraphics.simplified_new
Scores
p205
(dp206
g10
I31
sg11
F0.41422084040791574
sg12
F134807649.7033
sg13
Nsba(iGraphics.simplified_new
Scores
p207
(dp208
g10
I82
sg11
F0.45639065832964537
sg12
F136842598.6195
sg13
Nsba(iGraphics.simplified_new
Scores
p209
(dp210
g10
I39
sg11
F0.48902178792286444
sg12
F132964805.1607
sg13
Nsba(iGraphics.simplified_new
Scores
p211
(dp212
g10
I68
sg11
F0.3994606481269954
sg12
F136382757.3093
sg13
Nsba(iGraphics.simplified_new
Scores
p213
(dp214
g10
I82
sg11
F0.40227069719133424
sg12
F139633519.7457
sg13
Nsba(iGraphics.simplified_new
Scores
p215
(dp216
g10
I73
sg11
F0.4913193340767167
sg12
F133650239.7757
sg13
Nsba(iGraphics.simplified_new
Scores
p217
(dp218
g10
I96
sg11
F0.4951147684033328
sg12
F134940754.9189
sg13
Nsba(iGraphics.simplified_new
Scores
p219
(dp220
g10
I88
sg11
F0.5008783459978374
sg12
F138802758.2213
sg13
Nsba(iGraphics.simplified_new
Scores
p221
(dp222
g10
I39
sg11
F0.5214605179948902
sg12
F134215213.9218
sg13
Nsba(iGraphics.simplified_new
Scores
p223
(dp224
g10
I59
sg11
F0.5614858443072321
sg12
F130742182.837
sg13
Nsba(iGraphics.simplified_new
Scores
p225
(dp226
g10
I39
sg11
F0.524145481198044
sg12
F128241650.8875
sg13
Nsba(iGraphics.simplified_new
Scores
p227
(dp228
g10
I78
sg11
F0.46026644610988904
sg12
F134380785.1278
sg13
Nsba(iGraphics.simplified_new
Scores
p229
(dp230
g10
I58
sg11
F0.4611711417851113
sg12
F136274914.1447
sg13
Nsba(iGraphics.simplified_new
Scores
p231
(dp232
g10
I78
sg11
F0.4534563301112452
sg12
F137303087.7874
sg13
Nsbasg52
S'SWAY5'
p233
sbsS'NSGAII_100'
p234
(iGraphics.simplified_new
SolutionHolder
p235
(dp236
g4
g5
sg6
(lp237
(iGraphics.simplified_new
Scores
p238
(dp239
g10
I100
sg11
F0.7434081713750004
sg12
F142727219.9447
sg13
Nsba(iGraphics.simplified_new
Scores
p240
(dp241
g10
I100
sg11
F0.6922394156448629
sg12
F141804251.963
sg13
Nsba(iGraphics.simplified_new
Scores
p242
(dp243
g10
I100
sg11
F0.7627209310500791
sg12
F142938166.7328
sg13
Nsba(iGraphics.simplified_new
Scores
p244
(dp245
g10
I100
sg11
F0.7665042841216679
sg12
F141134389.8404
sg13
Nsba(iGraphics.simplified_new
Scores
p246
(dp247
g10
I100
sg11
F0.6552391951586487
sg12
F141482297.4204
sg13
Nsba(iGraphics.simplified_new
Scores
p248
(dp249
g10
I100
sg11
F0.6207702086807597
sg12
F143287307.1669
sg13
Nsba(iGraphics.simplified_new
Scores
p250
(dp251
g10
I100
sg11
F0.6487206773547649
sg12
F144289483.8364
sg13
Nsba(iGraphics.simplified_new
Scores
p252
(dp253
g10
I100
sg11
F0.7426899557804612
sg12
F142520426.3167
sg13
Nsba(iGraphics.simplified_new
Scores
p254
(dp255
g10
I100
sg11
F0.7184479598433973
sg12
F142788322.4038
sg13
Nsba(iGraphics.simplified_new
Scores
p256
(dp257
g10
I100
sg11
F0.7528960467357039
sg12
F143931719.5846
sg13
Nsba(iGraphics.simplified_new
Scores
p258
(dp259
g10
I100
sg11
F0.6435617275532804
sg12
F143158885.9218
sg13
Nsba(iGraphics.simplified_new
Scores
p260
(dp261
g10
I100
sg11
F0.6851773426385591
sg12
F143306341.048
sg13
Nsba(iGraphics.simplified_new
Scores
p262
(dp263
g10
I100
sg11
F0.7561377088329915
sg12
F143724777.8434
sg13
Nsba(iGraphics.simplified_new
Scores
p264
(dp265
g10
I100
sg11
F0.8026673376686325
sg12
F142980474.804
sg13
Nsba(iGraphics.simplified_new
Scores
p266
(dp267
g10
I100
sg11
F0.8466145993048082
sg12
F142162530.9071
sg13
Nsba(iGraphics.simplified_new
Scores
p268
(dp269
g10
I100
sg11
F0.6614291898204978
sg12
F141874275.4969
sg13
Nsba(iGraphics.simplified_new
Scores
p270
(dp271
g10
I100
sg11
F0.6847386076412233
sg12
F144190041.7311
sg13
Nsba(iGraphics.simplified_new
Scores
p272
(dp273
g10
I100
sg11
F0.7239161314182379
sg12
F143977571.579
sg13
Nsba(iGraphics.simplified_new
Scores
p274
(dp275
g10
I100
sg11
F0.802266602310462
sg12
F142811926.7028
sg13
Nsba(iGraphics.simplified_new
Scores
p276
(dp277
g10
I100
sg11
F0.7280840317160729
sg12
F142412158.6239
sg13
Nsbasg52
S'NSGAII'
p278
sbs.