(dp0
S'SWAY5_2500'
p1
(iGraphics.simplified_new
SolutionHolder
p2
(dp3
S'problem'
p4
S'xomo_flight'
p5
sS'repeats'
p6
(lp7
(iGraphics.simplified_new
Scores
p8
(dp9
S'pfs'
p10
I39
sS'spread'
p11
F0.44343541885592136
sS'hv'
p12
F130153953.4383
sS'igd'
p13
Nsba(iGraphics.simplified_new
Scores
p14
(dp15
g10
I29
sg11
F0.5653718277969302
sg12
F117006546.0346
sg13
Nsba(iGraphics.simplified_new
Scores
p16
(dp17
g10
I29
sg11
F0.568627608254469
sg12
F131860634.3239
sg13
Nsba(iGraphics.simplified_new
Scores
p18
(dp19
g10
I29
sg11
F0.5256630866319949
sg12
F133320976.2387
sg13
Nsba(iGraphics.simplified_new
Scores
p20
(dp21
g10
I39
sg11
F0.5008825401562246
sg12
F135511174.2408
sg13
Nsba(iGraphics.simplified_new
Scores
p22
(dp23
g10
I27
sg11
F0.49398504055462056
sg12
F136485352.9563
sg13
Nsba(iGraphics.simplified_new
Scores
p24
(dp25
g10
I39
sg11
F0.4644617107893485
sg12
F135509383.7545
sg13
Nsba(iGraphics.simplified_new
Scores
p26
(dp27
g10
I30
sg11
F0.5603694468595835
sg12
F131243298.9903
sg13
Nsba(iGraphics.simplified_new
Scores
p28
(dp29
g10
I25
sg11
F0.4481107276151048
sg12
F129002635.9321
sg13
Nsba(iGraphics.simplified_new
Scores
p30
(dp31
g10
I39
sg11
F0.38763903971558555
sg12
F140666509.3609
sg13
Nsba(iGraphics.simplified_new
Scores
p32
(dp33
g10
I34
sg11
F0.5052909014059846
sg12
F138934343.4291
sg13
Nsba(iGraphics.simplified_new
Scores
p34
(dp35
g10
I26
sg11
F0.5843858000000307
sg12
F127306798.7485
sg13
Nsba(iGraphics.simplified_new
Scores
p36
(dp37
g10
I29
sg11
F0.48494195856682765
sg12
F128328845.3589
sg13
Nsba(iGraphics.simplified_new
Scores
p38
(dp39
g10
I44
sg11
F0.46870882573294964
sg12
F135512926.4146
sg13
Nsba(iGraphics.simplified_new
Scores
p40
(dp41
g10
I30
sg11
F0.5428467700163798
sg12
F133201922.9207
sg13
Nsba(iGraphics.simplified_new
Scores
p42
(dp43
g10
I44
sg11
F0.5154631388859685
sg12
F135016690.426
sg13
Nsba(iGraphics.simplified_new
Scores
p44
(dp45
g10
I22
sg11
F0.4988573992444689
sg12
F129120416.1562
sg13
Nsba(iGraphics.simplified_new
Scores
p46
(dp47
g10
I19
sg11
F0.6232832656875713
sg12
F122620229.0459
sg13
Nsba(iGraphics.simplified_new
Scores
p48
(dp49
g10
I32
sg11
F0.46343037015445815
sg12
F129086589.0908
sg13
Nsba(iGraphics.simplified_new
Scores
p50
(dp51
g10
I29
sg11
F0.5290968723552272
sg12
F128881029.4641
sg13
NsbasS'algorithm'
p52
S'SWAY5'
p53
sbsS'SWAY5_10000'
p54
(iGraphics.simplified_new
SolutionHolder
p55
(dp56
g4
g5
sg6
(lp57
(iGraphics.simplified_new
Scores
p58
(dp59
g10
I78
sg11
F0.41247164497087496
sg12
F141278214.563
sg13
Nsba(iGraphics.simplified_new
Scores
p60
(dp61
g10
I78
sg11
F0.4770969632003911
sg12
F135071182.156
sg13
Nsba(iGraphics.simplified_new
Scores
p62
(dp63
g10
I58
sg11
F0.4593060211316495
sg12
F127782839.3415
sg13
Nsba(iGraphics.simplified_new
Scores
p64
(dp65
g10
I68
sg11
F0.44830643401295484
sg12
F133000306.5878
sg13
Nsba(iGraphics.simplified_new
Scores
p66
(dp67
g10
I39
sg11
F0.48948387393917686
sg12
F133348398.7218
sg13
Nsba(iGraphics.simplified_new
Scores
p68
(dp69
g10
I44
sg11
F0.46561803522674994
sg12
F143645173.8387
sg13
Nsba(iGraphics.simplified_new
Scores
p70
(dp71
g10
I78
sg11
F0.5266397798857173
sg12
F133657199.186
sg13
Nsba(iGraphics.simplified_new
Scores
p72
(dp73
g10
I58
sg11
F0.4452253349529483
sg12
F142618363.961
sg13
Nsba(iGraphics.simplified_new
Scores
p74
(dp75
g10
I32
sg11
F0.5127450928921714
sg12
F128973416.8952
sg13
Nsba(iGraphics.simplified_new
Scores
p76
(dp77
g10
I34
sg11
F0.5624736740616796
sg12
F123610402.1719
sg13
Nsba(iGraphics.simplified_new
Scores
p78
(dp79
g10
I88
sg11
F0.504930222588443
sg12
F138114212.7153
sg13
Nsba(iGraphics.simplified_new
Scores
p80
(dp81
g10
I88
sg11
F0.43712937413256553
sg12
F138479118.7313
sg13
Nsba(iGraphics.simplified_new
Scores
p82
(dp83
g10
I78
sg11
F0.42727355159611147
sg12
F136450858.6744
sg13
Nsba(iGraphics.simplified_new
Scores
p84
(dp85
g10
I51
sg11
F0.46311675623658977
sg12
F130950839.5886
sg13
Nsba(iGraphics.simplified_new
Scores
p86
(dp87
g10
I58
sg11
F0.522655263104641
sg12
F135144766.0706
sg13
Nsba(iGraphics.simplified_new
Scores
p88
(dp89
g10
I27
sg11
F0.4035969585441966
sg12
F135153981.9008
sg13
Nsba(iGraphics.simplified_new
Scores
p90
(dp91
g10
I66
sg11
F0.4490889522397049
sg12
F135643559.5682
sg13
Nsba(iGraphics.simplified_new
Scores
p92
(dp93
g10
I51
sg11
F0.4801935550844442
sg12
F133975357.9043
sg13
Nsba(iGraphics.simplified_new
Scores
p94
(dp95
g10
I68
sg11
F0.4267568646804489
sg12
F136319633.9703
sg13
Nsba(iGraphics.simplified_new
Scores
p96
(dp97
g10
I78
sg11
F0.456620950933424
sg12
F139517953.011
sg13
Nsbasg52
S'SWAY5'
p98
sbsS'SWAY5_1225'
p99
(iGraphics.simplified_new
SolutionHolder
p100
(dp101
g4
g5
sg6
(lp102
(iGraphics.simplified_new
Scores
p103
(dp104
g10
I19
sg11
F0.6608330856475905
sg12
F131801578.6123
sg13
Nsba(iGraphics.simplified_new
Scores
p105
(dp106
g10
I29
sg11
F0.41514218495194377
sg12
F128701960.8657
sg13
Nsba(iGraphics.simplified_new
Scores
p107
(dp108
g10
I25
sg11
F0.4716710394776557
sg12
F136082664.6105
sg13
Nsba(iGraphics.simplified_new
Scores
p109
(dp110
g10
I29
sg11
F0.5879014591867048
sg12
F134317883.4426
sg13
Nsba(iGraphics.simplified_new
Scores
p111
(dp112
g10
I19
sg11
F0.6664101704065186
sg12
F125413058.6498
sg13
Nsba(iGraphics.simplified_new
Scores
p113
(dp114
g10
I19
sg11
F0.4936330836458447
sg12
F125069056.0527
sg13
Nsba(iGraphics.simplified_new
Scores
p115
(dp116
g10
I19
sg11
F0.4780198282886653
sg12
F134025083.4143
sg13
Nsba(iGraphics.simplified_new
Scores
p117
(dp118
g10
I19
sg11
F0.5419546977496869
sg12
F128606181.3332
sg13
Nsba(iGraphics.simplified_new
Scores
p119
(dp120
g10
I28
sg11
F0.5268219608251282
sg12
F122957337.0868
sg13
Nsba(iGraphics.simplified_new
Scores
p121
(dp122
g10
I19
sg11
F0.5479167277093169
sg12
F135988046.5536
sg13
Nsba(iGraphics.simplified_new
Scores
p123
(dp124
g10
I33
sg11
F0.5181822025874429
sg12
F132140644.4238
sg13
Nsba(iGraphics.simplified_new
Scores
p125
(dp126
g10
I19
sg11
F0.5182299142008369
sg12
F124897257.3763
sg13
Nsba(iGraphics.simplified_new
Scores
p127
(dp128
g10
I19
sg11
F0.67637099383228
sg12
F129202453.0267
sg13
Nsba(iGraphics.simplified_new
Scores
p129
(dp130
g10
I33
sg11
F0.5037308393496882
sg12
F139660968.291
sg13
Nsba(iGraphics.simplified_new
Scores
p131
(dp132
g10
I19
sg11
F0.5685397026707864
sg12
F121798851.4215
sg13
Nsba(iGraphics.simplified_new
Scores
p133
(dp134
g10
I19
sg11
F0.560777080913026
sg12
F129845667.769
sg13
Nsba(iGraphics.simplified_new
Scores
p135
(dp136
g10
I19
sg11
F0.4590281396449083
sg12
F116707306.9677
sg13
Nsba(iGraphics.simplified_new
Scores
p137
(dp138
g10
I19
sg11
F0.5441193589188403
sg12
F118885979.7721
sg13
Nsba(iGraphics.simplified_new
Scores
p139
(dp140
g10
I32
sg11
F0.4500601978352599
sg12
F126497361.8443
sg13
Nsba(iGraphics.simplified_new
Scores
p141
(dp142
g10
I19
sg11
F0.5952079997316115
sg12
F138859981.4892
sg13
Nsbasg52
S'SWAY5'
p143
sbsS'SWAY5_5000'
p144
(iGraphics.simplified_new
SolutionHolder
p145
(dp146
g4
g5
sg6
(lp147
(iGraphics.simplified_new
Scores
p148
(dp149
g10
I39
sg11
F0.5548310443423234
sg12
F125860288.3336
sg13
Nsba(iGraphics.simplified_new
Scores
p150
(dp151
g10
I59
sg11
F0.4474763743957192
sg12
F142639472.1038
sg13
Nsba(iGraphics.simplified_new
Scores
p152
(dp153
g10
I33
sg11
F0.376513584345541
sg12
F132963780.649
sg13
Nsba(iGraphics.simplified_new
Scores
p154
(dp155
g10
I36
sg11
F0.5493213091369082
sg12
F131543792.3318
sg13
Nsba(iGraphics.simplified_new
Scores
p156
(dp157
g10
I26
sg11
F0.42442167402582753
sg12
F132178363.6492
sg13
Nsba(iGraphics.simplified_new
Scores
p158
(dp159
g10
I18
sg11
F0.679833379661073
sg12
F124526851.5369
sg13
Nsba(iGraphics.simplified_new
Scores
p160
(dp161
g10
I19
sg11
F0.6122410251507788
sg12
F126907684.841
sg13
Nsba(iGraphics.simplified_new
Scores
p162
(dp163
g10
I39
sg11
F0.5388524663936256
sg12
F139969679.4161
sg13
Nsba(iGraphics.simplified_new
Scores
p164
(dp165
g10
I39
sg11
F0.33448597339865094
sg12
F131079060.5452
sg13
Nsba(iGraphics.simplified_new
Scores
p166
(dp167
g10
I56
sg11
F0.4814041209313995
sg12
F133518561.7065
sg13
Nsba(iGraphics.simplified_new
Scores
p168
(dp169
g10
I29
sg11
F0.483389685356401
sg12
F124592145.3102
sg13
Nsba(iGraphics.simplified_new
Scores
p170
(dp171
g10
I39
sg11
F0.5604097056056191
sg12
F132196567.959
sg13
Nsba(iGraphics.simplified_new
Scores
p172
(dp173
g10
I39
sg11
F0.4973853299297437
sg12
F136230027.5509
sg13
Nsba(iGraphics.simplified_new
Scores
p174
(dp175
g10
I39
sg11
F0.5093952541777456
sg12
F126728828.3678
sg13
Nsba(iGraphics.simplified_new
Scores
p176
(dp177
g10
I22
sg11
F0.4925557083925461
sg12
F123020971.8443
sg13
Nsba(iGraphics.simplified_new
Scores
p178
(dp179
g10
I29
sg11
F0.4845574684419544
sg12
F137351996.2373
sg13
Nsba(iGraphics.simplified_new
Scores
p180
(dp181
g10
I69
sg11
F0.4630606773171148
sg12
F133920689.6549
sg13
Nsba(iGraphics.simplified_new
Scores
p182
(dp183
g10
I19
sg11
F0.5107688486188237
sg12
F129727445.8165
sg13
Nsba(iGraphics.simplified_new
Scores
p184
(dp185
g10
I56
sg11
F0.47548055265511613
sg12
F134727642.3019
sg13
Nsba(iGraphics.simplified_new
Scores
p186
(dp187
g10
I60
sg11
F0.48376571535143875
sg12
F135138069.5107
sg13
Nsbasg52
S'SWAY5'
p188
sbs.