(dp0
S'SWAY5_2500'
p1
(iGraphics.simplified_new
SolutionHolder
p2
(dp3
S'problem'
p4
S'xomo_all'
p5
sS'repeats'
p6
(lp7
(iGraphics.simplified_new
Scores
p8
(dp9
S'pfs'
p10
I29
sS'spread'
p11
F0.5005091820889721
sS'hv'
p12
F119985637.6876
sS'igd'
p13
Nsba(iGraphics.simplified_new
Scores
p14
(dp15
g10
I29
sg11
F0.5211210589249781
sg12
F132815109.8593
sg13
Nsba(iGraphics.simplified_new
Scores
p16
(dp17
g10
I43
sg11
F0.582975576751563
sg12
F129512268.8906
sg13
Nsba(iGraphics.simplified_new
Scores
p18
(dp19
g10
I21
sg11
F0.4499668254759758
sg12
F133495544.6792
sg13
Nsba(iGraphics.simplified_new
Scores
p20
(dp21
g10
I28
sg11
F0.47896887149203654
sg12
F134503522.0589
sg13
Nsba(iGraphics.simplified_new
Scores
p22
(dp23
g10
I34
sg11
F0.5437439930247606
sg12
F133206705.5438
sg13
Nsba(iGraphics.simplified_new
Scores
p24
(dp25
g10
I34
sg11
F0.4728402114459174
sg12
F124729416.9876
sg13
Nsba(iGraphics.simplified_new
Scores
p26
(dp27
g10
I35
sg11
F0.5192378620227204
sg12
F138291899.6538
sg13
Nsba(iGraphics.simplified_new
Scores
p28
(dp29
g10
I38
sg11
F0.4431706758618624
sg12
F125414391.9912
sg13
Nsba(iGraphics.simplified_new
Scores
p30
(dp31
g10
I29
sg11
F0.35020785490761547
sg12
F130385454.3105
sg13
Nsba(iGraphics.simplified_new
Scores
p32
(dp33
g10
I25
sg11
F0.4933899818430382
sg12
F126579717.9474
sg13
Nsba(iGraphics.simplified_new
Scores
p34
(dp35
g10
I39
sg11
F0.38219017067060423
sg12
F132443105.7176
sg13
Nsba(iGraphics.simplified_new
Scores
p36
(dp37
g10
I29
sg11
F0.5106786557161738
sg12
F127188467.7334
sg13
Nsba(iGraphics.simplified_new
Scores
p38
(dp39
g10
I29
sg11
F0.5290883302066623
sg12
F123432647.6462
sg13
Nsba(iGraphics.simplified_new
Scores
p40
(dp41
g10
I29
sg11
F0.46930997951075687
sg12
F131663034.4549
sg13
Nsba(iGraphics.simplified_new
Scores
p42
(dp43
g10
I25
sg11
F0.4757578412847279
sg12
F123773092.4581
sg13
Nsba(iGraphics.simplified_new
Scores
p44
(dp45
g10
I29
sg11
F0.47542879960174744
sg12
F133735734.8023
sg13
Nsba(iGraphics.simplified_new
Scores
p46
(dp47
g10
I39
sg11
F0.5442129623407226
sg12
F127823440.2487
sg13
Nsba(iGraphics.simplified_new
Scores
p48
(dp49
g10
I33
sg11
F0.5897257566435872
sg12
F130602213.3705
sg13
Nsba(iGraphics.simplified_new
Scores
p50
(dp51
g10
I19
sg11
F0.4791752957917804
sg12
F141927611.1596
sg13
NsbasS'algorithm'
p52
S'SWAY5'
p53
sbsS'SWAY5_10000'
p54
(iGraphics.simplified_new
SolutionHolder
p55
(dp56
g4
g5
sg6
(lp57
(iGraphics.simplified_new
Scores
p58
(dp59
g10
I73
sg11
F0.45369196187382815
sg12
F129236594.1863
sg13
Nsba(iGraphics.simplified_new
Scores
p60
(dp61
g10
I31
sg11
F0.47164091336320696
sg12
F120921406.2749
sg13
Nsba(iGraphics.simplified_new
Scores
p62
(dp63
g10
I34
sg11
F0.614177628636591
sg12
F131939837.9939
sg13
Nsba(iGraphics.simplified_new
Scores
p64
(dp65
g10
I63
sg11
F0.4766786051370676
sg12
F137138828.6039
sg13
Nsba(iGraphics.simplified_new
Scores
p66
(dp67
g10
I58
sg11
F0.44517559288829606
sg12
F133697485.9153
sg13
Nsba(iGraphics.simplified_new
Scores
p68
(dp69
g10
I51
sg11
F0.48235512550142917
sg12
F139830854.8958
sg13
Nsba(iGraphics.simplified_new
Scores
p70
(dp71
g10
I31
sg11
F0.4163559952849676
sg12
F134958274.5857
sg13
Nsba(iGraphics.simplified_new
Scores
p72
(dp73
g10
I82
sg11
F0.45827394181354475
sg12
F137258791.5047
sg13
Nsba(iGraphics.simplified_new
Scores
p74
(dp75
g10
I39
sg11
F0.4915305120521122
sg12
F132879930.2817
sg13
Nsba(iGraphics.simplified_new
Scores
p76
(dp77
g10
I68
sg11
F0.3984611440022946
sg12
F136730535.749
sg13
Nsba(iGraphics.simplified_new
Scores
p78
(dp79
g10
I82
sg11
F0.396829981838046
sg12
F140407024.1056
sg13
Nsba(iGraphics.simplified_new
Scores
p80
(dp81
g10
I73
sg11
F0.4883651427452043
sg12
F133721129.8121
sg13
Nsba(iGraphics.simplified_new
Scores
p82
(dp83
g10
I96
sg11
F0.49063471973803
sg12
F135107644.3132
sg13
Nsba(iGraphics.simplified_new
Scores
p84
(dp85
g10
I88
sg11
F0.4966311394257866
sg12
F139456217.0128
sg13
Nsba(iGraphics.simplified_new
Scores
p86
(dp87
g10
I39
sg11
F0.5225816882992614
sg12
F134315522.9275
sg13
Nsba(iGraphics.simplified_new
Scores
p88
(dp89
g10
I59
sg11
F0.5607882476117038
sg12
F130534030.1366
sg13
Nsba(iGraphics.simplified_new
Scores
p90
(dp91
g10
I39
sg11
F0.5164148604205896
sg12
F127692122.7266
sg13
Nsba(iGraphics.simplified_new
Scores
p92
(dp93
g10
I78
sg11
F0.46016593334183087
sg12
F134479405.6687
sg13
Nsba(iGraphics.simplified_new
Scores
p94
(dp95
g10
I58
sg11
F0.46075509371745405
sg12
F136634103.1589
sg13
Nsba(iGraphics.simplified_new
Scores
p96
(dp97
g10
I78
sg11
F0.4448534419466597
sg12
F137748775.1449
sg13
Nsbasg52
S'SWAY5'
p98
sbsS'SWAY5_1225'
p99
(iGraphics.simplified_new
SolutionHolder
p100
(dp101
g4
g5
sg6
(lp102
(iGraphics.simplified_new
Scores
p103
(dp104
g10
I19
sg11
F0.5542671171984105
sg12
F134436848.6783
sg13
Nsba(iGraphics.simplified_new
Scores
p105
(dp106
g10
I19
sg11
F0.5609274110194312
sg12
F123829919.7191
sg13
Nsba(iGraphics.simplified_new
Scores
p107
(dp108
g10
I27
sg11
F0.7393314838349905
sg12
F122720221.73
sg13
Nsba(iGraphics.simplified_new
Scores
p109
(dp110
g10
I33
sg11
F0.5240241765628606
sg12
F123208966.4722
sg13
Nsba(iGraphics.simplified_new
Scores
p111
(dp112
g10
I33
sg11
F0.5015220982308661
sg12
F126601761.486
sg13
Nsba(iGraphics.simplified_new
Scores
p113
(dp114
g10
I29
sg11
F0.4627397179899178
sg12
F134448598.8472
sg13
Nsba(iGraphics.simplified_new
Scores
p115
(dp116
g10
I32
sg11
F0.5224566539718755
sg12
F134413848.4288
sg13
Nsba(iGraphics.simplified_new
Scores
p117
(dp118
g10
I22
sg11
F0.4652612807750332
sg12
F126373395.8991
sg13
Nsba(iGraphics.simplified_new
Scores
p119
(dp120
g10
I25
sg11
F0.5053309308026182
sg12
F130445750.4314
sg13
Nsba(iGraphics.simplified_new
Scores
p121
(dp122
g10
I21
sg11
F0.39235549282785587
sg12
F120119670.9852
sg13
Nsba(iGraphics.simplified_new
Scores
p123
(dp124
g10
I19
sg11
F0.5622060304088546
sg12
F127161571.7021
sg13
Nsba(iGraphics.simplified_new
Scores
p125
(dp126
g10
I19
sg11
F0.40345289277217233
sg12
F117122372.5002
sg13
Nsba(iGraphics.simplified_new
Scores
p127
(dp128
g10
I24
sg11
F0.46150181665499806
sg12
F121530574.8993
sg13
Nsba(iGraphics.simplified_new
Scores
p129
(dp130
g10
I28
sg11
F0.47065277677655176
sg12
F141817044.6541
sg13
Nsba(iGraphics.simplified_new
Scores
p131
(dp132
g10
I27
sg11
F0.5572547566959378
sg12
F130982263.7612
sg13
Nsba(iGraphics.simplified_new
Scores
p133
(dp134
g10
I33
sg11
F0.3928998929948975
sg12
F120045821.2459
sg13
Nsba(iGraphics.simplified_new
Scores
p135
(dp136
g10
I28
sg11
F0.5252263270289766
sg12
F122723147.3875
sg13
Nsba(iGraphics.simplified_new
Scores
p137
(dp138
g10
I19
sg11
F0.5444112864244315
sg12
F139820623.4614
sg13
Nsba(iGraphics.simplified_new
Scores
p139
(dp140
g10
I19
sg11
F0.5724266732934401
sg12
F128834031.1988
sg13
Nsba(iGraphics.simplified_new
Scores
p141
(dp142
g10
I19
sg11
F0.4688043542863126
sg12
F124721545.954
sg13
Nsbasg52
S'SWAY5'
p143
sbsS'SWAY5_5000'
p144
(iGraphics.simplified_new
SolutionHolder
p145
(dp146
g4
g5
sg6
(lp147
(iGraphics.simplified_new
Scores
p148
(dp149
g10
I39
sg11
F0.5148442350599173
sg12
F128751823.1782
sg13
Nsba(iGraphics.simplified_new
Scores
p150
(dp151
g10
I39
sg11
F0.45526308754696354
sg12
F128149460.955
sg13
Nsba(iGraphics.simplified_new
Scores
p152
(dp153
g10
I39
sg11
F0.4692087673518881
sg12
F135807734.9717
sg13
Nsba(iGraphics.simplified_new
Scores
p154
(dp155
g10
I39
sg11
F0.4094968917099616
sg12
F132535309.2212
sg13
Nsba(iGraphics.simplified_new
Scores
p156
(dp157
g10
I38
sg11
F0.5511039527424445
sg12
F134943076.5157
sg13
Nsba(iGraphics.simplified_new
Scores
p158
(dp159
g10
I39
sg11
F0.4234427678161985
sg12
F122138314.0621
sg13
Nsba(iGraphics.simplified_new
Scores
p160
(dp161
g10
I44
sg11
F0.4637219671254734
sg12
F135400144.598
sg13
Nsba(iGraphics.simplified_new
Scores
p162
(dp163
g10
I67
sg11
F0.47679426226519533
sg12
F131351080.5683
sg13
Nsba(iGraphics.simplified_new
Scores
p164
(dp165
g10
I44
sg11
F0.5482843577474965
sg12
F132979261.5907
sg13
Nsba(iGraphics.simplified_new
Scores
p166
(dp167
g10
I59
sg11
F0.4551375585668344
sg12
F135842267.3793
sg13
Nsba(iGraphics.simplified_new
Scores
p168
(dp169
g10
I65
sg11
F0.47180165090830295
sg12
F126360098.4974
sg13
Nsba(iGraphics.simplified_new
Scores
p170
(dp171
g10
I39
sg11
F0.49047803192469214
sg12
F127211422.0154
sg13
Nsba(iGraphics.simplified_new
Scores
p172
(dp173
g10
I44
sg11
F0.5482111452352191
sg12
F131637304.0964
sg13
Nsba(iGraphics.simplified_new
Scores
p174
(dp175
g10
I58
sg11
F0.39594152691198886
sg12
F134905341.1135
sg13
Nsba(iGraphics.simplified_new
Scores
p176
(dp177
g10
I67
sg11
F0.46054206296181066
sg12
F132813235.2089
sg13
Nsba(iGraphics.simplified_new
Scores
p178
(dp179
g10
I68
sg11
F0.47641833390419536
sg12
F129389341.8322
sg13
Nsba(iGraphics.simplified_new
Scores
p180
(dp181
g10
I39
sg11
F0.5718906787556678
sg12
F136546572.0775
sg13
Nsba(iGraphics.simplified_new
Scores
p182
(dp183
g10
I52
sg11
F0.45974484173794444
sg12
F133240424.1552
sg13
Nsba(iGraphics.simplified_new
Scores
p184
(dp185
g10
I60
sg11
F0.4632440028855502
sg12
F129869387.4146
sg13
Nsba(iGraphics.simplified_new
Scores
p186
(dp187
g10
I51
sg11
F0.46143483344413827
sg12
F132978500.1817
sg13
Nsbasg52
S'SWAY5'
p188
sbs.