(dp0
S'xomo_osp'
p1
(dp2
S'Spread'
p3
(lp4
(lp5
S'SPEA2_100'
p6
aF0.6791291452350346
aF0.7543408113734895
aF0.7839457300766279
aF0.7451407562297637
aF0.7695584273967776
aF0.7780043279547304
aF0.7487165470424412
aF0.7112437181318162
aF0.6557787935527776
aF0.6932681146020573
aF0.7868201205600429
aF0.6780862462467843
aF0.6470268159153582
aF0.7156278356485832
aF0.6834201088539865
aF0.7021374201550432
aF0.774882800302283
aF0.7012633382493717
aF0.739858592953232
aF0.7395805486724816
aa(lp7
S'SWAY5_1225'
p8
aF0.5520945000199505
aF0.4758936296036452
aF0.41054186478332483
aF0.5303308295506353
aF0.3996661485226431
aF0.5330400756846099
aF0.5461311499846827
aF0.4486797191913704
aF0.47561534461011135
aF0.5408156653692814
aF0.5891246348415642
aF0.39997796853277656
aF0.5513085550980619
aF0.4101022800339711
aF0.5316841613839673
aF0.4840633807931413
aF0.4786741561329837
aF0.4388966334371653
aF0.6636730527595317
aF0.5798988153509984
aa(lp9
S'SWAY5_5000'
p10
aF0.5110355745898759
aF0.41124071648405863
aF0.4108940604700512
aF0.4288948896937449
aF0.3963073957099726
aF0.5566024869198049
aF0.4807601208327912
aF0.6023626828116055
aF0.4913566596502043
aF0.4759905982522026
aF0.5157787235599756
aF0.46351641042561825
aF0.32238086903391633
aF0.527467849675752
aF0.4458990442841828
aF0.447302652749493
aF0.4487518165099152
aF0.462693791626053
aF0.48287504682000715
aF0.46722685910825673
aa(lp11
S'SWAY5_2500'
p12
aF0.4535707521551823
aF0.4316529317901363
aF0.4682186549605109
aF0.5164991212339841
aF0.4636564372207178
aF0.5451162850829069
aF0.4321621923555021
aF0.33549351701991686
aF0.5357339759512056
aF0.5216605913826516
aF0.49090076083238376
aF0.5896388065548673
aF0.45767048136024013
aF0.4350409693283865
aF0.42678914170455023
aF0.5140282053901712
aF0.4124972264800079
aF0.4116295376127264
aF0.5292306295796521
aF0.5043005980365485
aa(lp13
S'SWAY5_10000'
p14
aF0.4310753310053103
aF0.45605522254906367
aF0.45492462306274883
aF0.5201054673684865
aF0.44685099780571197
aF0.4802714673473587
aF0.5207152264151392
aF0.5635574893964538
aF0.436070952493525
aF0.4401896012405852
aF0.49012715482065344
aF0.5264349344333297
aF0.4640844434148698
aF0.46996842262180405
aF0.4995340293871723
aF0.4557538439846892
aF0.37713878986834887
aF0.46656604692081
aF0.42939054399042825
aF0.4727118049494275
aa(lp15
S'NSGAII_100'
p16
aF0.7449765765278396
aF0.7403388985778806
aF0.7826785474749487
aF0.7060842465493944
aF0.7380836036843677
aF0.7761616300550483
aF0.6786533075866958
aF0.7023485214653038
aF0.7596295980576254
aF0.6705589907849944
aF0.6641825733778741
aF0.7673368220150297
aF0.7783794640204272
aF0.6862901607692846
aF0.7502034519380243
aF0.7370238002254714
aF0.721044384828278
aF0.7479114164779446
aF0.6399840347317163
aF0.676577877675047
aasS'HV'
p17
(lp18
(lp19
S'SPEA2_100'
p20
aF140320405.809
aF140657394.3052
aF140991040.2712
aF144135820.4907
aF141172237.9542
aF142660493.187
aF141845772.4961
aF142848180.177
aF142400798.9891
aF144138774.3606
aF141683490.7366
aF142250560.7166
aF140823784.9892
aF143610321.7906
aF141874998.6998
aF142604487.2362
aF143372229.2915
aF141718225.2751
aF141319166.0254
aF141204593.3355
aa(lp21
S'SWAY5_1225'
p22
aF129713096.3257
aF125898619.662
aF130803703.7515
aF126173867.5716
aF128206867.698
aF126362828.1545
aF114335211.9579
aF136065621.3753
aF129711732.0548
aF132750475.4825
aF123073945.8181
aF120892771.8011
aF119140757.8042
aF110932193.3914
aF116007435.3425
aF120159560.3367
aF129816630.9265
aF132617530.8008
aF123725006.5427
aF116344823.2035
aa(lp23
S'SWAY5_5000'
p24
aF117643267.9692
aF128506645.1604
aF134017598.9322
aF125979075.9599
aF128567671.9864
aF128889585.3495
aF133141133.528
aF136155065.7872
aF133140999.5486
aF121978818.3691
aF128349243.2915
aF136062901.7592
aF130073420.3841
aF129763667.8008
aF130203630.9731
aF129133575.378
aF122067552.2993
aF126177478.9123
aF122678873.552
aF126560873.2203
aa(lp25
S'SWAY5_2500'
p26
aF124509396.4612
aF130214029.4591
aF125559684.6099
aF128754416.4846
aF132845013.1324
aF124814170.4368
aF130352721.5734
aF133984062.7889
aF124439697.4956
aF134344045.9304
aF127948483.5921
aF130657328.8902
aF128020040.3691
aF122057979.8136
aF133309440.5504
aF117665303.2591
aF134063796.6502
aF127197320.0412
aF130342175.2047
aF135948026.9182
aa(lp27
S'SWAY5_10000'
p28
aF134070113.9292
aF139236380.1094
aF128144150.3031
aF130295380.3016
aF139058900.3674
aF140041450.9684
aF134491634.1794
aF118901882.408
aF128066183.9363
aF128912802.9187
aF135754274.0735
aF128420640.9492
aF130463245.6577
aF133410703.0316
aF129579707.3683
aF132336148.6152
aF138675165.5286
aF135469309.4818
aF135954831.8963
aF137481111.8032
aa(lp29
S'NSGAII_100'
p30
aF141809356.0769
aF142246385.6856
aF140086124.8876
aF141254484.7003
aF142224710.5625
aF142931842.1717
aF142862425.1306
aF141176537.9415
aF144748355.4543
aF142074553.4652
aF140486660.3453
aF142939255.5867
aF143647522.8789
aF139852738.3737
aF141496808.4826
aF145236368.5273
aF141379590.7656
aF142895583.8991
aF144572199.1952
aF141774978.4828
aass.