(dp0
S'xomo_ground(L)'
p1
(dp2
S'Spread'
p3
(lp4
(lp5
S'NSGAII_100'
p6
aF0.6670892652512904
aF0.699496439907215
aF0.7804032866537607
aF0.6838383868629516
aF0.7192200353581379
aF0.6804695603033418
aF0.749223830474811
aF0.7778673579122733
aF0.6555102111065505
aF0.7641683193588449
aF0.6726140327809994
aF0.667188979815143
aF0.6717979810371447
aF0.7900551398391119
aF0.6218005129606174
aF0.6455839073103006
aF0.7838606300356562
aF0.7193365923918498
aF0.7529295944447822
aF0.7633156587527419
aF0.6962709891970593
aa(lp7
S'SWAY5_10000'
p8
aF0.5030164087249409
aF0.4354063238941685
aF0.444896152814355
aF0.48108933348817756
aF0.44469380235541167
aF0.48212840910095583
aF0.4407821123084111
aF0.48249003049435096
aF0.4748637102402588
aF0.45962354548593026
aF0.4752846829935464
aF0.47393912053468484
aF0.47441148566488517
aF0.43082998777638193
aF0.5098045125787266
aF0.46744554859607246
aF0.48699635201944985
aF0.4107689985329308
aF0.41386438600388864
aF0.4033534468044289
aF0.4486262622164759
aa(lp9
S'SPEA2_100'
p10
aF0.7276555149676712
aF0.789258137183555
aF0.7327644682752321
aF0.6960801872809844
aF0.7012226598827946
aF0.7078572423236377
aF0.7198891212523171
aF0.6868226910827269
aF0.5743827099747383
aF0.6681844114555506
aF0.7592177804537473
aF0.7050867621282144
aF0.6465233816618312
aF0.6612624509913183
aF0.6439841699798953
aF0.706134802840427
aF0.709470552112634
aF0.7061098154615889
aF0.6758590430482506
aF0.7056456598351836
aF0.6741303966547646
aasS'HV'
p11
(lp12
(lp13
S'NSGAII_100'
p14
aF143159359.1472
aF142008814.1383
aF140925723.8021
aF144078917.1684
aF142765308.7521
aF141950629.1647
aF143212192.8333
aF142755422.6969
aF141161494.0287
aF142075217.0629
aF141747609.3418
aF142789285.7328
aF143141928.8338
aF141040903.6778
aF141989028.3593
aF142293892.1848
aF141042205.8239
aF142795056.6393
aF142989374.3025
aF143457472.9233
aF143764303.6694
aa(lp15
S'SWAY5_10000'
p16
aF134305546.2708
aF136087427.9091
aF118042338.8011
aF134360172.3682
aF129694504.8452
aF129670534.1373
aF134775026.9904
aF130811606.891
aF134990115.7863
aF133097882.4989
aF135503287.4152
aF131467131.2121
aF138719588.0214
aF129084175.3357
aF136706344.5898
aF133501459.1112
aF128368665.9372
aF129220905.8998
aF128465456.7904
aF139055149.7613
aF129442958.9564
aa(lp17
S'SPEA2_100'
p18
aF142691149.9788
aF140990339.1366
aF142831602.1697
aF141179902.3437
aF142763775.7013
aF142233184.7591
aF143353700.4635
aF140871419.7525
aF140181850.6949
aF143376570.1256
aF144818878.1563
aF141301435.753
aF141768276.9441
aF144353253.0575
aF144788565.2427
aF143105899.5766
aF143744972.2544
aF142893344.5729
aF141849077.9154
aF144845415.2227
aF144182006.5415
aass.