(dp0
S'xomo_all(L)'
p1
(dp2
S'Spread'
p3
(lp4
(lp5
S'NSGAII_100'
p6
aF0.8052557775559874
aF0.675272430574442
aF0.8143350612740019
aF0.6803561676808217
aF0.7693412370929622
aF0.7068311519431751
aF0.7409281947554948
aF0.7391553575676985
aF0.6498671786691306
aF0.6935886627529845
aF0.677623759112417
aF0.7209257242214044
aF0.7908565377622062
aF0.664792205655287
aF0.714109942514632
aF0.7756031970178376
aF0.738909331280063
aF0.650052892834182
aF0.823406459269307
aF0.697270540456742
aF0.6298809483253127
aa(lp7
S'SPEA2_100'
p8
aF0.7108880059392162
aF0.6784814028159232
aF0.73706031554967
aF0.6167980778414266
aF0.6984563380445437
aF0.632978155468044
aF0.6336901324457803
aF0.7116239856903671
aF0.7106001900211015
aF0.756533006363629
aF0.7044875753358847
aF0.7615251941984363
aF0.6992170655974131
aF0.7114846124668418
aF0.6963569165679591
aF0.6410896717765544
aF0.7479354865927068
aF0.7318011831876114
aF0.6875278963861915
aF0.7139962591273015
aF0.6783245387297454
aa(lp9
S'SWAY5_10000'
p10
aF0.5234671058589618
aF0.4802744339374029
aF0.44334185679553717
aF0.5046466806535277
aF0.5305534947122055
aF0.5001778148128524
aF0.4838685589309061
aF0.44395783377463566
aF0.5018573557648769
aF0.438779946514324
aF0.43750869786397184
aF0.45063368396097025
aF0.4549550028507865
aF0.42260973722560646
aF0.5011453758114287
aF0.48947316210578423
aF0.4121585816985238
aF0.4530985294712186
aF0.5170523396916324
aF0.4855490308186274
aF0.6033379250868016
aasS'HV'
p11
(lp12
(lp13
S'NSGAII_100'
p14
aF143741825.1971
aF145228474.9284
aF141267686.2245
aF143858630.0088
aF142979931.782
aF143128060.3087
aF143511740.04
aF141130268.4843
aF140399585.1778
aF146399135.6404
aF144825961.6431
aF143283934.0205
aF144052301.8345
aF142258105.5679
aF142802150.8434
aF142036940.9526
aF140294069.916
aF139931072.3336
aF143685755.1873
aF144789421.5028
aF141134957.9544
aa(lp15
S'SPEA2_100'
p16
aF143591506.5355
aF141336238.2679
aF143791241.0309
aF144774053.6597
aF143468252.0609
aF143685133.6071
aF143509492.2812
aF143734652.2526
aF141438686.0583
aF145722511.9616
aF141917165.0896
aF142950441.1568
aF143747473.3906
aF143400623.546
aF141673186.0312
aF142871310.4469
aF143337357.7726
aF141887562.7319
aF145360602.2793
aF144090340.3236
aF143443005.5155
aa(lp17
S'SWAY5_10000'
p18
aF135450790.3477
aF133984992.5714
aF136150293.9053
aF134563660.4276
aF135446315.5695
aF122656341.4966
aF132833674.6014
aF135923373.0313
aF126893934.0764
aF132274050.2642
aF134261571.6559
aF136045926.7171
aF131596685.4814
aF122898723.4331
aF136225971.3193
aF124968191.3124
aF135506170.244
aF127498141.4695
aF126224697.3513
aF128248400.6913
aF124124017.3231
aass.