(dp0
S'SPEA2_100'
p1
(iGraphics.simplified_new
SolutionHolder
p2
(dp3
S'problem'
p4
S'xomo_ground'
p5
sS'repeats'
p6
(lp7
(iGraphics.simplified_new
Scores
p8
(dp9
S'pfs'
p10
I100
sS'spread'
p11
F0.6883807436029417
sS'hv'
p12
F143337801.722
sS'igd'
p13
Nsba(iGraphics.simplified_new
Scores
p14
(dp15
g10
I100
sg11
F0.7966355238431214
sg12
F142756126.5741
sg13
Nsba(iGraphics.simplified_new
Scores
p16
(dp17
g10
I100
sg11
F0.6796746425685802
sg12
F144391658.9253
sg13
Nsba(iGraphics.simplified_new
Scores
p18
(dp19
g10
I100
sg11
F0.7103838295163569
sg12
F144733088.2726
sg13
Nsba(iGraphics.simplified_new
Scores
p20
(dp21
g10
I100
sg11
F0.7393386667577543
sg12
F143501563.6393
sg13
Nsba(iGraphics.simplified_new
Scores
p22
(dp23
g10
I100
sg11
F0.7398296153725508
sg12
F142955249.8243
sg13
Nsba(iGraphics.simplified_new
Scores
p24
(dp25
g10
I100
sg11
F0.6422017004752907
sg12
F141822764.1987
sg13
Nsba(iGraphics.simplified_new
Scores
p26
(dp27
g10
I100
sg11
F0.6955327393862867
sg12
F144721098.6784
sg13
Nsba(iGraphics.simplified_new
Scores
p28
(dp29
g10
I100
sg11
F0.6747338193497376
sg12
F143058853.381
sg13
Nsba(iGraphics.simplified_new
Scores
p30
(dp31
g10
I100
sg11
F0.6659985467026376
sg12
F144593222.48
sg13
Nsba(iGraphics.simplified_new
Scores
p32
(dp33
g10
I100
sg11
F0.7806263493868086
sg12
F145029770.6335
sg13
Nsba(iGraphics.simplified_new
Scores
p34
(dp35
g10
I100
sg11
F0.7170542928304898
sg12
F145502451.9513
sg13
Nsba(iGraphics.simplified_new
Scores
p36
(dp37
g10
I100
sg11
F0.7377990351277335
sg12
F143845842.9745
sg13
Nsba(iGraphics.simplified_new
Scores
p38
(dp39
g10
I100
sg11
F0.7190022066479925
sg12
F142770544.0604
sg13
Nsba(iGraphics.simplified_new
Scores
p40
(dp41
g10
I100
sg11
F0.6654837530262179
sg12
F143283900.2599
sg13
Nsba(iGraphics.simplified_new
Scores
p42
(dp43
g10
I100
sg11
F0.7067544861938029
sg12
F144603611.9165
sg13
Nsba(iGraphics.simplified_new
Scores
p44
(dp45
g10
I100
sg11
F0.6687794334755026
sg12
F143628782.6625
sg13
Nsba(iGraphics.simplified_new
Scores
p46
(dp47
g10
I100
sg11
F0.669263222062478
sg12
F143051620.819
sg13
Nsba(iGraphics.simplified_new
Scores
p48
(dp49
g10
I100
sg11
F0.7112697098010103
sg12
F142509074.8735
sg13
Nsba(iGraphics.simplified_new
Scores
p50
(dp51
g10
I100
sg11
F0.7578233564550036
sg12
F140913344.8961
sg13
NsbasS'algorithm'
p52
S'SPEA2'
p53
sbsS'SWAY5_1225'
p54
(iGraphics.simplified_new
SolutionHolder
p55
(dp56
g4
g5
sg6
(lp57
(iGraphics.simplified_new
Scores
p58
(dp59
g10
I22
sg11
F0.5366429362561349
sg12
F132468347.7785
sg13
Nsba(iGraphics.simplified_new
Scores
p60
(dp61
g10
I19
sg11
F0.5268507150063054
sg12
F129314888.7064
sg13
Nsba(iGraphics.simplified_new
Scores
p62
(dp63
g10
I27
sg11
F0.5696292810810891
sg12
F126106374.0288
sg13
Nsba(iGraphics.simplified_new
Scores
p64
(dp65
g10
I29
sg11
F0.4984843709549955
sg12
F131115427.8428
sg13
Nsba(iGraphics.simplified_new
Scores
p66
(dp67
g10
I21
sg11
F0.557188836826865
sg12
F117028423.4943
sg13
Nsba(iGraphics.simplified_new
Scores
p68
(dp69
g10
I19
sg11
F0.6195167207858162
sg12
F115047561.2874
sg13
Nsba(iGraphics.simplified_new
Scores
p70
(dp71
g10
I27
sg11
F0.5130206960562804
sg12
F136002614.2702
sg13
Nsba(iGraphics.simplified_new
Scores
p72
(dp73
g10
I18
sg11
F0.5922415815245076
sg12
F120441420.1028
sg13
Nsba(iGraphics.simplified_new
Scores
p74
(dp75
g10
I22
sg11
F0.3826750613880123
sg12
F134584459.4074
sg13
Nsba(iGraphics.simplified_new
Scores
p76
(dp77
g10
I34
sg11
F0.33528021079906195
sg12
F136272954.8485
sg13
Nsba(iGraphics.simplified_new
Scores
p78
(dp79
g10
I30
sg11
F0.5794718200445327
sg12
F120971886.4674
sg13
Nsba(iGraphics.simplified_new
Scores
p80
(dp81
g10
I19
sg11
F0.6462919599324196
sg12
F118648114.807
sg13
Nsba(iGraphics.simplified_new
Scores
p82
(dp83
g10
I18
sg11
F0.51068589635996
sg12
F117877621.7962
sg13
Nsba(iGraphics.simplified_new
Scores
p84
(dp85
g10
I19
sg11
F0.4907950059878556
sg12
F109144412.4957
sg13
Nsba(iGraphics.simplified_new
Scores
p86
(dp87
g10
I19
sg11
F0.5357684656351261
sg12
F129996623.2897
sg13
Nsba(iGraphics.simplified_new
Scores
p88
(dp89
g10
I34
sg11
F0.4742000759351142
sg12
F130479946.215
sg13
Nsba(iGraphics.simplified_new
Scores
p90
(dp91
g10
I29
sg11
F0.4754610782409643
sg12
F125154870.5338
sg13
Nsba(iGraphics.simplified_new
Scores
p92
(dp93
g10
I33
sg11
F0.48703037274435784
sg12
F132708696.186
sg13
Nsba(iGraphics.simplified_new
Scores
p94
(dp95
g10
I28
sg11
F0.43235905363842375
sg12
F128624873.5243
sg13
Nsba(iGraphics.simplified_new
Scores
p96
(dp97
g10
I29
sg11
F0.4484495448870198
sg12
F123360290.0701
sg13
Nsbasg52
S'SWAY5'
p98
sbsS'SWAY5_5000'
p99
(iGraphics.simplified_new
SolutionHolder
p100
(dp101
g4
g5
sg6
(lp102
(iGraphics.simplified_new
Scores
p103
(dp104
g10
I19
sg11
F0.4909012712237533
sg12
F130426670.6361
sg13
Nsba(iGraphics.simplified_new
Scores
p105
(dp106
g10
I59
sg11
F0.4479910602542109
sg12
F137385070.5888
sg13
Nsba(iGraphics.simplified_new
Scores
p107
(dp108
g10
I68
sg11
F0.4975010981402755
sg12
F126929343.2996
sg13
Nsba(iGraphics.simplified_new
Scores
p109
(dp110
g10
I39
sg11
F0.46655942457378113
sg12
F134997811.0655
sg13
Nsba(iGraphics.simplified_new
Scores
p111
(dp112
g10
I58
sg11
F0.4628544733371402
sg12
F140627821.146
sg13
Nsba(iGraphics.simplified_new
Scores
p113
(dp114
g10
I39
sg11
F0.4804866809910001
sg12
F134829707.6859
sg13
Nsba(iGraphics.simplified_new
Scores
p115
(dp116
g10
I68
sg11
F0.5098545846910514
sg12
F134410063.5043
sg13
Nsba(iGraphics.simplified_new
Scores
p117
(dp118
g10
I39
sg11
F0.4029914843408547
sg12
F132960493.8749
sg13
Nsba(iGraphics.simplified_new
Scores
p119
(dp120
g10
I19
sg11
F0.45546051385279185
sg12
F137624292.556
sg13
Nsba(iGraphics.simplified_new
Scores
p121
(dp122
g10
I57
sg11
F0.45737011416476925
sg12
F125535034.3192
sg13
Nsba(iGraphics.simplified_new
Scores
p123
(dp124
g10
I34
sg11
F0.39964944105947703
sg12
F129649164.8128
sg13
Nsba(iGraphics.simplified_new
Scores
p125
(dp126
g10
I34
sg11
F0.48382922238578147
sg12
F127861486.68
sg13
Nsba(iGraphics.simplified_new
Scores
p127
(dp128
g10
I59
sg11
F0.49862580353346037
sg12
F131375580.0705
sg13
Nsba(iGraphics.simplified_new
Scores
p129
(dp130
g10
I39
sg11
F0.4054305591460228
sg12
F125944252.5795
sg13
Nsba(iGraphics.simplified_new
Scores
p131
(dp132
g10
I39
sg11
F0.3808187646451555
sg12
F135494865.2828
sg13
Nsba(iGraphics.simplified_new
Scores
p133
(dp134
g10
I34
sg11
F0.46725939012467177
sg12
F131205850.4553
sg13
Nsba(iGraphics.simplified_new
Scores
p135
(dp136
g10
I57
sg11
F0.4179268782927125
sg12
F131435289.1298
sg13
Nsba(iGraphics.simplified_new
Scores
p137
(dp138
g10
I27
sg11
F0.42027571251117934
sg12
F128090211.5263
sg13
Nsba(iGraphics.simplified_new
Scores
p139
(dp140
g10
I58
sg11
F0.5616491423964267
sg12
F136690739.5666
sg13
Nsba(iGraphics.simplified_new
Scores
p141
(dp142
g10
I37
sg11
F0.40721747742498937
sg12
F129100393.1129
sg13
Nsbasg52
S'SWAY5'
p143
sbsS'SWAY5_2500'
p144
(iGraphics.simplified_new
SolutionHolder
p145
(dp146
g4
g5
sg6
(lp147
(iGraphics.simplified_new
Scores
p148
(dp149
g10
I29
sg11
F0.35091717184844096
sg12
F134449266.154
sg13
Nsba(iGraphics.simplified_new
Scores
p150
(dp151
g10
I34
sg11
F0.5986574613606349
sg12
F125728748.6539
sg13
Nsba(iGraphics.simplified_new
Scores
p152
(dp153
g10
I19
sg11
F0.678672919170189
sg12
F114493994.7199
sg13
Nsba(iGraphics.simplified_new
Scores
p154
(dp155
g10
I18
sg11
F0.43054799824576956
sg12
F128243201.7805
sg13
Nsba(iGraphics.simplified_new
Scores
p156
(dp157
g10
I39
sg11
F0.5205766469292123
sg12
F134164101.596
sg13
Nsba(iGraphics.simplified_new
Scores
p158
(dp159
g10
I25
sg11
F0.43878295631379144
sg12
F118935628.0059
sg13
Nsba(iGraphics.simplified_new
Scores
p160
(dp161
g10
I29
sg11
F0.4882072244885109
sg12
F132847427.7195
sg13
Nsba(iGraphics.simplified_new
Scores
p162
(dp163
g10
I39
sg11
F0.5287677949886758
sg12
F126478465.2019
sg13
Nsba(iGraphics.simplified_new
Scores
p164
(dp165
g10
I29
sg11
F0.4179525587235653
sg12
F128957970.9312
sg13
Nsba(iGraphics.simplified_new
Scores
p166
(dp167
g10
I39
sg11
F0.452334979322506
sg12
F133918807.8714
sg13
Nsba(iGraphics.simplified_new
Scores
p168
(dp169
g10
I22
sg11
F0.43980131502787007
sg12
F125887241.7096
sg13
Nsba(iGraphics.simplified_new
Scores
p170
(dp171
g10
I31
sg11
F0.41160377933118897
sg12
F135874440.2296
sg13
Nsba(iGraphics.simplified_new
Scores
p172
(dp173
g10
I29
sg11
F0.5921892241896817
sg12
F129099799.5177
sg13
Nsba(iGraphics.simplified_new
Scores
p174
(dp175
g10
I29
sg11
F0.508314939139812
sg12
F137046191.7523
sg13
Nsba(iGraphics.simplified_new
Scores
p176
(dp177
g10
I39
sg11
F0.5210727741419832
sg12
F123447090.6483
sg13
Nsba(iGraphics.simplified_new
Scores
p178
(dp179
g10
I39
sg11
F0.48773036096686123
sg12
F127040362.6346
sg13
Nsba(iGraphics.simplified_new
Scores
p180
(dp181
g10
I29
sg11
F0.488546228035972
sg12
F126447981.2393
sg13
Nsba(iGraphics.simplified_new
Scores
p182
(dp183
g10
I39
sg11
F0.5284598063850967
sg12
F133678537.3227
sg13
Nsba(iGraphics.simplified_new
Scores
p184
(dp185
g10
I39
sg11
F0.47393876790436773
sg12
F128034591.8249
sg13
Nsba(iGraphics.simplified_new
Scores
p186
(dp187
g10
I39
sg11
F0.4638980343464335
sg12
F133277125.8497
sg13
Nsbasg52
S'SWAY5'
p188
sbsS'SWAY5_10000'
p189
(iGraphics.simplified_new
SolutionHolder
p190
(dp191
g4
g5
sg6
(lp192
(iGraphics.simplified_new
Scores
p193
(dp194
g10
I78
sg11
F0.4525710884111107
sg12
F133113478.4769
sg13
Nsba(iGraphics.simplified_new
Scores
p195
(dp196
g10
I59
sg11
F0.43025469473535227
sg12
F138711925.3873
sg13
Nsba(iGraphics.simplified_new
Scores
p197
(dp198
g10
I77
sg11
F0.4453037546551257
sg12
F133695308.7601
sg13
Nsba(iGraphics.simplified_new
Scores
p199
(dp200
g10
I68
sg11
F0.41591399800987555
sg12
F134395991.5795
sg13
Nsba(iGraphics.simplified_new
Scores
p201
(dp202
g10
I90
sg11
F0.392183238459854
sg12
F134984082.1571
sg13
Nsba(iGraphics.simplified_new
Scores
p203
(dp204
g10
I87
sg11
F0.4868148692728242
sg12
F130382334.2377
sg13
Nsba(iGraphics.simplified_new
Scores
p205
(dp206
g10
I78
sg11
F0.45921170045551996
sg12
F136915300.6644
sg13
Nsba(iGraphics.simplified_new
Scores
p207
(dp208
g10
I88
sg11
F0.40615706356934805
sg12
F136560409.6026
sg13
Nsba(iGraphics.simplified_new
Scores
p209
(dp210
g10
I78
sg11
F0.5276304885029263
sg12
F139072988.0436
sg13
Nsba(iGraphics.simplified_new
Scores
p211
(dp212
g10
I44
sg11
F0.4906353219998264
sg12
F137415981.3539
sg13
Nsba(iGraphics.simplified_new
Scores
p213
(dp214
g10
I55
sg11
F0.5242718632052287
sg12
F130966330.5097
sg13
Nsba(iGraphics.simplified_new
Scores
p215
(dp216
g10
I78
sg11
F0.49362201264482086
sg12
F129826478.8637
sg13
Nsba(iGraphics.simplified_new
Scores
p217
(dp218
g10
I64
sg11
F0.4337715270406529
sg12
F140055492.4443
sg13
Nsba(iGraphics.simplified_new
Scores
p219
(dp220
g10
I73
sg11
F0.42656227421606135
sg12
F134664378.2014
sg13
Nsba(iGraphics.simplified_new
Scores
p221
(dp222
g10
I87
sg11
F0.4029521153695922
sg12
F135072035.2071
sg13
Nsba(iGraphics.simplified_new
Scores
p223
(dp224
g10
I73
sg11
F0.4904608405785306
sg12
F128921849.9607
sg13
Nsba(iGraphics.simplified_new
Scores
p225
(dp226
g10
I78
sg11
F0.4611738392443969
sg12
F137179852.3872
sg13
Nsba(iGraphics.simplified_new
Scores
p227
(dp228
g10
I55
sg11
F0.4081543233602379
sg12
F131392960.1391
sg13
Nsba(iGraphics.simplified_new
Scores
p229
(dp230
g10
I39
sg11
F0.46377993414727897
sg12
F131327590.7949
sg13
Nsba(iGraphics.simplified_new
Scores
p231
(dp232
g10
I64
sg11
F0.42274493252919165
sg12
F139016276.9107
sg13
Nsbasg52
S'SWAY5'
p233
sbsS'NSGAII_100'
p234
(iGraphics.simplified_new
SolutionHolder
p235
(dp236
g4
g5
sg6
(lp237
(iGraphics.simplified_new
Scores
p238
(dp239
g10
I100
sg11
F0.7240672576878214
sg12
F142127621.2096
sg13
Nsba(iGraphics.simplified_new
Scores
p240
(dp241
g10
I100
sg11
F0.7658151333495404
sg12
F145715192.1075
sg13
Nsba(iGraphics.simplified_new
Scores
p242
(dp243
g10
I100
sg11
F0.6672603250934522
sg12
F141524809.5168
sg13
Nsba(iGraphics.simplified_new
Scores
p244
(dp245
g10
I100
sg11
F0.667723366870462
sg12
F143333380.437
sg13
Nsba(iGraphics.simplified_new
Scores
p246
(dp247
g10
I100
sg11
F0.7349080907237949
sg12
F143472067.9894
sg13
Nsba(iGraphics.simplified_new
Scores
p248
(dp249
g10
I100
sg11
F0.6160512499618326
sg12
F143497096.0904
sg13
Nsba(iGraphics.simplified_new
Scores
p250
(dp251
g10
I100
sg11
F0.7170238012331704
sg12
F143201837.1791
sg13
Nsba(iGraphics.simplified_new
Scores
p252
(dp253
g10
I100
sg11
F0.6714101776089205
sg12
F142371297.1154
sg13
Nsba(iGraphics.simplified_new
Scores
p254
(dp255
g10
I100
sg11
F0.7932910746323177
sg12
F142985078.4722
sg13
Nsba(iGraphics.simplified_new
Scores
p256
(dp257
g10
I100
sg11
F0.6825895343359416
sg12
F143371887.8306
sg13
Nsba(iGraphics.simplified_new
Scores
p258
(dp259
g10
I100
sg11
F0.6665745551998604
sg12
F143770978.9356
sg13
Nsba(iGraphics.simplified_new
Scores
p260
(dp261
g10
I100
sg11
F0.5931078211789517
sg12
F144231936.1911
sg13
Nsba(iGraphics.simplified_new
Scores
p262
(dp263
g10
I100
sg11
F0.7218168067643885
sg12
F142768036.6511
sg13
Nsba(iGraphics.simplified_new
Scores
p264
(dp265
g10
I100
sg11
F0.6744778949580292
sg12
F143091797.7979
sg13
Nsba(iGraphics.simplified_new
Scores
p266
(dp267
g10
I100
sg11
F0.7023570026006773
sg12
F144438221.3973
sg13
Nsba(iGraphics.simplified_new
Scores
p268
(dp269
g10
I100
sg11
F0.7029887836524259
sg12
F144302718.5366
sg13
Nsba(iGraphics.simplified_new
Scores
p270
(dp271
g10
I100
sg11
F0.6637436450463934
sg12
F144158533.1238
sg13
Nsba(iGraphics.simplified_new
Scores
p272
(dp273
g10
I100
sg11
F0.7076355663713725
sg12
F143188146.2674
sg13
Nsba(iGraphics.simplified_new
Scores
p274
(dp275
g10
I100
sg11
F0.8099457558569542
sg12
F144520916.4701
sg13
Nsba(iGraphics.simplified_new
Scores
p276
(dp277
g10
I100
sg11
F0.7577434112371505
sg12
F143819574.2496
sg13
Nsbasg52
S'NSGAII'
p278
sbs.