(dp0
S'SWAY5_2500'
p1
(iGraphics.simplified_new
SolutionHolder
p2
(dp3
S'problem'
p4
S'xomoo2'
p5
sS'repeats'
p6
(lp7
(iGraphics.simplified_new
Scores
p8
(dp9
S'pfs'
p10
I39
sS'spread'
p11
F0.5480357339538876
sS'hv'
p12
F128601257.1362
sS'igd'
p13
Nsba(iGraphics.simplified_new
Scores
p14
(dp15
g10
I29
sg11
F0.4908962427316681
sg12
F128013256.6761
sg13
Nsba(iGraphics.simplified_new
Scores
p16
(dp17
g10
I19
sg11
F0.4692848680700477
sg12
F132737508.4349
sg13
Nsba(iGraphics.simplified_new
Scores
p18
(dp19
g10
I29
sg11
F0.43903706863677866
sg12
F123191554.0995
sg13
Nsba(iGraphics.simplified_new
Scores
p20
(dp21
g10
I30
sg11
F0.4527434190639887
sg12
F134354681.9686
sg13
Nsba(iGraphics.simplified_new
Scores
p22
(dp23
g10
I17
sg11
F0.4634552732161797
sg12
F136301294.494
sg13
Nsba(iGraphics.simplified_new
Scores
p24
(dp25
g10
I29
sg11
F0.3569626349428066
sg12
F133599794.1338
sg13
Nsba(iGraphics.simplified_new
Scores
p26
(dp27
g10
I26
sg11
F0.5846910733703794
sg12
F126925735.7385
sg13
Nsba(iGraphics.simplified_new
Scores
p28
(dp29
g10
I39
sg11
F0.3744213636118831
sg12
F132028944.05
sg13
Nsba(iGraphics.simplified_new
Scores
p30
(dp31
g10
I30
sg11
F0.4217845819894274
sg12
F126112301.2698
sg13
Nsba(iGraphics.simplified_new
Scores
p32
(dp33
g10
I25
sg11
F0.42683475445133556
sg12
F119938879.7025
sg13
Nsba(iGraphics.simplified_new
Scores
p34
(dp35
g10
I28
sg11
F0.39734325565222994
sg12
F140172871.4877
sg13
Nsba(iGraphics.simplified_new
Scores
p36
(dp37
g10
I32
sg11
F0.4489848290716934
sg12
F135683011.7774
sg13
Nsba(iGraphics.simplified_new
Scores
p38
(dp39
g10
I29
sg11
F0.6485998703168679
sg12
F132863105.8839
sg13
Nsba(iGraphics.simplified_new
Scores
p40
(dp41
g10
I31
sg11
F0.5331128474780745
sg12
F125484158.1276
sg13
Nsba(iGraphics.simplified_new
Scores
p42
(dp43
g10
I29
sg11
F0.4893455783130179
sg12
F119368126.1222
sg13
Nsba(iGraphics.simplified_new
Scores
p44
(dp45
g10
I39
sg11
F0.48271474692168764
sg12
F133148003.7782
sg13
Nsba(iGraphics.simplified_new
Scores
p46
(dp47
g10
I29
sg11
F0.41039031615127086
sg12
F120923122.2407
sg13
Nsba(iGraphics.simplified_new
Scores
p48
(dp49
g10
I26
sg11
F0.50266530242578
sg12
F131880470.8061
sg13
Nsba(iGraphics.simplified_new
Scores
p50
(dp51
g10
I39
sg11
F0.45403385881457237
sg12
F141810420.8735
sg13
NsbasS'algorithm'
p52
S'SWAY5'
p53
sbsS'SWAY5_10000'
p54
(iGraphics.simplified_new
SolutionHolder
p55
(dp56
g4
g5
sg6
(lp57
(iGraphics.simplified_new
Scores
p58
(dp59
g10
I59
sg11
F0.45137980734546723
sg12
F131918299.5241
sg13
Nsba(iGraphics.simplified_new
Scores
p60
(dp61
g10
I76
sg11
F0.46948836246136505
sg12
F133726082.7062
sg13
Nsba(iGraphics.simplified_new
Scores
p62
(dp63
g10
I73
sg11
F0.4374558776372597
sg12
F134494217.0998
sg13
Nsba(iGraphics.simplified_new
Scores
p64
(dp65
g10
I29
sg11
F0.48101547066127015
sg12
F132903310.6648
sg13
Nsba(iGraphics.simplified_new
Scores
p66
(dp67
g10
I78
sg11
F0.43271648903686233
sg12
F133017553.5985
sg13
Nsba(iGraphics.simplified_new
Scores
p68
(dp69
g10
I52
sg11
F0.5132862487481853
sg12
F130525115.5775
sg13
Nsba(iGraphics.simplified_new
Scores
p70
(dp71
g10
I78
sg11
F0.4240645549261762
sg12
F131406135.4436
sg13
Nsba(iGraphics.simplified_new
Scores
p72
(dp73
g10
I78
sg11
F0.49468485896998365
sg12
F135211421.4946
sg13
Nsba(iGraphics.simplified_new
Scores
p74
(dp75
g10
I66
sg11
F0.47851620294708197
sg12
F143201202.0572
sg13
Nsba(iGraphics.simplified_new
Scores
p76
(dp77
g10
I68
sg11
F0.42653619070835186
sg12
F132914504.7265
sg13
Nsba(iGraphics.simplified_new
Scores
p78
(dp79
g10
I42
sg11
F0.38987467082959293
sg12
F133785507.0355
sg13
Nsba(iGraphics.simplified_new
Scores
p80
(dp81
g10
I45
sg11
F0.5856859330270494
sg12
F142460780.1861
sg13
Nsba(iGraphics.simplified_new
Scores
p82
(dp83
g10
I77
sg11
F0.4526038391121543
sg12
F132979400.675
sg13
Nsba(iGraphics.simplified_new
Scores
p84
(dp85
g10
I78
sg11
F0.4491905866079268
sg12
F132547030.7789
sg13
Nsba(iGraphics.simplified_new
Scores
p86
(dp87
g10
I51
sg11
F0.46846621111066217
sg12
F129917603.8405
sg13
Nsba(iGraphics.simplified_new
Scores
p88
(dp89
g10
I57
sg11
F0.5044246582467711
sg12
F140071160.6911
sg13
Nsba(iGraphics.simplified_new
Scores
p90
(dp91
g10
I29
sg11
F0.5417531609393333
sg12
F135426189.8569
sg13
Nsba(iGraphics.simplified_new
Scores
p92
(dp93
g10
I58
sg11
F0.4509916285816756
sg12
F141646286.5473
sg13
Nsba(iGraphics.simplified_new
Scores
p94
(dp95
g10
I44
sg11
F0.41009182652762155
sg12
F134356699.6103
sg13
Nsba(iGraphics.simplified_new
Scores
p96
(dp97
g10
I78
sg11
F0.4511719217575685
sg12
F133531448.8081
sg13
Nsbasg52
S'SWAY5'
p98
sbsS'SWAY5_1225'
p99
(iGraphics.simplified_new
SolutionHolder
p100
(dp101
g4
g5
sg6
(lp102
(iGraphics.simplified_new
Scores
p103
(dp104
g10
I25
sg11
F0.46100643992629975
sg12
F126003861.1121
sg13
Nsba(iGraphics.simplified_new
Scores
p105
(dp106
g10
I18
sg11
F0.44352474428623717
sg12
F123507546.926
sg13
Nsba(iGraphics.simplified_new
Scores
p107
(dp108
g10
I19
sg11
F0.4541618312810247
sg12
F140367097.6656
sg13
Nsba(iGraphics.simplified_new
Scores
p109
(dp110
g10
I34
sg11
F0.4583138043570291
sg12
F132673029.8272
sg13
Nsba(iGraphics.simplified_new
Scores
p111
(dp112
g10
I19
sg11
F0.5358439617867811
sg12
F120155115.5279
sg13
Nsba(iGraphics.simplified_new
Scores
p113
(dp114
g10
I19
sg11
F0.4914127226864167
sg12
F133903380.0144
sg13
Nsba(iGraphics.simplified_new
Scores
p115
(dp116
g10
I20
sg11
F0.4318226992737043
sg12
F131366636.6379
sg13
Nsba(iGraphics.simplified_new
Scores
p117
(dp118
g10
I29
sg11
F0.5566367667252883
sg12
F127671056.29
sg13
Nsba(iGraphics.simplified_new
Scores
p119
(dp120
g10
I28
sg11
F0.4649275577496756
sg12
F138410156.6801
sg13
Nsba(iGraphics.simplified_new
Scores
p121
(dp122
g10
I19
sg11
F0.49016254761998834
sg12
F123710659.3411
sg13
Nsba(iGraphics.simplified_new
Scores
p123
(dp124
g10
I33
sg11
F0.4290817840072302
sg12
F132879172.7274
sg13
Nsba(iGraphics.simplified_new
Scores
p125
(dp126
g10
I25
sg11
F0.5161230610825799
sg12
F133276907.1616
sg13
Nsba(iGraphics.simplified_new
Scores
p127
(dp128
g10
I19
sg11
F0.5264902099216127
sg12
F131911175.2601
sg13
Nsba(iGraphics.simplified_new
Scores
p129
(dp130
g10
I21
sg11
F0.4220065972017269
sg12
F130638208.6627
sg13
Nsba(iGraphics.simplified_new
Scores
p131
(dp132
g10
I34
sg11
F0.5552190922987953
sg12
F135627271.1885
sg13
Nsba(iGraphics.simplified_new
Scores
p133
(dp134
g10
I28
sg11
F0.5167545353928852
sg12
F137171594.8463
sg13
Nsba(iGraphics.simplified_new
Scores
p135
(dp136
g10
I29
sg11
F0.5590695195215527
sg12
F126012775.9358
sg13
Nsba(iGraphics.simplified_new
Scores
p137
(dp138
g10
I33
sg11
F0.5563767606057941
sg12
F128405776.0156
sg13
Nsba(iGraphics.simplified_new
Scores
p139
(dp140
g10
I19
sg11
F0.4996332073637389
sg12
F120222240.578
sg13
Nsba(iGraphics.simplified_new
Scores
p141
(dp142
g10
I19
sg11
F0.6785055161633713
sg12
F121897082.7062
sg13
Nsbasg52
S'SWAY5'
p143
sbsS'SWAY5_5000'
p144
(iGraphics.simplified_new
SolutionHolder
p145
(dp146
g4
g5
sg6
(lp147
(iGraphics.simplified_new
Scores
p148
(dp149
g10
I19
sg11
F0.43868935311202983
sg12
F121876396.374
sg13
Nsba(iGraphics.simplified_new
Scores
p150
(dp151
g10
I42
sg11
F0.46156699235980836
sg12
F132776293.3293
sg13
Nsba(iGraphics.simplified_new
Scores
p152
(dp153
g10
I45
sg11
F0.4848638664645705
sg12
F144391408.8095
sg13
Nsba(iGraphics.simplified_new
Scores
p154
(dp155
g10
I68
sg11
F0.4936478367971552
sg12
F134125660.3488
sg13
Nsba(iGraphics.simplified_new
Scores
p156
(dp157
g10
I66
sg11
F0.37224183546839773
sg12
F142026991.7209
sg13
Nsba(iGraphics.simplified_new
Scores
p158
(dp159
g10
I59
sg11
F0.566536622440198
sg12
F130399294.6758
sg13
Nsba(iGraphics.simplified_new
Scores
p160
(dp161
g10
I58
sg11
F0.4422670954418188
sg12
F137754693.9114
sg13
Nsba(iGraphics.simplified_new
Scores
p162
(dp163
g10
I39
sg11
F0.5068803889136133
sg12
F131022856.9508
sg13
Nsba(iGraphics.simplified_new
Scores
p164
(dp165
g10
I34
sg11
F0.4706403967667256
sg12
F136435624.2573
sg13
Nsba(iGraphics.simplified_new
Scores
p166
(dp167
g10
I56
sg11
F0.5377525627567721
sg12
F133528883.471
sg13
Nsba(iGraphics.simplified_new
Scores
p168
(dp169
g10
I39
sg11
F0.4323428140044089
sg12
F124553123.511
sg13
Nsba(iGraphics.simplified_new
Scores
p170
(dp171
g10
I39
sg11
F0.4868687381287522
sg12
F124050009.524
sg13
Nsba(iGraphics.simplified_new
Scores
p172
(dp173
g10
I59
sg11
F0.4913477580591233
sg12
F139759132.1032
sg13
Nsba(iGraphics.simplified_new
Scores
p174
(dp175
g10
I22
sg11
F0.5771522957852396
sg12
F118832767.7366
sg13
Nsba(iGraphics.simplified_new
Scores
p176
(dp177
g10
I59
sg11
F0.4199098805450746
sg12
F138498023.1592
sg13
Nsba(iGraphics.simplified_new
Scores
p178
(dp179
g10
I39
sg11
F0.4239353589792894
sg12
F129130269.3061
sg13
Nsba(iGraphics.simplified_new
Scores
p180
(dp181
g10
I36
sg11
F0.46441104798021066
sg12
F128248570.5991
sg13
Nsba(iGraphics.simplified_new
Scores
p182
(dp183
g10
I39
sg11
F0.4697311113611985
sg12
F119196869.6131
sg13
Nsba(iGraphics.simplified_new
Scores
p184
(dp185
g10
I45
sg11
F0.5080501531228162
sg12
F131401664.9357
sg13
Nsba(iGraphics.simplified_new
Scores
p186
(dp187
g10
I19
sg11
F0.5912477393802068
sg12
F135313138.8413
sg13
Nsbasg52
S'SWAY5'
p188
sbs.