(dp0
S'GALE'
p1
(dp2
S'normal'
p3
(lp4
F124971934282.9686
a(lp5
F64447583311.9235
aF50011327067.9287
aF77988103205.9313
aF55793109239.572
aF50596852964.0589
aF43779965840.825
aF79439281556.8572
aF56702493601.5304
aF89565013566.9381
aF0.0
aass.