(dp0
S'GALE'
p1
(dp2
S'normal'
p3
(lp4
F124940741493.9802
a(lp5
F121606724901.2679
aF118936993314.744
aF117231966554.5264
aF119894820747.9624
aF111146638009.7538
aF116757247167.6296
aF117794955763.7481
aF117448273126.6733
aF112885378283.2159
aF116013905532.9461
aass.