(dp0
S'GALE'
p1
(dp2
S'normal'
p3
(lp4
F124748132916.0128
a(lp5
F122216264636.262
aF120834686366.9486
aF114711634638.9394
aF120988563146.3252
aF118137181729.9283
aF120785267700.9031
aF122531713116.3115
aF121985150855.4537
aF117355850692.5116
aF118999000105.3759
aass.