(dp0
S'GALE'
p1
(dp2
S'normal'
p3
(lp4
F124928052892.8526
a(lp5
F104655803276.2389
aF82596420208.9513
aF0.0
aF120437215020.3845
aF0.0
aF86670771830.4293
aF113420595835.0189
aF71376367279.5981
aF0.0
aF10039303183.9282
aass.